
C:/Users/kaushikp/Documents/pico/ece414-kaushik-poudel/lab5b/build/Lab5.elf:     file format elf32-littlearm

Sections:
Idx Name          Size      VMA       LMA       File off  Algn
  0 .boot2        00000100  10000000  10000000  00001000  2**0
                  CONTENTS, ALLOC, LOAD, READONLY, CODE
  1 .text         00008868  10000100  10000100  00001100  2**3
                  CONTENTS, ALLOC, LOAD, READONLY, CODE
  2 .rodata       000009b4  10008968  10008968  00009968  2**3
                  CONTENTS, ALLOC, LOAD, READONLY, DATA
  3 .binary_info  00000028  1000931c  1000931c  0000a31c  2**2
                  CONTENTS, ALLOC, LOAD, READONLY, DATA
  4 .ram_vector_table 000000c0  20000000  20000000  0000c000  2**2
                  ALLOC
  5 .data         000001b8  200000c0  10009344  0000b0c0  2**4
                  CONTENTS, ALLOC, LOAD, READONLY, CODE
  6 .uninitialized_data 0000000c  20000278  100094fc  0000b278  2**2
                  ALLOC
  7 .scratch_x    00000000  20040000  20040000  0000b278  2**0
                  CONTENTS
  8 .scratch_y    00000000  20041000  20041000  0000b278  2**0
                  CONTENTS
  9 .bss          000004c0  20000288  20000288  0000c000  2**3
                  ALLOC
 10 .heap         00000800  20000748  20000748  0000b278  2**2
                  CONTENTS, READONLY
 11 .stack_dummy  00000800  20041000  20041000  0000ba80  2**5
                  CONTENTS, READONLY
 12 .ARM.attributes 00000028  00000000  00000000  0000c280  2**0
                  CONTENTS, READONLY
 13 .comment      00000049  00000000  00000000  0000c2a8  2**0
                  CONTENTS, READONLY
 14 .debug_frame  00000028  00000000  00000000  0000c2f4  2**2
                  CONTENTS, READONLY, DEBUGGING, OCTETS

C:/Users/kaushikp/Documents/pico/ece414-kaushik-poudel/lab5b/build/Lab5.elf:     file format elf32-littlearm


Disassembly of section .boot2:

10000000 <__boot2_start__>:
10000000:	4b32b500 	.word	0x4b32b500
10000004:	60582021 	.word	0x60582021
10000008:	21026898 	.word	0x21026898
1000000c:	60984388 	.word	0x60984388
10000010:	611860d8 	.word	0x611860d8
10000014:	4b2e6158 	.word	0x4b2e6158
10000018:	60992100 	.word	0x60992100
1000001c:	61592102 	.word	0x61592102
10000020:	22f02101 	.word	0x22f02101
10000024:	492b5099 	.word	0x492b5099
10000028:	21016019 	.word	0x21016019
1000002c:	20356099 	.word	0x20356099
10000030:	f844f000 	.word	0xf844f000
10000034:	42902202 	.word	0x42902202
10000038:	2106d014 	.word	0x2106d014
1000003c:	f0006619 	.word	0xf0006619
10000040:	6e19f834 	.word	0x6e19f834
10000044:	66192101 	.word	0x66192101
10000048:	66182000 	.word	0x66182000
1000004c:	f000661a 	.word	0xf000661a
10000050:	6e19f82c 	.word	0x6e19f82c
10000054:	6e196e19 	.word	0x6e196e19
10000058:	f0002005 	.word	0xf0002005
1000005c:	2101f82f 	.word	0x2101f82f
10000060:	d1f94208 	.word	0xd1f94208
10000064:	60992100 	.word	0x60992100
10000068:	6019491b 	.word	0x6019491b
1000006c:	60592100 	.word	0x60592100
10000070:	481b491a 	.word	0x481b491a
10000074:	21016001 	.word	0x21016001
10000078:	21eb6099 	.word	0x21eb6099
1000007c:	21a06619 	.word	0x21a06619
10000080:	f0006619 	.word	0xf0006619
10000084:	2100f812 	.word	0x2100f812
10000088:	49166099 	.word	0x49166099
1000008c:	60014814 	.word	0x60014814
10000090:	60992101 	.word	0x60992101
10000094:	2800bc01 	.word	0x2800bc01
10000098:	4700d000 	.word	0x4700d000
1000009c:	49134812 	.word	0x49134812
100000a0:	c8036008 	.word	0xc8036008
100000a4:	8808f380 	.word	0x8808f380
100000a8:	b5034708 	.word	0xb5034708
100000ac:	20046a99 	.word	0x20046a99
100000b0:	d0fb4201 	.word	0xd0fb4201
100000b4:	42012001 	.word	0x42012001
100000b8:	bd03d1f8 	.word	0xbd03d1f8
100000bc:	6618b502 	.word	0x6618b502
100000c0:	f7ff6618 	.word	0xf7ff6618
100000c4:	6e18fff2 	.word	0x6e18fff2
100000c8:	bd026e18 	.word	0xbd026e18
100000cc:	40020000 	.word	0x40020000
100000d0:	18000000 	.word	0x18000000
100000d4:	00070000 	.word	0x00070000
100000d8:	005f0300 	.word	0x005f0300
100000dc:	00002221 	.word	0x00002221
100000e0:	180000f4 	.word	0x180000f4
100000e4:	a0002022 	.word	0xa0002022
100000e8:	10000100 	.word	0x10000100
100000ec:	e000ed08 	.word	0xe000ed08
	...
100000fc:	7a4eb274 	.word	0x7a4eb274

Disassembly of section .text:

10000100 <__VECTOR_TABLE>:
10000100:	20042000 	.word	0x20042000
10000104:	100001f7 	.word	0x100001f7
10000108:	100001c3 	.word	0x100001c3
1000010c:	100001c5 	.word	0x100001c5
10000110:	100001c1 	.word	0x100001c1
10000114:	100001c1 	.word	0x100001c1
10000118:	100001c1 	.word	0x100001c1
1000011c:	100001c1 	.word	0x100001c1
10000120:	100001c1 	.word	0x100001c1
10000124:	100001c1 	.word	0x100001c1
10000128:	100001c1 	.word	0x100001c1
1000012c:	100001c7 	.word	0x100001c7
10000130:	100001c1 	.word	0x100001c1
10000134:	100001c1 	.word	0x100001c1
10000138:	100001c9 	.word	0x100001c9
1000013c:	100001cb 	.word	0x100001cb
10000140:	100001cd 	.word	0x100001cd
10000144:	100001cd 	.word	0x100001cd
10000148:	100001cd 	.word	0x100001cd
1000014c:	100001cd 	.word	0x100001cd
10000150:	100001cd 	.word	0x100001cd
10000154:	100001cd 	.word	0x100001cd
10000158:	100001cd 	.word	0x100001cd
1000015c:	100001cd 	.word	0x100001cd
10000160:	100001cd 	.word	0x100001cd
10000164:	100001cd 	.word	0x100001cd
10000168:	100001cd 	.word	0x100001cd
1000016c:	100001cd 	.word	0x100001cd
10000170:	100001cd 	.word	0x100001cd
10000174:	100001cd 	.word	0x100001cd
10000178:	100001cd 	.word	0x100001cd
1000017c:	100001cd 	.word	0x100001cd
10000180:	100001cd 	.word	0x100001cd
10000184:	100001cd 	.word	0x100001cd
10000188:	100001cd 	.word	0x100001cd
1000018c:	100001cd 	.word	0x100001cd
10000190:	100001cd 	.word	0x100001cd
10000194:	100001cd 	.word	0x100001cd
10000198:	100001cd 	.word	0x100001cd
1000019c:	100001cd 	.word	0x100001cd
100001a0:	100001cd 	.word	0x100001cd
100001a4:	100001cd 	.word	0x100001cd
100001a8:	100001cd 	.word	0x100001cd
100001ac:	100001cd 	.word	0x100001cd
100001b0:	100001cd 	.word	0x100001cd
100001b4:	100001cd 	.word	0x100001cd
100001b8:	100001cd 	.word	0x100001cd
100001bc:	100001cd 	.word	0x100001cd

100001c0 <isr_invalid>:
100001c0:	be00      	bkpt	0x0000

100001c2 <isr_nmi>:
100001c2:	be00      	bkpt	0x0000

100001c4 <isr_hardfault>:
100001c4:	be00      	bkpt	0x0000

100001c6 <isr_svcall>:
100001c6:	be00      	bkpt	0x0000

100001c8 <isr_pendsv>:
100001c8:	be00      	bkpt	0x0000

100001ca <isr_systick>:
100001ca:	be00      	bkpt	0x0000

100001cc <__unhandled_user_irq>:
100001cc:	f3ef 8005 	mrs	r0, IPSR
100001d0:	3810      	subs	r0, #16

100001d2 <unhandled_user_irq_num_in_r0>:
100001d2:	be00      	bkpt	0x0000

100001d4 <binary_info_header>:
100001d4:	7188ebf2 	.word	0x7188ebf2
100001d8:	1000931c 	.word	0x1000931c
100001dc:	10009344 	.word	0x10009344
100001e0:	10000234 	.word	0x10000234
100001e4:	e71aa390 	.word	0xe71aa390

100001e8 <_entry_point>:
100001e8:	2000      	movs	r0, #0
100001ea:	491f      	ldr	r1, [pc, #124]	; (10000268 <hold_non_core0_in_bootrom+0xa>)
100001ec:	6008      	str	r0, [r1, #0]
100001ee:	c806      	ldmia	r0!, {r1, r2}
100001f0:	f381 8808 	msr	MSP, r1
100001f4:	4710      	bx	r2

100001f6 <_reset_handler>:
100001f6:	481d      	ldr	r0, [pc, #116]	; (1000026c <hold_non_core0_in_bootrom+0xe>)
100001f8:	6800      	ldr	r0, [r0, #0]
100001fa:	2800      	cmp	r0, #0
100001fc:	d12f      	bne.n	1000025e <hold_non_core0_in_bootrom>
100001fe:	a40d      	add	r4, pc, #52	; (adr r4, 10000234 <data_cpy_table>)
10000200:	cc0e      	ldmia	r4!, {r1, r2, r3}
10000202:	2900      	cmp	r1, #0
10000204:	d002      	beq.n	1000020c <_reset_handler+0x16>
10000206:	f000 f812 	bl	1000022e <data_cpy>
1000020a:	e7f9      	b.n	10000200 <_reset_handler+0xa>
1000020c:	4918      	ldr	r1, [pc, #96]	; (10000270 <hold_non_core0_in_bootrom+0x12>)
1000020e:	4a19      	ldr	r2, [pc, #100]	; (10000274 <hold_non_core0_in_bootrom+0x16>)
10000210:	2000      	movs	r0, #0
10000212:	e000      	b.n	10000216 <bss_fill_test>

10000214 <bss_fill_loop>:
10000214:	c101      	stmia	r1!, {r0}

10000216 <bss_fill_test>:
10000216:	4291      	cmp	r1, r2
10000218:	d1fc      	bne.n	10000214 <bss_fill_loop>

1000021a <platform_entry>:
1000021a:	4917      	ldr	r1, [pc, #92]	; (10000278 <hold_non_core0_in_bootrom+0x1a>)
1000021c:	4788      	blx	r1
1000021e:	4917      	ldr	r1, [pc, #92]	; (1000027c <hold_non_core0_in_bootrom+0x1e>)
10000220:	4788      	blx	r1
10000222:	4917      	ldr	r1, [pc, #92]	; (10000280 <hold_non_core0_in_bootrom+0x22>)
10000224:	4788      	blx	r1
10000226:	be00      	bkpt	0x0000
10000228:	e7fd      	b.n	10000226 <platform_entry+0xc>

1000022a <data_cpy_loop>:
1000022a:	c901      	ldmia	r1!, {r0}
1000022c:	c201      	stmia	r2!, {r0}

1000022e <data_cpy>:
1000022e:	429a      	cmp	r2, r3
10000230:	d3fb      	bcc.n	1000022a <data_cpy_loop>
10000232:	4770      	bx	lr

10000234 <data_cpy_table>:
10000234:	10009344 	.word	0x10009344
10000238:	200000c0 	.word	0x200000c0
1000023c:	20000278 	.word	0x20000278
10000240:	100094fc 	.word	0x100094fc
10000244:	20040000 	.word	0x20040000
10000248:	20040000 	.word	0x20040000
1000024c:	100094fc 	.word	0x100094fc
10000250:	20041000 	.word	0x20041000
10000254:	20041000 	.word	0x20041000
10000258:	00000000 	.word	0x00000000
1000025c:	4770      	bx	lr

1000025e <hold_non_core0_in_bootrom>:
1000025e:	4809      	ldr	r0, [pc, #36]	; (10000284 <hold_non_core0_in_bootrom+0x26>)
10000260:	f006 fefe 	bl	10007060 <rom_func_lookup>
10000264:	4700      	bx	r0
10000266:	0000      	.short	0x0000
10000268:	e000ed08 	.word	0xe000ed08
1000026c:	d0000000 	.word	0xd0000000
10000270:	20000288 	.word	0x20000288
10000274:	20000748 	.word	0x20000748
10000278:	10005919 	.word	0x10005919
1000027c:	10003df9 	.word	0x10003df9
10000280:	10005a0d 	.word	0x10005a0d
10000284:	00005657 	.word	0x00005657

10000288 <__bi_50>:
10000288:	50520006 5360b3ab 10009258              ..RP..`SX...

10000294 <__bi_38>:
10000294:	50520006 02031c86 10009268              ..RP....h...

100002a0 <__bi_30>:
100002a0:	50520006 9da22254 10009270              ..RPT"..p...

100002ac <__bi_22>:
100002ac:	50520005 68f465de 100094fc              ..RP.e.h....

100002b8 <_init>:
100002b8:	b5f8      	push	{r3, r4, r5, r6, r7, lr}
100002ba:	46c0      	nop			; (mov r8, r8)

100002bc <__do_global_dtors_aux>:
100002bc:	b510      	push	{r4, lr}
100002be:	4c06      	ldr	r4, [pc, #24]	; (100002d8 <__do_global_dtors_aux+0x1c>)
100002c0:	7823      	ldrb	r3, [r4, #0]
100002c2:	2b00      	cmp	r3, #0
100002c4:	d107      	bne.n	100002d6 <__do_global_dtors_aux+0x1a>
100002c6:	4b05      	ldr	r3, [pc, #20]	; (100002dc <__do_global_dtors_aux+0x20>)
100002c8:	2b00      	cmp	r3, #0
100002ca:	d002      	beq.n	100002d2 <__do_global_dtors_aux+0x16>
100002cc:	4804      	ldr	r0, [pc, #16]	; (100002e0 <__do_global_dtors_aux+0x24>)
100002ce:	e000      	b.n	100002d2 <__do_global_dtors_aux+0x16>
100002d0:	bf00      	nop
100002d2:	2301      	movs	r3, #1
100002d4:	7023      	strb	r3, [r4, #0]
100002d6:	bd10      	pop	{r4, pc}
100002d8:	20000588 	.word	0x20000588
100002dc:	00000000 	.word	0x00000000
100002e0:	10008968 	.word	0x10008968

100002e4 <frame_dummy>:
100002e4:	4b04      	ldr	r3, [pc, #16]	; (100002f8 <frame_dummy+0x14>)
100002e6:	b510      	push	{r4, lr}
100002e8:	2b00      	cmp	r3, #0
100002ea:	d003      	beq.n	100002f4 <frame_dummy+0x10>
100002ec:	4903      	ldr	r1, [pc, #12]	; (100002fc <frame_dummy+0x18>)
100002ee:	4804      	ldr	r0, [pc, #16]	; (10000300 <frame_dummy+0x1c>)
100002f0:	e000      	b.n	100002f4 <frame_dummy+0x10>
100002f2:	bf00      	nop
100002f4:	bd10      	pop	{r4, pc}
100002f6:	46c0      	nop			; (mov r8, r8)
100002f8:	00000000 	.word	0x00000000
100002fc:	2000058c 	.word	0x2000058c
10000300:	10008968 	.word	0x10008968

10000304 <getPoint>:
10000304:	b5f0      	push	{r4, r5, r6, r7, lr}
10000306:	46d6      	mov	lr, sl
10000308:	464f      	mov	r7, r9
1000030a:	4646      	mov	r6, r8
1000030c:	b5c0      	push	{r6, r7, lr}
1000030e:	4681      	mov	r9, r0
10000310:	b084      	sub	sp, #16
10000312:	2015      	movs	r0, #21
10000314:	f003 ff80 	bl	10004218 <gpio_init>
10000318:	24d0      	movs	r4, #208	; 0xd0
1000031a:	2380      	movs	r3, #128	; 0x80
1000031c:	0624      	lsls	r4, r4, #24
1000031e:	039b      	lsls	r3, r3, #14
10000320:	62a3      	str	r3, [r4, #40]	; 0x28
10000322:	211f      	movs	r1, #31
10000324:	201b      	movs	r0, #27
10000326:	f003 ff21 	bl	1000416c <gpio_set_function>
1000032a:	2200      	movs	r2, #0
1000032c:	2100      	movs	r1, #0
1000032e:	201b      	movs	r0, #27
10000330:	f003 ff34 	bl	1000419c <gpio_set_pulls>
10000334:	2100      	movs	r1, #0
10000336:	201b      	movs	r0, #27
10000338:	f003 ff5a 	bl	100041f0 <gpio_set_input_enabled>
1000033c:	2380      	movs	r3, #128	; 0x80
1000033e:	4d96      	ldr	r5, [pc, #600]	; (10000598 <getPoint+0x294>)
10000340:	015b      	lsls	r3, r3, #5
10000342:	682a      	ldr	r2, [r5, #0]
10000344:	2016      	movs	r0, #22
10000346:	4053      	eors	r3, r2
10000348:	22e0      	movs	r2, #224	; 0xe0
1000034a:	01d2      	lsls	r2, r2, #7
1000034c:	4013      	ands	r3, r2
1000034e:	4a93      	ldr	r2, [pc, #588]	; (1000059c <getPoint+0x298>)
10000350:	af04      	add	r7, sp, #16
10000352:	6013      	str	r3, [r2, #0]
10000354:	f003 ff60 	bl	10004218 <gpio_init>
10000358:	2380      	movs	r3, #128	; 0x80
1000035a:	03db      	lsls	r3, r3, #15
1000035c:	6263      	str	r3, [r4, #36]	; 0x24
1000035e:	201a      	movs	r0, #26
10000360:	6163      	str	r3, [r4, #20]
10000362:	f003 ff59 	bl	10004218 <gpio_init>
10000366:	2380      	movs	r3, #128	; 0x80
10000368:	04db      	lsls	r3, r3, #19
1000036a:	6263      	str	r3, [r4, #36]	; 0x24
1000036c:	61a3      	str	r3, [r4, #24]
1000036e:	4b8c      	ldr	r3, [pc, #560]	; (100005a0 <getPoint+0x29c>)
10000370:	ac01      	add	r4, sp, #4
10000372:	2280      	movs	r2, #128	; 0x80
10000374:	0026      	movs	r6, r4
10000376:	0021      	movs	r1, r4
10000378:	469c      	mov	ip, r3
1000037a:	2004      	movs	r0, #4
1000037c:	0052      	lsls	r2, r2, #1
1000037e:	4663      	mov	r3, ip
10000380:	6018      	str	r0, [r3, #0]
10000382:	682b      	ldr	r3, [r5, #0]
10000384:	4213      	tst	r3, r2
10000386:	d0fc      	beq.n	10000382 <getPoint+0x7e>
10000388:	686b      	ldr	r3, [r5, #4]
1000038a:	041b      	lsls	r3, r3, #16
1000038c:	0c1b      	lsrs	r3, r3, #16
1000038e:	c108      	stmia	r1!, {r3}
10000390:	42b9      	cmp	r1, r7
10000392:	d1f4      	bne.n	1000037e <getPoint+0x7a>
10000394:	9a02      	ldr	r2, [sp, #8]
10000396:	9b01      	ldr	r3, [sp, #4]
10000398:	4293      	cmp	r3, r2
1000039a:	dc00      	bgt.n	1000039e <getPoint+0x9a>
1000039c:	e0f8      	b.n	10000590 <getPoint+0x28c>
1000039e:	9302      	str	r3, [sp, #8]
100003a0:	0023      	movs	r3, r4
100003a2:	601a      	str	r2, [r3, #0]
100003a4:	9d03      	ldr	r5, [sp, #12]
100003a6:	2202      	movs	r2, #2
100003a8:	a902      	add	r1, sp, #8
100003aa:	e000      	b.n	100003ae <getPoint+0xaa>
100003ac:	2201      	movs	r2, #1
100003ae:	4b7d      	ldr	r3, [pc, #500]	; (100005a4 <getPoint+0x2a0>)
100003b0:	18d3      	adds	r3, r2, r3
100003b2:	009b      	lsls	r3, r3, #2
100003b4:	58e0      	ldr	r0, [r4, r3]
100003b6:	4285      	cmp	r5, r0
100003b8:	db00      	blt.n	100003bc <getPoint+0xb8>
100003ba:	e0e3      	b.n	10000584 <getPoint+0x280>
100003bc:	50c8      	str	r0, [r1, r3]
100003be:	2a01      	cmp	r2, #1
100003c0:	d1f4      	bne.n	100003ac <getPoint+0xa8>
100003c2:	0022      	movs	r2, r4
100003c4:	6015      	str	r5, [r2, #0]
100003c6:	6862      	ldr	r2, [r4, #4]
100003c8:	4b77      	ldr	r3, [pc, #476]	; (100005a8 <getPoint+0x2a4>)
100003ca:	2016      	movs	r0, #22
100003cc:	1a9b      	subs	r3, r3, r2
100003ce:	4698      	mov	r8, r3
100003d0:	f003 ff22 	bl	10004218 <gpio_init>
100003d4:	23d0      	movs	r3, #208	; 0xd0
100003d6:	061b      	lsls	r3, r3, #24
100003d8:	469a      	mov	sl, r3
100003da:	2380      	movs	r3, #128	; 0x80
100003dc:	4652      	mov	r2, sl
100003de:	03db      	lsls	r3, r3, #15
100003e0:	6293      	str	r3, [r2, #40]	; 0x28
100003e2:	211f      	movs	r1, #31
100003e4:	201a      	movs	r0, #26
100003e6:	f003 fec1 	bl	1000416c <gpio_set_function>
100003ea:	2200      	movs	r2, #0
100003ec:	2100      	movs	r1, #0
100003ee:	201a      	movs	r0, #26
100003f0:	f003 fed4 	bl	1000419c <gpio_set_pulls>
100003f4:	2100      	movs	r1, #0
100003f6:	201a      	movs	r0, #26
100003f8:	f003 fefa 	bl	100041f0 <gpio_set_input_enabled>
100003fc:	22e0      	movs	r2, #224	; 0xe0
100003fe:	4d66      	ldr	r5, [pc, #408]	; (10000598 <getPoint+0x294>)
10000400:	01d2      	lsls	r2, r2, #7
10000402:	682b      	ldr	r3, [r5, #0]
10000404:	201b      	movs	r0, #27
10000406:	4013      	ands	r3, r2
10000408:	4a64      	ldr	r2, [pc, #400]	; (1000059c <getPoint+0x298>)
1000040a:	6013      	str	r3, [r2, #0]
1000040c:	f003 ff04 	bl	10004218 <gpio_init>
10000410:	2380      	movs	r3, #128	; 0x80
10000412:	4652      	mov	r2, sl
10000414:	051b      	lsls	r3, r3, #20
10000416:	6253      	str	r3, [r2, #36]	; 0x24
10000418:	2015      	movs	r0, #21
1000041a:	6153      	str	r3, [r2, #20]
1000041c:	f003 fefc 	bl	10004218 <gpio_init>
10000420:	2380      	movs	r3, #128	; 0x80
10000422:	4652      	mov	r2, sl
10000424:	039b      	lsls	r3, r3, #14
10000426:	6253      	str	r3, [r2, #36]	; 0x24
10000428:	6193      	str	r3, [r2, #24]
1000042a:	2280      	movs	r2, #128	; 0x80
1000042c:	2104      	movs	r1, #4
1000042e:	485c      	ldr	r0, [pc, #368]	; (100005a0 <getPoint+0x29c>)
10000430:	0052      	lsls	r2, r2, #1
10000432:	6001      	str	r1, [r0, #0]
10000434:	682b      	ldr	r3, [r5, #0]
10000436:	4213      	tst	r3, r2
10000438:	d0fc      	beq.n	10000434 <getPoint+0x130>
1000043a:	686b      	ldr	r3, [r5, #4]
1000043c:	041b      	lsls	r3, r3, #16
1000043e:	0c1b      	lsrs	r3, r3, #16
10000440:	c608      	stmia	r6!, {r3}
10000442:	42be      	cmp	r6, r7
10000444:	d1f5      	bne.n	10000432 <getPoint+0x12e>
10000446:	9a02      	ldr	r2, [sp, #8]
10000448:	9b01      	ldr	r3, [sp, #4]
1000044a:	4293      	cmp	r3, r2
1000044c:	dc00      	bgt.n	10000450 <getPoint+0x14c>
1000044e:	e0a1      	b.n	10000594 <getPoint+0x290>
10000450:	9302      	str	r3, [sp, #8]
10000452:	0023      	movs	r3, r4
10000454:	601a      	str	r2, [r3, #0]
10000456:	9e03      	ldr	r6, [sp, #12]
10000458:	2202      	movs	r2, #2
1000045a:	a802      	add	r0, sp, #8
1000045c:	e000      	b.n	10000460 <getPoint+0x15c>
1000045e:	2201      	movs	r2, #1
10000460:	4b50      	ldr	r3, [pc, #320]	; (100005a4 <getPoint+0x2a0>)
10000462:	18d3      	adds	r3, r2, r3
10000464:	009b      	lsls	r3, r3, #2
10000466:	58e1      	ldr	r1, [r4, r3]
10000468:	428e      	cmp	r6, r1
1000046a:	db00      	blt.n	1000046e <getPoint+0x16a>
1000046c:	e08d      	b.n	1000058a <getPoint+0x286>
1000046e:	50c1      	str	r1, [r0, r3]
10000470:	2a01      	cmp	r2, #1
10000472:	d1f4      	bne.n	1000045e <getPoint+0x15a>
10000474:	0022      	movs	r2, r4
10000476:	6016      	str	r6, [r2, #0]
10000478:	6863      	ldr	r3, [r4, #4]
1000047a:	4c4b      	ldr	r4, [pc, #300]	; (100005a8 <getPoint+0x2a4>)
1000047c:	2016      	movs	r0, #22
1000047e:	1ae4      	subs	r4, r4, r3
10000480:	26d0      	movs	r6, #208	; 0xd0
10000482:	f003 fec9 	bl	10004218 <gpio_init>
10000486:	2380      	movs	r3, #128	; 0x80
10000488:	0636      	lsls	r6, r6, #24
1000048a:	03db      	lsls	r3, r3, #15
1000048c:	6273      	str	r3, [r6, #36]	; 0x24
1000048e:	2015      	movs	r0, #21
10000490:	61b3      	str	r3, [r6, #24]
10000492:	f003 fec1 	bl	10004218 <gpio_init>
10000496:	2380      	movs	r3, #128	; 0x80
10000498:	039b      	lsls	r3, r3, #14
1000049a:	6273      	str	r3, [r6, #36]	; 0x24
1000049c:	211f      	movs	r1, #31
1000049e:	6173      	str	r3, [r6, #20]
100004a0:	201a      	movs	r0, #26
100004a2:	f003 fe63 	bl	1000416c <gpio_set_function>
100004a6:	2200      	movs	r2, #0
100004a8:	2100      	movs	r1, #0
100004aa:	201a      	movs	r0, #26
100004ac:	f003 fe76 	bl	1000419c <gpio_set_pulls>
100004b0:	2100      	movs	r1, #0
100004b2:	201a      	movs	r0, #26
100004b4:	f003 fe9c 	bl	100041f0 <gpio_set_input_enabled>
100004b8:	211f      	movs	r1, #31
100004ba:	201b      	movs	r0, #27
100004bc:	f003 fe56 	bl	1000416c <gpio_set_function>
100004c0:	2200      	movs	r2, #0
100004c2:	2100      	movs	r1, #0
100004c4:	201b      	movs	r0, #27
100004c6:	f003 fe69 	bl	1000419c <gpio_set_pulls>
100004ca:	2100      	movs	r1, #0
100004cc:	201b      	movs	r0, #27
100004ce:	f003 fe8f 	bl	100041f0 <gpio_set_input_enabled>
100004d2:	21e0      	movs	r1, #224	; 0xe0
100004d4:	4a30      	ldr	r2, [pc, #192]	; (10000598 <getPoint+0x294>)
100004d6:	01c9      	lsls	r1, r1, #7
100004d8:	6813      	ldr	r3, [r2, #0]
100004da:	400b      	ands	r3, r1
100004dc:	492f      	ldr	r1, [pc, #188]	; (1000059c <getPoint+0x298>)
100004de:	600b      	str	r3, [r1, #0]
100004e0:	2104      	movs	r1, #4
100004e2:	4b2f      	ldr	r3, [pc, #188]	; (100005a0 <getPoint+0x29c>)
100004e4:	6019      	str	r1, [r3, #0]
100004e6:	31fc      	adds	r1, #252	; 0xfc
100004e8:	6813      	ldr	r3, [r2, #0]
100004ea:	420b      	tst	r3, r1
100004ec:	d0fc      	beq.n	100004e8 <getPoint+0x1e4>
100004ee:	2380      	movs	r3, #128	; 0x80
100004f0:	6856      	ldr	r6, [r2, #4]
100004f2:	6812      	ldr	r2, [r2, #0]
100004f4:	015b      	lsls	r3, r3, #5
100004f6:	4053      	eors	r3, r2
100004f8:	22e0      	movs	r2, #224	; 0xe0
100004fa:	01d2      	lsls	r2, r2, #7
100004fc:	4013      	ands	r3, r2
100004fe:	4a27      	ldr	r2, [pc, #156]	; (1000059c <getPoint+0x298>)
10000500:	2180      	movs	r1, #128	; 0x80
10000502:	6013      	str	r3, [r2, #0]
10000504:	2204      	movs	r2, #4
10000506:	4b26      	ldr	r3, [pc, #152]	; (100005a0 <getPoint+0x29c>)
10000508:	0436      	lsls	r6, r6, #16
1000050a:	601a      	str	r2, [r3, #0]
1000050c:	4a22      	ldr	r2, [pc, #136]	; (10000598 <getPoint+0x294>)
1000050e:	0c36      	lsrs	r6, r6, #16
10000510:	0049      	lsls	r1, r1, #1
10000512:	6813      	ldr	r3, [r2, #0]
10000514:	420b      	tst	r3, r1
10000516:	d0fc      	beq.n	10000512 <getPoint+0x20e>
10000518:	6850      	ldr	r0, [r2, #4]
1000051a:	0400      	lsls	r0, r0, #16
1000051c:	0c00      	lsrs	r0, r0, #16
1000051e:	f007 fc83 	bl	10007e28 <__wrap___aeabi_i2f>
10000522:	1c07      	adds	r7, r0, #0
10000524:	0030      	movs	r0, r6
10000526:	f007 fc7f 	bl	10007e28 <__wrap___aeabi_i2f>
1000052a:	1c01      	adds	r1, r0, #0
1000052c:	1c38      	adds	r0, r7, #0
1000052e:	f007 fc32 	bl	10007d96 <__wrap___aeabi_fdiv>
10000532:	21fe      	movs	r1, #254	; 0xfe
10000534:	0589      	lsls	r1, r1, #22
10000536:	f007 fc28 	bl	10007d8a <__wrap___aeabi_fsub>
1000053a:	1c06      	adds	r6, r0, #0
1000053c:	4640      	mov	r0, r8
1000053e:	f007 fc73 	bl	10007e28 <__wrap___aeabi_i2f>
10000542:	1c31      	adds	r1, r6, #0
10000544:	f007 fc3b 	bl	10007dbe <__wrap___aeabi_fmul>
10000548:	4918      	ldr	r1, [pc, #96]	; (100005ac <getPoint+0x2a8>)
1000054a:	f007 fc38 	bl	10007dbe <__wrap___aeabi_fmul>
1000054e:	21e6      	movs	r1, #230	; 0xe6
10000550:	0589      	lsls	r1, r1, #22
10000552:	f007 fc34 	bl	10007dbe <__wrap___aeabi_fmul>
10000556:	4916      	ldr	r1, [pc, #88]	; (100005b0 <getPoint+0x2ac>)
10000558:	1c06      	adds	r6, r0, #0
1000055a:	f007 fc5f 	bl	10007e1c <__wrap___aeabi_fcmpgt>
1000055e:	2800      	cmp	r0, #0
10000560:	d10e      	bne.n	10000580 <getPoint+0x27c>
10000562:	1c30      	adds	r0, r6, #0
10000564:	f007 fc82 	bl	10007e6c <__wrap___aeabi_f2iz>
10000568:	b200      	sxth	r0, r0
1000056a:	464b      	mov	r3, r9
1000056c:	4642      	mov	r2, r8
1000056e:	805c      	strh	r4, [r3, #2]
10000570:	801a      	strh	r2, [r3, #0]
10000572:	8098      	strh	r0, [r3, #4]
10000574:	b004      	add	sp, #16
10000576:	bce0      	pop	{r5, r6, r7}
10000578:	46ba      	mov	sl, r7
1000057a:	46b1      	mov	r9, r6
1000057c:	46a8      	mov	r8, r5
1000057e:	bdf0      	pop	{r4, r5, r6, r7, pc}
10000580:	480c      	ldr	r0, [pc, #48]	; (100005b4 <getPoint+0x2b0>)
10000582:	e7f2      	b.n	1000056a <getPoint+0x266>
10000584:	0092      	lsls	r2, r2, #2
10000586:	18a2      	adds	r2, r4, r2
10000588:	e71c      	b.n	100003c4 <getPoint+0xc0>
1000058a:	0092      	lsls	r2, r2, #2
1000058c:	18a2      	adds	r2, r4, r2
1000058e:	e772      	b.n	10000476 <getPoint+0x172>
10000590:	ab02      	add	r3, sp, #8
10000592:	e706      	b.n	100003a2 <getPoint+0x9e>
10000594:	ab02      	add	r3, sp, #8
10000596:	e75d      	b.n	10000454 <getPoint+0x150>
10000598:	4004c000 	.word	0x4004c000
1000059c:	4004d000 	.word	0x4004d000
100005a0:	4004e000 	.word	0x4004e000
100005a4:	3fffffff 	.word	0x3fffffff
100005a8:	00000fff 	.word	0x00000fff
100005ac:	43898000 	.word	0x43898000
100005b0:	46fffe00 	.word	0x46fffe00
100005b4:	00007fff 	.word	0x00007fff

100005b8 <pioPinHandler>:
100005b8:	2201      	movs	r2, #1
100005ba:	4b03      	ldr	r3, [pc, #12]	; (100005c8 <pioPinHandler+0x10>)
100005bc:	631a      	str	r2, [r3, #48]	; 0x30
100005be:	2200      	movs	r2, #0
100005c0:	4b02      	ldr	r3, [pc, #8]	; (100005cc <pioPinHandler+0x14>)
100005c2:	701a      	strb	r2, [r3, #0]
100005c4:	4770      	bx	lr
100005c6:	46c0      	nop			; (mov r8, r8)
100005c8:	50200000 	.word	0x50200000
100005cc:	20000198 	.word	0x20000198

100005d0 <tft_init_hw>:
100005d0:	b5f0      	push	{r4, r5, r6, r7, lr}
100005d2:	46c6      	mov	lr, r8
100005d4:	22f0      	movs	r2, #240	; 0xf0
100005d6:	b500      	push	{lr}
100005d8:	4b40      	ldr	r3, [pc, #256]	; (100006dc <tft_init_hw+0x10c>)
100005da:	b084      	sub	sp, #16
100005dc:	801a      	strh	r2, [r3, #0]
100005de:	4b40      	ldr	r3, [pc, #256]	; (100006e0 <tft_init_hw+0x110>)
100005e0:	3250      	adds	r2, #80	; 0x50
100005e2:	2012      	movs	r0, #18
100005e4:	801a      	strh	r2, [r3, #0]
100005e6:	24d0      	movs	r4, #208	; 0xd0
100005e8:	f003 fe16 	bl	10004218 <gpio_init>
100005ec:	2380      	movs	r3, #128	; 0x80
100005ee:	0624      	lsls	r4, r4, #24
100005f0:	02db      	lsls	r3, r3, #11
100005f2:	6263      	str	r3, [r4, #36]	; 0x24
100005f4:	2014      	movs	r0, #20
100005f6:	6163      	str	r3, [r4, #20]
100005f8:	f003 fe0e 	bl	10004218 <gpio_init>
100005fc:	2380      	movs	r3, #128	; 0x80
100005fe:	035b      	lsls	r3, r3, #13
10000600:	6263      	str	r3, [r4, #36]	; 0x24
10000602:	2010      	movs	r0, #16
10000604:	f003 fe08 	bl	10004218 <gpio_init>
10000608:	2380      	movs	r3, #128	; 0x80
1000060a:	4e36      	ldr	r6, [pc, #216]	; (100006e4 <tft_init_hw+0x114>)
1000060c:	025b      	lsls	r3, r3, #9
1000060e:	6263      	str	r3, [r4, #36]	; 0x24
10000610:	4935      	ldr	r1, [pc, #212]	; (100006e8 <tft_init_hw+0x118>)
10000612:	6830      	ldr	r0, [r6, #0]
10000614:	4698      	mov	r8, r3
10000616:	f007 ffd7 	bl	100085c8 <pio_add_program>
1000061a:	4b34      	ldr	r3, [pc, #208]	; (100006ec <tft_init_hw+0x11c>)
1000061c:	01c2      	lsls	r2, r0, #7
1000061e:	6018      	str	r0, [r3, #0]
10000620:	1d43      	adds	r3, r0, #5
10000622:	031b      	lsls	r3, r3, #12
10000624:	4313      	orrs	r3, r2
10000626:	4a32      	ldr	r2, [pc, #200]	; (100006f0 <tft_init_hw+0x120>)
10000628:	6834      	ldr	r4, [r6, #0]
1000062a:	4013      	ands	r3, r2
1000062c:	9301      	str	r3, [sp, #4]
1000062e:	4b31      	ldr	r3, [pc, #196]	; (100006f4 <tft_init_hw+0x124>)
10000630:	6875      	ldr	r5, [r6, #4]
10000632:	9303      	str	r3, [sp, #12]
10000634:	4b30      	ldr	r3, [pc, #192]	; (100006f8 <tft_init_hw+0x128>)
10000636:	0007      	movs	r7, r0
10000638:	9302      	str	r3, [sp, #8]
1000063a:	4643      	mov	r3, r8
1000063c:	9300      	str	r3, [sp, #0]
1000063e:	23a0      	movs	r3, #160	; 0xa0
10000640:	0029      	movs	r1, r5
10000642:	0020      	movs	r0, r4
10000644:	2200      	movs	r2, #0
10000646:	031b      	lsls	r3, r3, #12
10000648:	f008 f822 	bl	10008690 <pio_sm_set_pins_with_mask>
1000064c:	23a0      	movs	r3, #160	; 0xa0
1000064e:	031b      	lsls	r3, r3, #12
10000650:	001a      	movs	r2, r3
10000652:	0029      	movs	r1, r5
10000654:	0020      	movs	r0, r4
10000656:	f008 f86d 	bl	10008734 <pio_sm_set_pindirs_with_mask>
1000065a:	4b28      	ldr	r3, [pc, #160]	; (100006fc <tft_init_hw+0x12c>)
1000065c:	2013      	movs	r0, #19
1000065e:	18e3      	adds	r3, r4, r3
10000660:	1e5a      	subs	r2, r3, #1
10000662:	4193      	sbcs	r3, r2
10000664:	3306      	adds	r3, #6
10000666:	4698      	mov	r8, r3
10000668:	0019      	movs	r1, r3
1000066a:	f003 fd7f 	bl	1000416c <gpio_set_function>
1000066e:	4641      	mov	r1, r8
10000670:	2011      	movs	r0, #17
10000672:	f003 fd7b 	bl	1000416c <gpio_set_function>
10000676:	2100      	movs	r1, #0
10000678:	2011      	movs	r0, #17
1000067a:	f003 fda7 	bl	100041cc <gpio_set_outover>
1000067e:	466b      	mov	r3, sp
10000680:	003a      	movs	r2, r7
10000682:	0029      	movs	r1, r5
10000684:	0020      	movs	r0, r4
10000686:	f008 f8a7 	bl	100087d8 <pio_sm_init>
1000068a:	006b      	lsls	r3, r5, #1
1000068c:	195b      	adds	r3, r3, r5
1000068e:	00db      	lsls	r3, r3, #3
10000690:	4a1b      	ldr	r2, [pc, #108]	; (10000700 <tft_init_hw+0x130>)
10000692:	18e3      	adds	r3, r4, r3
10000694:	33d8      	adds	r3, #216	; 0xd8
10000696:	601a      	str	r2, [r3, #0]
10000698:	4a1a      	ldr	r2, [pc, #104]	; (10000704 <tft_init_hw+0x134>)
1000069a:	2007      	movs	r0, #7
1000069c:	601a      	str	r2, [r3, #0]
1000069e:	2201      	movs	r2, #1
100006a0:	0013      	movs	r3, r2
100006a2:	40ab      	lsls	r3, r5
100006a4:	6821      	ldr	r1, [r4, #0]
100006a6:	430b      	orrs	r3, r1
100006a8:	6023      	str	r3, [r4, #0]
100006aa:	6833      	ldr	r3, [r6, #0]
100006ac:	4916      	ldr	r1, [pc, #88]	; (10000708 <tft_init_hw+0x138>)
100006ae:	631a      	str	r2, [r3, #48]	; 0x30
100006b0:	2280      	movs	r2, #128	; 0x80
100006b2:	332d      	adds	r3, #45	; 0x2d
100006b4:	0192      	lsls	r2, r2, #6
100006b6:	33ff      	adds	r3, #255	; 0xff
100006b8:	4313      	orrs	r3, r2
100006ba:	2280      	movs	r2, #128	; 0x80
100006bc:	0052      	lsls	r2, r2, #1
100006be:	601a      	str	r2, [r3, #0]
100006c0:	f003 fe3c 	bl	1000433c <irq_set_exclusive_handler>
100006c4:	2101      	movs	r1, #1
100006c6:	2007      	movs	r0, #7
100006c8:	f003 fe1e 	bl	10004308 <irq_set_enabled>
100006cc:	20fa      	movs	r0, #250	; 0xfa
100006ce:	0040      	lsls	r0, r0, #1
100006d0:	f004 faaa 	bl	10004c28 <sleep_ms>
100006d4:	b004      	add	sp, #16
100006d6:	bc80      	pop	{r7}
100006d8:	46b8      	mov	r8, r7
100006da:	bdf0      	pop	{r4, r5, r6, r7, pc}
100006dc:	2000072e 	.word	0x2000072e
100006e0:	2000072c 	.word	0x2000072c
100006e4:	2000019c 	.word	0x2000019c
100006e8:	10008e64 	.word	0x10008e64
100006ec:	200006a8 	.word	0x200006a8
100006f0:	9fffffff 	.word	0x9fffffff
100006f4:	20104413 	.word	0x20104413
100006f8:	10060000 	.word	0x10060000
100006fc:	afe00000 	.word	0xafe00000
10000700:	0000e026 	.word	0x0000e026
10000704:	0000e046 	.word	0x0000e046
10000708:	100005b9 	.word	0x100005b9

1000070c <tft_spiwrite16>:
1000070c:	2201      	movs	r2, #1
1000070e:	b570      	push	{r4, r5, r6, lr}
10000710:	4d10      	ldr	r5, [pc, #64]	; (10000754 <tft_spiwrite16+0x48>)
10000712:	0a06      	lsrs	r6, r0, #8
10000714:	686b      	ldr	r3, [r5, #4]
10000716:	6829      	ldr	r1, [r5, #0]
10000718:	1d1c      	adds	r4, r3, #4
1000071a:	3310      	adds	r3, #16
1000071c:	409a      	lsls	r2, r3
1000071e:	00a4      	lsls	r4, r4, #2
10000720:	190c      	adds	r4, r1, r4
10000722:	684b      	ldr	r3, [r1, #4]
10000724:	421a      	tst	r2, r3
10000726:	d1fc      	bne.n	10000722 <tft_spiwrite16+0x16>
10000728:	7026      	strb	r6, [r4, #0]
1000072a:	cd12      	ldmia	r5!, {r1, r4}
1000072c:	0023      	movs	r3, r4
1000072e:	2201      	movs	r2, #1
10000730:	3310      	adds	r3, #16
10000732:	409a      	lsls	r2, r3
10000734:	4d08      	ldr	r5, [pc, #32]	; (10000758 <tft_spiwrite16+0x4c>)
10000736:	782b      	ldrb	r3, [r5, #0]
10000738:	2b00      	cmp	r3, #0
1000073a:	d1fc      	bne.n	10000736 <tft_spiwrite16+0x2a>
1000073c:	3404      	adds	r4, #4
1000073e:	3301      	adds	r3, #1
10000740:	00a4      	lsls	r4, r4, #2
10000742:	702b      	strb	r3, [r5, #0]
10000744:	b2c0      	uxtb	r0, r0
10000746:	190c      	adds	r4, r1, r4
10000748:	684b      	ldr	r3, [r1, #4]
1000074a:	4213      	tst	r3, r2
1000074c:	d1fc      	bne.n	10000748 <tft_spiwrite16+0x3c>
1000074e:	7020      	strb	r0, [r4, #0]
10000750:	bd70      	pop	{r4, r5, r6, pc}
10000752:	46c0      	nop			; (mov r8, r8)
10000754:	2000019c 	.word	0x2000019c
10000758:	20000198 	.word	0x20000198

1000075c <tft_drawPixel.part.0>:
1000075c:	b5f0      	push	{r4, r5, r6, r7, lr}
1000075e:	23d0      	movs	r3, #208	; 0xd0
10000760:	0015      	movs	r5, r2
10000762:	2280      	movs	r2, #128	; 0x80
10000764:	46c6      	mov	lr, r8
10000766:	061b      	lsls	r3, r3, #24
10000768:	0252      	lsls	r2, r2, #9
1000076a:	b500      	push	{lr}
1000076c:	619a      	str	r2, [r3, #24]
1000076e:	2280      	movs	r2, #128	; 0x80
10000770:	02d2      	lsls	r2, r2, #11
10000772:	619a      	str	r2, [r3, #24]
10000774:	2201      	movs	r2, #1
10000776:	4e81      	ldr	r6, [pc, #516]	; (1000097c <tft_drawPixel.part.0+0x220>)
10000778:	000f      	movs	r7, r1
1000077a:	6873      	ldr	r3, [r6, #4]
1000077c:	6831      	ldr	r1, [r6, #0]
1000077e:	1d1c      	adds	r4, r3, #4
10000780:	3310      	adds	r3, #16
10000782:	409a      	lsls	r2, r3
10000784:	00a4      	lsls	r4, r4, #2
10000786:	190c      	adds	r4, r1, r4
10000788:	684b      	ldr	r3, [r1, #4]
1000078a:	421a      	tst	r2, r3
1000078c:	d1fc      	bne.n	10000788 <tft_drawPixel.part.0+0x2c>
1000078e:	232a      	movs	r3, #42	; 0x2a
10000790:	7023      	strb	r3, [r4, #0]
10000792:	46c0      	nop			; (mov r8, r8)
10000794:	46c0      	nop			; (mov r8, r8)
10000796:	46c0      	nop			; (mov r8, r8)
10000798:	46c0      	nop			; (mov r8, r8)
1000079a:	46c0      	nop			; (mov r8, r8)
1000079c:	46c0      	nop			; (mov r8, r8)
1000079e:	46c0      	nop			; (mov r8, r8)
100007a0:	46c0      	nop			; (mov r8, r8)
100007a2:	46c0      	nop			; (mov r8, r8)
100007a4:	46c0      	nop			; (mov r8, r8)
100007a6:	46c0      	nop			; (mov r8, r8)
100007a8:	46c0      	nop			; (mov r8, r8)
100007aa:	46c0      	nop			; (mov r8, r8)
100007ac:	46c0      	nop			; (mov r8, r8)
100007ae:	46c0      	nop			; (mov r8, r8)
100007b0:	46c0      	nop			; (mov r8, r8)
100007b2:	46c0      	nop			; (mov r8, r8)
100007b4:	46c0      	nop			; (mov r8, r8)
100007b6:	46c0      	nop			; (mov r8, r8)
100007b8:	46c0      	nop			; (mov r8, r8)
100007ba:	46c0      	nop			; (mov r8, r8)
100007bc:	46c0      	nop			; (mov r8, r8)
100007be:	46c0      	nop			; (mov r8, r8)
100007c0:	46c0      	nop			; (mov r8, r8)
100007c2:	46c0      	nop			; (mov r8, r8)
100007c4:	46c0      	nop			; (mov r8, r8)
100007c6:	46c0      	nop			; (mov r8, r8)
100007c8:	46c0      	nop			; (mov r8, r8)
100007ca:	46c0      	nop			; (mov r8, r8)
100007cc:	46c0      	nop			; (mov r8, r8)
100007ce:	46c0      	nop			; (mov r8, r8)
100007d0:	46c0      	nop			; (mov r8, r8)
100007d2:	46c0      	nop			; (mov r8, r8)
100007d4:	46c0      	nop			; (mov r8, r8)
100007d6:	46c0      	nop			; (mov r8, r8)
100007d8:	46c0      	nop			; (mov r8, r8)
100007da:	46c0      	nop			; (mov r8, r8)
100007dc:	46c0      	nop			; (mov r8, r8)
100007de:	46c0      	nop			; (mov r8, r8)
100007e0:	46c0      	nop			; (mov r8, r8)
100007e2:	46c0      	nop			; (mov r8, r8)
100007e4:	46c0      	nop			; (mov r8, r8)
100007e6:	46c0      	nop			; (mov r8, r8)
100007e8:	46c0      	nop			; (mov r8, r8)
100007ea:	46c0      	nop			; (mov r8, r8)
100007ec:	46c0      	nop			; (mov r8, r8)
100007ee:	46c0      	nop			; (mov r8, r8)
100007f0:	46c0      	nop			; (mov r8, r8)
100007f2:	46c0      	nop			; (mov r8, r8)
100007f4:	46c0      	nop			; (mov r8, r8)
100007f6:	46c0      	nop			; (mov r8, r8)
100007f8:	46c0      	nop			; (mov r8, r8)
100007fa:	46c0      	nop			; (mov r8, r8)
100007fc:	46c0      	nop			; (mov r8, r8)
100007fe:	46c0      	nop			; (mov r8, r8)
10000800:	46c0      	nop			; (mov r8, r8)
10000802:	46c0      	nop			; (mov r8, r8)
10000804:	46c0      	nop			; (mov r8, r8)
10000806:	46c0      	nop			; (mov r8, r8)
10000808:	46c0      	nop			; (mov r8, r8)
1000080a:	46c0      	nop			; (mov r8, r8)
1000080c:	46c0      	nop			; (mov r8, r8)
1000080e:	46c0      	nop			; (mov r8, r8)
10000810:	46c0      	nop			; (mov r8, r8)
10000812:	4c5b      	ldr	r4, [pc, #364]	; (10000980 <tft_drawPixel.part.0+0x224>)
10000814:	7823      	ldrb	r3, [r4, #0]
10000816:	2b00      	cmp	r3, #0
10000818:	d1fc      	bne.n	10000814 <tft_drawPixel.part.0+0xb8>
1000081a:	3301      	adds	r3, #1
1000081c:	7023      	strb	r3, [r4, #0]
1000081e:	2280      	movs	r2, #128	; 0x80
10000820:	23d0      	movs	r3, #208	; 0xd0
10000822:	2180      	movs	r1, #128	; 0x80
10000824:	061b      	lsls	r3, r3, #24
10000826:	02d2      	lsls	r2, r2, #11
10000828:	0249      	lsls	r1, r1, #9
1000082a:	615a      	str	r2, [r3, #20]
1000082c:	6159      	str	r1, [r3, #20]
1000082e:	619a      	str	r2, [r3, #24]
10000830:	b283      	uxth	r3, r0
10000832:	0018      	movs	r0, r3
10000834:	4698      	mov	r8, r3
10000836:	f7ff ff69 	bl	1000070c <tft_spiwrite16>
1000083a:	46c0      	nop			; (mov r8, r8)
1000083c:	46c0      	nop			; (mov r8, r8)
1000083e:	46c0      	nop			; (mov r8, r8)
10000840:	46c0      	nop			; (mov r8, r8)
10000842:	46c0      	nop			; (mov r8, r8)
10000844:	46c0      	nop			; (mov r8, r8)
10000846:	46c0      	nop			; (mov r8, r8)
10000848:	46c0      	nop			; (mov r8, r8)
1000084a:	46c0      	nop			; (mov r8, r8)
1000084c:	46c0      	nop			; (mov r8, r8)
1000084e:	46c0      	nop			; (mov r8, r8)
10000850:	46c0      	nop			; (mov r8, r8)
10000852:	46c0      	nop			; (mov r8, r8)
10000854:	46c0      	nop			; (mov r8, r8)
10000856:	46c0      	nop			; (mov r8, r8)
10000858:	46c0      	nop			; (mov r8, r8)
1000085a:	46c0      	nop			; (mov r8, r8)
1000085c:	46c0      	nop			; (mov r8, r8)
1000085e:	46c0      	nop			; (mov r8, r8)
10000860:	46c0      	nop			; (mov r8, r8)
10000862:	46c0      	nop			; (mov r8, r8)
10000864:	46c0      	nop			; (mov r8, r8)
10000866:	46c0      	nop			; (mov r8, r8)
10000868:	46c0      	nop			; (mov r8, r8)
1000086a:	46c0      	nop			; (mov r8, r8)
1000086c:	46c0      	nop			; (mov r8, r8)
1000086e:	46c0      	nop			; (mov r8, r8)
10000870:	46c0      	nop			; (mov r8, r8)
10000872:	46c0      	nop			; (mov r8, r8)
10000874:	46c0      	nop			; (mov r8, r8)
10000876:	46c0      	nop			; (mov r8, r8)
10000878:	46c0      	nop			; (mov r8, r8)
1000087a:	46c0      	nop			; (mov r8, r8)
1000087c:	46c0      	nop			; (mov r8, r8)
1000087e:	46c0      	nop			; (mov r8, r8)
10000880:	46c0      	nop			; (mov r8, r8)
10000882:	46c0      	nop			; (mov r8, r8)
10000884:	46c0      	nop			; (mov r8, r8)
10000886:	46c0      	nop			; (mov r8, r8)
10000888:	46c0      	nop			; (mov r8, r8)
1000088a:	46c0      	nop			; (mov r8, r8)
1000088c:	46c0      	nop			; (mov r8, r8)
1000088e:	46c0      	nop			; (mov r8, r8)
10000890:	46c0      	nop			; (mov r8, r8)
10000892:	46c0      	nop			; (mov r8, r8)
10000894:	46c0      	nop			; (mov r8, r8)
10000896:	46c0      	nop			; (mov r8, r8)
10000898:	46c0      	nop			; (mov r8, r8)
1000089a:	46c0      	nop			; (mov r8, r8)
1000089c:	46c0      	nop			; (mov r8, r8)
1000089e:	46c0      	nop			; (mov r8, r8)
100008a0:	46c0      	nop			; (mov r8, r8)
100008a2:	46c0      	nop			; (mov r8, r8)
100008a4:	46c0      	nop			; (mov r8, r8)
100008a6:	46c0      	nop			; (mov r8, r8)
100008a8:	46c0      	nop			; (mov r8, r8)
100008aa:	46c0      	nop			; (mov r8, r8)
100008ac:	46c0      	nop			; (mov r8, r8)
100008ae:	46c0      	nop			; (mov r8, r8)
100008b0:	46c0      	nop			; (mov r8, r8)
100008b2:	46c0      	nop			; (mov r8, r8)
100008b4:	46c0      	nop			; (mov r8, r8)
100008b6:	46c0      	nop			; (mov r8, r8)
100008b8:	46c0      	nop			; (mov r8, r8)
100008ba:	46c0      	nop			; (mov r8, r8)
100008bc:	46c0      	nop			; (mov r8, r8)
100008be:	46c0      	nop			; (mov r8, r8)
100008c0:	46c0      	nop			; (mov r8, r8)
100008c2:	46c0      	nop			; (mov r8, r8)
100008c4:	46c0      	nop			; (mov r8, r8)
100008c6:	46c0      	nop			; (mov r8, r8)
100008c8:	46c0      	nop			; (mov r8, r8)
100008ca:	46c0      	nop			; (mov r8, r8)
100008cc:	46c0      	nop			; (mov r8, r8)
100008ce:	46c0      	nop			; (mov r8, r8)
100008d0:	46c0      	nop			; (mov r8, r8)
100008d2:	46c0      	nop			; (mov r8, r8)
100008d4:	46c0      	nop			; (mov r8, r8)
100008d6:	46c0      	nop			; (mov r8, r8)
100008d8:	46c0      	nop			; (mov r8, r8)
100008da:	46c0      	nop			; (mov r8, r8)
100008dc:	46c0      	nop			; (mov r8, r8)
100008de:	46c0      	nop			; (mov r8, r8)
100008e0:	46c0      	nop			; (mov r8, r8)
100008e2:	46c0      	nop			; (mov r8, r8)
100008e4:	46c0      	nop			; (mov r8, r8)
100008e6:	46c0      	nop			; (mov r8, r8)
100008e8:	46c0      	nop			; (mov r8, r8)
100008ea:	46c0      	nop			; (mov r8, r8)
100008ec:	46c0      	nop			; (mov r8, r8)
100008ee:	46c0      	nop			; (mov r8, r8)
100008f0:	46c0      	nop			; (mov r8, r8)
100008f2:	46c0      	nop			; (mov r8, r8)
100008f4:	46c0      	nop			; (mov r8, r8)
100008f6:	46c0      	nop			; (mov r8, r8)
100008f8:	46c0      	nop			; (mov r8, r8)
100008fa:	46c0      	nop			; (mov r8, r8)
100008fc:	46c0      	nop			; (mov r8, r8)
100008fe:	46c0      	nop			; (mov r8, r8)
10000900:	46c0      	nop			; (mov r8, r8)
10000902:	46c0      	nop			; (mov r8, r8)
10000904:	46c0      	nop			; (mov r8, r8)
10000906:	46c0      	nop			; (mov r8, r8)
10000908:	46c0      	nop			; (mov r8, r8)
1000090a:	46c0      	nop			; (mov r8, r8)
1000090c:	46c0      	nop			; (mov r8, r8)
1000090e:	46c0      	nop			; (mov r8, r8)
10000910:	46c0      	nop			; (mov r8, r8)
10000912:	46c0      	nop			; (mov r8, r8)
10000914:	46c0      	nop			; (mov r8, r8)
10000916:	46c0      	nop			; (mov r8, r8)
10000918:	46c0      	nop			; (mov r8, r8)
1000091a:	46c0      	nop			; (mov r8, r8)
1000091c:	46c0      	nop			; (mov r8, r8)
1000091e:	46c0      	nop			; (mov r8, r8)
10000920:	46c0      	nop			; (mov r8, r8)
10000922:	46c0      	nop			; (mov r8, r8)
10000924:	46c0      	nop			; (mov r8, r8)
10000926:	46c0      	nop			; (mov r8, r8)
10000928:	46c0      	nop			; (mov r8, r8)
1000092a:	46c0      	nop			; (mov r8, r8)
1000092c:	46c0      	nop			; (mov r8, r8)
1000092e:	46c0      	nop			; (mov r8, r8)
10000930:	46c0      	nop			; (mov r8, r8)
10000932:	46c0      	nop			; (mov r8, r8)
10000934:	46c0      	nop			; (mov r8, r8)
10000936:	46c0      	nop			; (mov r8, r8)
10000938:	46c0      	nop			; (mov r8, r8)
1000093a:	46c0      	nop			; (mov r8, r8)
1000093c:	46c0      	nop			; (mov r8, r8)
1000093e:	46c0      	nop			; (mov r8, r8)
10000940:	46c0      	nop			; (mov r8, r8)
10000942:	46c0      	nop			; (mov r8, r8)
10000944:	46c0      	nop			; (mov r8, r8)
10000946:	46c0      	nop			; (mov r8, r8)
10000948:	46c0      	nop			; (mov r8, r8)
1000094a:	46c0      	nop			; (mov r8, r8)
1000094c:	46c0      	nop			; (mov r8, r8)
1000094e:	46c0      	nop			; (mov r8, r8)
10000950:	46c0      	nop			; (mov r8, r8)
10000952:	46c0      	nop			; (mov r8, r8)
10000954:	46c0      	nop			; (mov r8, r8)
10000956:	46c0      	nop			; (mov r8, r8)
10000958:	46c0      	nop			; (mov r8, r8)
1000095a:	46c0      	nop			; (mov r8, r8)
1000095c:	46c0      	nop			; (mov r8, r8)
1000095e:	46c0      	nop			; (mov r8, r8)
10000960:	46c0      	nop			; (mov r8, r8)
10000962:	46c0      	nop			; (mov r8, r8)
10000964:	46c0      	nop			; (mov r8, r8)
10000966:	46c0      	nop			; (mov r8, r8)
10000968:	46c0      	nop			; (mov r8, r8)
1000096a:	46c0      	nop			; (mov r8, r8)
1000096c:	46c0      	nop			; (mov r8, r8)
1000096e:	46c0      	nop			; (mov r8, r8)
10000970:	46c0      	nop			; (mov r8, r8)
10000972:	46c0      	nop			; (mov r8, r8)
10000974:	46c0      	nop			; (mov r8, r8)
10000976:	46c0      	nop			; (mov r8, r8)
10000978:	46c0      	nop			; (mov r8, r8)
1000097a:	e003      	b.n	10000984 <tft_drawPixel.part.0+0x228>
1000097c:	2000019c 	.word	0x2000019c
10000980:	20000198 	.word	0x20000198
10000984:	7823      	ldrb	r3, [r4, #0]
10000986:	2b00      	cmp	r3, #0
10000988:	d1fc      	bne.n	10000984 <tft_drawPixel.part.0+0x228>
1000098a:	3301      	adds	r3, #1
1000098c:	7023      	strb	r3, [r4, #0]
1000098e:	4640      	mov	r0, r8
10000990:	23d0      	movs	r3, #208	; 0xd0
10000992:	2280      	movs	r2, #128	; 0x80
10000994:	061b      	lsls	r3, r3, #24
10000996:	02d2      	lsls	r2, r2, #11
10000998:	3001      	adds	r0, #1
1000099a:	615a      	str	r2, [r3, #20]
1000099c:	b280      	uxth	r0, r0
1000099e:	619a      	str	r2, [r3, #24]
100009a0:	f7ff feb4 	bl	1000070c <tft_spiwrite16>
100009a4:	46c0      	nop			; (mov r8, r8)
100009a6:	46c0      	nop			; (mov r8, r8)
100009a8:	46c0      	nop			; (mov r8, r8)
100009aa:	46c0      	nop			; (mov r8, r8)
100009ac:	46c0      	nop			; (mov r8, r8)
100009ae:	46c0      	nop			; (mov r8, r8)
100009b0:	46c0      	nop			; (mov r8, r8)
100009b2:	46c0      	nop			; (mov r8, r8)
100009b4:	46c0      	nop			; (mov r8, r8)
100009b6:	46c0      	nop			; (mov r8, r8)
100009b8:	46c0      	nop			; (mov r8, r8)
100009ba:	46c0      	nop			; (mov r8, r8)
100009bc:	46c0      	nop			; (mov r8, r8)
100009be:	46c0      	nop			; (mov r8, r8)
100009c0:	46c0      	nop			; (mov r8, r8)
100009c2:	46c0      	nop			; (mov r8, r8)
100009c4:	46c0      	nop			; (mov r8, r8)
100009c6:	46c0      	nop			; (mov r8, r8)
100009c8:	46c0      	nop			; (mov r8, r8)
100009ca:	46c0      	nop			; (mov r8, r8)
100009cc:	46c0      	nop			; (mov r8, r8)
100009ce:	46c0      	nop			; (mov r8, r8)
100009d0:	46c0      	nop			; (mov r8, r8)
100009d2:	46c0      	nop			; (mov r8, r8)
100009d4:	46c0      	nop			; (mov r8, r8)
100009d6:	46c0      	nop			; (mov r8, r8)
100009d8:	46c0      	nop			; (mov r8, r8)
100009da:	46c0      	nop			; (mov r8, r8)
100009dc:	46c0      	nop			; (mov r8, r8)
100009de:	46c0      	nop			; (mov r8, r8)
100009e0:	46c0      	nop			; (mov r8, r8)
100009e2:	46c0      	nop			; (mov r8, r8)
100009e4:	46c0      	nop			; (mov r8, r8)
100009e6:	46c0      	nop			; (mov r8, r8)
100009e8:	46c0      	nop			; (mov r8, r8)
100009ea:	46c0      	nop			; (mov r8, r8)
100009ec:	46c0      	nop			; (mov r8, r8)
100009ee:	46c0      	nop			; (mov r8, r8)
100009f0:	46c0      	nop			; (mov r8, r8)
100009f2:	46c0      	nop			; (mov r8, r8)
100009f4:	46c0      	nop			; (mov r8, r8)
100009f6:	46c0      	nop			; (mov r8, r8)
100009f8:	46c0      	nop			; (mov r8, r8)
100009fa:	46c0      	nop			; (mov r8, r8)
100009fc:	46c0      	nop			; (mov r8, r8)
100009fe:	46c0      	nop			; (mov r8, r8)
10000a00:	46c0      	nop			; (mov r8, r8)
10000a02:	46c0      	nop			; (mov r8, r8)
10000a04:	46c0      	nop			; (mov r8, r8)
10000a06:	46c0      	nop			; (mov r8, r8)
10000a08:	46c0      	nop			; (mov r8, r8)
10000a0a:	46c0      	nop			; (mov r8, r8)
10000a0c:	46c0      	nop			; (mov r8, r8)
10000a0e:	46c0      	nop			; (mov r8, r8)
10000a10:	46c0      	nop			; (mov r8, r8)
10000a12:	46c0      	nop			; (mov r8, r8)
10000a14:	46c0      	nop			; (mov r8, r8)
10000a16:	46c0      	nop			; (mov r8, r8)
10000a18:	46c0      	nop			; (mov r8, r8)
10000a1a:	46c0      	nop			; (mov r8, r8)
10000a1c:	46c0      	nop			; (mov r8, r8)
10000a1e:	46c0      	nop			; (mov r8, r8)
10000a20:	46c0      	nop			; (mov r8, r8)
10000a22:	46c0      	nop			; (mov r8, r8)
10000a24:	46c0      	nop			; (mov r8, r8)
10000a26:	46c0      	nop			; (mov r8, r8)
10000a28:	46c0      	nop			; (mov r8, r8)
10000a2a:	46c0      	nop			; (mov r8, r8)
10000a2c:	46c0      	nop			; (mov r8, r8)
10000a2e:	46c0      	nop			; (mov r8, r8)
10000a30:	46c0      	nop			; (mov r8, r8)
10000a32:	46c0      	nop			; (mov r8, r8)
10000a34:	46c0      	nop			; (mov r8, r8)
10000a36:	46c0      	nop			; (mov r8, r8)
10000a38:	46c0      	nop			; (mov r8, r8)
10000a3a:	46c0      	nop			; (mov r8, r8)
10000a3c:	46c0      	nop			; (mov r8, r8)
10000a3e:	46c0      	nop			; (mov r8, r8)
10000a40:	46c0      	nop			; (mov r8, r8)
10000a42:	46c0      	nop			; (mov r8, r8)
10000a44:	46c0      	nop			; (mov r8, r8)
10000a46:	46c0      	nop			; (mov r8, r8)
10000a48:	46c0      	nop			; (mov r8, r8)
10000a4a:	46c0      	nop			; (mov r8, r8)
10000a4c:	46c0      	nop			; (mov r8, r8)
10000a4e:	46c0      	nop			; (mov r8, r8)
10000a50:	46c0      	nop			; (mov r8, r8)
10000a52:	46c0      	nop			; (mov r8, r8)
10000a54:	46c0      	nop			; (mov r8, r8)
10000a56:	46c0      	nop			; (mov r8, r8)
10000a58:	46c0      	nop			; (mov r8, r8)
10000a5a:	46c0      	nop			; (mov r8, r8)
10000a5c:	46c0      	nop			; (mov r8, r8)
10000a5e:	46c0      	nop			; (mov r8, r8)
10000a60:	46c0      	nop			; (mov r8, r8)
10000a62:	46c0      	nop			; (mov r8, r8)
10000a64:	46c0      	nop			; (mov r8, r8)
10000a66:	46c0      	nop			; (mov r8, r8)
10000a68:	46c0      	nop			; (mov r8, r8)
10000a6a:	46c0      	nop			; (mov r8, r8)
10000a6c:	46c0      	nop			; (mov r8, r8)
10000a6e:	46c0      	nop			; (mov r8, r8)
10000a70:	46c0      	nop			; (mov r8, r8)
10000a72:	46c0      	nop			; (mov r8, r8)
10000a74:	46c0      	nop			; (mov r8, r8)
10000a76:	46c0      	nop			; (mov r8, r8)
10000a78:	46c0      	nop			; (mov r8, r8)
10000a7a:	46c0      	nop			; (mov r8, r8)
10000a7c:	46c0      	nop			; (mov r8, r8)
10000a7e:	46c0      	nop			; (mov r8, r8)
10000a80:	46c0      	nop			; (mov r8, r8)
10000a82:	46c0      	nop			; (mov r8, r8)
10000a84:	46c0      	nop			; (mov r8, r8)
10000a86:	46c0      	nop			; (mov r8, r8)
10000a88:	46c0      	nop			; (mov r8, r8)
10000a8a:	46c0      	nop			; (mov r8, r8)
10000a8c:	46c0      	nop			; (mov r8, r8)
10000a8e:	46c0      	nop			; (mov r8, r8)
10000a90:	46c0      	nop			; (mov r8, r8)
10000a92:	46c0      	nop			; (mov r8, r8)
10000a94:	46c0      	nop			; (mov r8, r8)
10000a96:	46c0      	nop			; (mov r8, r8)
10000a98:	46c0      	nop			; (mov r8, r8)
10000a9a:	46c0      	nop			; (mov r8, r8)
10000a9c:	46c0      	nop			; (mov r8, r8)
10000a9e:	46c0      	nop			; (mov r8, r8)
10000aa0:	46c0      	nop			; (mov r8, r8)
10000aa2:	46c0      	nop			; (mov r8, r8)
10000aa4:	46c0      	nop			; (mov r8, r8)
10000aa6:	46c0      	nop			; (mov r8, r8)
10000aa8:	46c0      	nop			; (mov r8, r8)
10000aaa:	46c0      	nop			; (mov r8, r8)
10000aac:	46c0      	nop			; (mov r8, r8)
10000aae:	46c0      	nop			; (mov r8, r8)
10000ab0:	46c0      	nop			; (mov r8, r8)
10000ab2:	46c0      	nop			; (mov r8, r8)
10000ab4:	46c0      	nop			; (mov r8, r8)
10000ab6:	46c0      	nop			; (mov r8, r8)
10000ab8:	46c0      	nop			; (mov r8, r8)
10000aba:	46c0      	nop			; (mov r8, r8)
10000abc:	46c0      	nop			; (mov r8, r8)
10000abe:	46c0      	nop			; (mov r8, r8)
10000ac0:	46c0      	nop			; (mov r8, r8)
10000ac2:	46c0      	nop			; (mov r8, r8)
10000ac4:	46c0      	nop			; (mov r8, r8)
10000ac6:	46c0      	nop			; (mov r8, r8)
10000ac8:	46c0      	nop			; (mov r8, r8)
10000aca:	46c0      	nop			; (mov r8, r8)
10000acc:	46c0      	nop			; (mov r8, r8)
10000ace:	46c0      	nop			; (mov r8, r8)
10000ad0:	46c0      	nop			; (mov r8, r8)
10000ad2:	46c0      	nop			; (mov r8, r8)
10000ad4:	46c0      	nop			; (mov r8, r8)
10000ad6:	46c0      	nop			; (mov r8, r8)
10000ad8:	46c0      	nop			; (mov r8, r8)
10000ada:	46c0      	nop			; (mov r8, r8)
10000adc:	46c0      	nop			; (mov r8, r8)
10000ade:	46c0      	nop			; (mov r8, r8)
10000ae0:	46c0      	nop			; (mov r8, r8)
10000ae2:	46c0      	nop			; (mov r8, r8)
10000ae4:	7823      	ldrb	r3, [r4, #0]
10000ae6:	2b00      	cmp	r3, #0
10000ae8:	d1fc      	bne.n	10000ae4 <tft_drawPixel.part.0+0x388>
10000aea:	23d0      	movs	r3, #208	; 0xd0
10000aec:	2280      	movs	r2, #128	; 0x80
10000aee:	2180      	movs	r1, #128	; 0x80
10000af0:	2001      	movs	r0, #1
10000af2:	061b      	lsls	r3, r3, #24
10000af4:	02d2      	lsls	r2, r2, #11
10000af6:	0249      	lsls	r1, r1, #9
10000af8:	7020      	strb	r0, [r4, #0]
10000afa:	615a      	str	r2, [r3, #20]
10000afc:	6199      	str	r1, [r3, #24]
10000afe:	6871      	ldr	r1, [r6, #4]
10000b00:	619a      	str	r2, [r3, #24]
10000b02:	1d0b      	adds	r3, r1, #4
10000b04:	009b      	lsls	r3, r3, #2
10000b06:	469c      	mov	ip, r3
10000b08:	3110      	adds	r1, #16
10000b0a:	4088      	lsls	r0, r1
10000b0c:	6832      	ldr	r2, [r6, #0]
10000b0e:	4494      	add	ip, r2
10000b10:	6853      	ldr	r3, [r2, #4]
10000b12:	4218      	tst	r0, r3
10000b14:	d1fc      	bne.n	10000b10 <tft_drawPixel.part.0+0x3b4>
10000b16:	232b      	movs	r3, #43	; 0x2b
10000b18:	4662      	mov	r2, ip
10000b1a:	7013      	strb	r3, [r2, #0]
10000b1c:	46c0      	nop			; (mov r8, r8)
10000b1e:	46c0      	nop			; (mov r8, r8)
10000b20:	46c0      	nop			; (mov r8, r8)
10000b22:	46c0      	nop			; (mov r8, r8)
10000b24:	46c0      	nop			; (mov r8, r8)
10000b26:	46c0      	nop			; (mov r8, r8)
10000b28:	46c0      	nop			; (mov r8, r8)
10000b2a:	46c0      	nop			; (mov r8, r8)
10000b2c:	46c0      	nop			; (mov r8, r8)
10000b2e:	46c0      	nop			; (mov r8, r8)
10000b30:	46c0      	nop			; (mov r8, r8)
10000b32:	46c0      	nop			; (mov r8, r8)
10000b34:	46c0      	nop			; (mov r8, r8)
10000b36:	46c0      	nop			; (mov r8, r8)
10000b38:	46c0      	nop			; (mov r8, r8)
10000b3a:	46c0      	nop			; (mov r8, r8)
10000b3c:	46c0      	nop			; (mov r8, r8)
10000b3e:	46c0      	nop			; (mov r8, r8)
10000b40:	46c0      	nop			; (mov r8, r8)
10000b42:	46c0      	nop			; (mov r8, r8)
10000b44:	46c0      	nop			; (mov r8, r8)
10000b46:	46c0      	nop			; (mov r8, r8)
10000b48:	46c0      	nop			; (mov r8, r8)
10000b4a:	46c0      	nop			; (mov r8, r8)
10000b4c:	46c0      	nop			; (mov r8, r8)
10000b4e:	46c0      	nop			; (mov r8, r8)
10000b50:	46c0      	nop			; (mov r8, r8)
10000b52:	46c0      	nop			; (mov r8, r8)
10000b54:	46c0      	nop			; (mov r8, r8)
10000b56:	46c0      	nop			; (mov r8, r8)
10000b58:	46c0      	nop			; (mov r8, r8)
10000b5a:	46c0      	nop			; (mov r8, r8)
10000b5c:	46c0      	nop			; (mov r8, r8)
10000b5e:	46c0      	nop			; (mov r8, r8)
10000b60:	46c0      	nop			; (mov r8, r8)
10000b62:	46c0      	nop			; (mov r8, r8)
10000b64:	46c0      	nop			; (mov r8, r8)
10000b66:	46c0      	nop			; (mov r8, r8)
10000b68:	46c0      	nop			; (mov r8, r8)
10000b6a:	46c0      	nop			; (mov r8, r8)
10000b6c:	46c0      	nop			; (mov r8, r8)
10000b6e:	46c0      	nop			; (mov r8, r8)
10000b70:	46c0      	nop			; (mov r8, r8)
10000b72:	46c0      	nop			; (mov r8, r8)
10000b74:	46c0      	nop			; (mov r8, r8)
10000b76:	46c0      	nop			; (mov r8, r8)
10000b78:	46c0      	nop			; (mov r8, r8)
10000b7a:	46c0      	nop			; (mov r8, r8)
10000b7c:	46c0      	nop			; (mov r8, r8)
10000b7e:	46c0      	nop			; (mov r8, r8)
10000b80:	46c0      	nop			; (mov r8, r8)
10000b82:	46c0      	nop			; (mov r8, r8)
10000b84:	46c0      	nop			; (mov r8, r8)
10000b86:	46c0      	nop			; (mov r8, r8)
10000b88:	46c0      	nop			; (mov r8, r8)
10000b8a:	46c0      	nop			; (mov r8, r8)
10000b8c:	46c0      	nop			; (mov r8, r8)
10000b8e:	46c0      	nop			; (mov r8, r8)
10000b90:	46c0      	nop			; (mov r8, r8)
10000b92:	46c0      	nop			; (mov r8, r8)
10000b94:	46c0      	nop			; (mov r8, r8)
10000b96:	46c0      	nop			; (mov r8, r8)
10000b98:	46c0      	nop			; (mov r8, r8)
10000b9a:	46c0      	nop			; (mov r8, r8)
10000b9c:	46c0      	nop			; (mov r8, r8)
10000b9e:	46c0      	nop			; (mov r8, r8)
10000ba0:	46c0      	nop			; (mov r8, r8)
10000ba2:	46c0      	nop			; (mov r8, r8)
10000ba4:	46c0      	nop			; (mov r8, r8)
10000ba6:	46c0      	nop			; (mov r8, r8)
10000ba8:	46c0      	nop			; (mov r8, r8)
10000baa:	46c0      	nop			; (mov r8, r8)
10000bac:	46c0      	nop			; (mov r8, r8)
10000bae:	46c0      	nop			; (mov r8, r8)
10000bb0:	46c0      	nop			; (mov r8, r8)
10000bb2:	46c0      	nop			; (mov r8, r8)
10000bb4:	46c0      	nop			; (mov r8, r8)
10000bb6:	46c0      	nop			; (mov r8, r8)
10000bb8:	46c0      	nop			; (mov r8, r8)
10000bba:	46c0      	nop			; (mov r8, r8)
10000bbc:	46c0      	nop			; (mov r8, r8)
10000bbe:	46c0      	nop			; (mov r8, r8)
10000bc0:	46c0      	nop			; (mov r8, r8)
10000bc2:	46c0      	nop			; (mov r8, r8)
10000bc4:	46c0      	nop			; (mov r8, r8)
10000bc6:	46c0      	nop			; (mov r8, r8)
10000bc8:	46c0      	nop			; (mov r8, r8)
10000bca:	46c0      	nop			; (mov r8, r8)
10000bcc:	46c0      	nop			; (mov r8, r8)
10000bce:	46c0      	nop			; (mov r8, r8)
10000bd0:	46c0      	nop			; (mov r8, r8)
10000bd2:	46c0      	nop			; (mov r8, r8)
10000bd4:	46c0      	nop			; (mov r8, r8)
10000bd6:	46c0      	nop			; (mov r8, r8)
10000bd8:	46c0      	nop			; (mov r8, r8)
10000bda:	46c0      	nop			; (mov r8, r8)
10000bdc:	7823      	ldrb	r3, [r4, #0]
10000bde:	2b00      	cmp	r3, #0
10000be0:	d1fc      	bne.n	10000bdc <tft_drawPixel.part.0+0x480>
10000be2:	3301      	adds	r3, #1
10000be4:	7023      	strb	r3, [r4, #0]
10000be6:	2280      	movs	r2, #128	; 0x80
10000be8:	23d0      	movs	r3, #208	; 0xd0
10000bea:	2180      	movs	r1, #128	; 0x80
10000bec:	061b      	lsls	r3, r3, #24
10000bee:	02d2      	lsls	r2, r2, #11
10000bf0:	0249      	lsls	r1, r1, #9
10000bf2:	b2bf      	uxth	r7, r7
10000bf4:	615a      	str	r2, [r3, #20]
10000bf6:	0038      	movs	r0, r7
10000bf8:	6159      	str	r1, [r3, #20]
10000bfa:	619a      	str	r2, [r3, #24]
10000bfc:	f7ff fd86 	bl	1000070c <tft_spiwrite16>
10000c00:	46c0      	nop			; (mov r8, r8)
10000c02:	46c0      	nop			; (mov r8, r8)
10000c04:	46c0      	nop			; (mov r8, r8)
10000c06:	46c0      	nop			; (mov r8, r8)
10000c08:	46c0      	nop			; (mov r8, r8)
10000c0a:	46c0      	nop			; (mov r8, r8)
10000c0c:	46c0      	nop			; (mov r8, r8)
10000c0e:	46c0      	nop			; (mov r8, r8)
10000c10:	46c0      	nop			; (mov r8, r8)
10000c12:	46c0      	nop			; (mov r8, r8)
10000c14:	46c0      	nop			; (mov r8, r8)
10000c16:	46c0      	nop			; (mov r8, r8)
10000c18:	46c0      	nop			; (mov r8, r8)
10000c1a:	46c0      	nop			; (mov r8, r8)
10000c1c:	46c0      	nop			; (mov r8, r8)
10000c1e:	46c0      	nop			; (mov r8, r8)
10000c20:	46c0      	nop			; (mov r8, r8)
10000c22:	46c0      	nop			; (mov r8, r8)
10000c24:	46c0      	nop			; (mov r8, r8)
10000c26:	46c0      	nop			; (mov r8, r8)
10000c28:	46c0      	nop			; (mov r8, r8)
10000c2a:	46c0      	nop			; (mov r8, r8)
10000c2c:	46c0      	nop			; (mov r8, r8)
10000c2e:	46c0      	nop			; (mov r8, r8)
10000c30:	46c0      	nop			; (mov r8, r8)
10000c32:	46c0      	nop			; (mov r8, r8)
10000c34:	46c0      	nop			; (mov r8, r8)
10000c36:	46c0      	nop			; (mov r8, r8)
10000c38:	46c0      	nop			; (mov r8, r8)
10000c3a:	46c0      	nop			; (mov r8, r8)
10000c3c:	46c0      	nop			; (mov r8, r8)
10000c3e:	46c0      	nop			; (mov r8, r8)
10000c40:	46c0      	nop			; (mov r8, r8)
10000c42:	46c0      	nop			; (mov r8, r8)
10000c44:	46c0      	nop			; (mov r8, r8)
10000c46:	46c0      	nop			; (mov r8, r8)
10000c48:	46c0      	nop			; (mov r8, r8)
10000c4a:	46c0      	nop			; (mov r8, r8)
10000c4c:	46c0      	nop			; (mov r8, r8)
10000c4e:	46c0      	nop			; (mov r8, r8)
10000c50:	46c0      	nop			; (mov r8, r8)
10000c52:	46c0      	nop			; (mov r8, r8)
10000c54:	46c0      	nop			; (mov r8, r8)
10000c56:	46c0      	nop			; (mov r8, r8)
10000c58:	46c0      	nop			; (mov r8, r8)
10000c5a:	46c0      	nop			; (mov r8, r8)
10000c5c:	46c0      	nop			; (mov r8, r8)
10000c5e:	46c0      	nop			; (mov r8, r8)
10000c60:	46c0      	nop			; (mov r8, r8)
10000c62:	46c0      	nop			; (mov r8, r8)
10000c64:	46c0      	nop			; (mov r8, r8)
10000c66:	46c0      	nop			; (mov r8, r8)
10000c68:	46c0      	nop			; (mov r8, r8)
10000c6a:	46c0      	nop			; (mov r8, r8)
10000c6c:	46c0      	nop			; (mov r8, r8)
10000c6e:	46c0      	nop			; (mov r8, r8)
10000c70:	46c0      	nop			; (mov r8, r8)
10000c72:	46c0      	nop			; (mov r8, r8)
10000c74:	46c0      	nop			; (mov r8, r8)
10000c76:	46c0      	nop			; (mov r8, r8)
10000c78:	46c0      	nop			; (mov r8, r8)
10000c7a:	46c0      	nop			; (mov r8, r8)
10000c7c:	46c0      	nop			; (mov r8, r8)
10000c7e:	46c0      	nop			; (mov r8, r8)
10000c80:	46c0      	nop			; (mov r8, r8)
10000c82:	46c0      	nop			; (mov r8, r8)
10000c84:	46c0      	nop			; (mov r8, r8)
10000c86:	46c0      	nop			; (mov r8, r8)
10000c88:	46c0      	nop			; (mov r8, r8)
10000c8a:	46c0      	nop			; (mov r8, r8)
10000c8c:	46c0      	nop			; (mov r8, r8)
10000c8e:	46c0      	nop			; (mov r8, r8)
10000c90:	46c0      	nop			; (mov r8, r8)
10000c92:	46c0      	nop			; (mov r8, r8)
10000c94:	46c0      	nop			; (mov r8, r8)
10000c96:	46c0      	nop			; (mov r8, r8)
10000c98:	46c0      	nop			; (mov r8, r8)
10000c9a:	46c0      	nop			; (mov r8, r8)
10000c9c:	46c0      	nop			; (mov r8, r8)
10000c9e:	46c0      	nop			; (mov r8, r8)
10000ca0:	46c0      	nop			; (mov r8, r8)
10000ca2:	46c0      	nop			; (mov r8, r8)
10000ca4:	46c0      	nop			; (mov r8, r8)
10000ca6:	46c0      	nop			; (mov r8, r8)
10000ca8:	46c0      	nop			; (mov r8, r8)
10000caa:	46c0      	nop			; (mov r8, r8)
10000cac:	46c0      	nop			; (mov r8, r8)
10000cae:	46c0      	nop			; (mov r8, r8)
10000cb0:	46c0      	nop			; (mov r8, r8)
10000cb2:	46c0      	nop			; (mov r8, r8)
10000cb4:	46c0      	nop			; (mov r8, r8)
10000cb6:	46c0      	nop			; (mov r8, r8)
10000cb8:	46c0      	nop			; (mov r8, r8)
10000cba:	46c0      	nop			; (mov r8, r8)
10000cbc:	46c0      	nop			; (mov r8, r8)
10000cbe:	46c0      	nop			; (mov r8, r8)
10000cc0:	46c0      	nop			; (mov r8, r8)
10000cc2:	46c0      	nop			; (mov r8, r8)
10000cc4:	46c0      	nop			; (mov r8, r8)
10000cc6:	46c0      	nop			; (mov r8, r8)
10000cc8:	46c0      	nop			; (mov r8, r8)
10000cca:	46c0      	nop			; (mov r8, r8)
10000ccc:	46c0      	nop			; (mov r8, r8)
10000cce:	46c0      	nop			; (mov r8, r8)
10000cd0:	46c0      	nop			; (mov r8, r8)
10000cd2:	46c0      	nop			; (mov r8, r8)
10000cd4:	46c0      	nop			; (mov r8, r8)
10000cd6:	46c0      	nop			; (mov r8, r8)
10000cd8:	46c0      	nop			; (mov r8, r8)
10000cda:	46c0      	nop			; (mov r8, r8)
10000cdc:	46c0      	nop			; (mov r8, r8)
10000cde:	46c0      	nop			; (mov r8, r8)
10000ce0:	46c0      	nop			; (mov r8, r8)
10000ce2:	46c0      	nop			; (mov r8, r8)
10000ce4:	46c0      	nop			; (mov r8, r8)
10000ce6:	46c0      	nop			; (mov r8, r8)
10000ce8:	46c0      	nop			; (mov r8, r8)
10000cea:	46c0      	nop			; (mov r8, r8)
10000cec:	46c0      	nop			; (mov r8, r8)
10000cee:	46c0      	nop			; (mov r8, r8)
10000cf0:	46c0      	nop			; (mov r8, r8)
10000cf2:	46c0      	nop			; (mov r8, r8)
10000cf4:	46c0      	nop			; (mov r8, r8)
10000cf6:	46c0      	nop			; (mov r8, r8)
10000cf8:	46c0      	nop			; (mov r8, r8)
10000cfa:	46c0      	nop			; (mov r8, r8)
10000cfc:	46c0      	nop			; (mov r8, r8)
10000cfe:	46c0      	nop			; (mov r8, r8)
10000d00:	46c0      	nop			; (mov r8, r8)
10000d02:	46c0      	nop			; (mov r8, r8)
10000d04:	46c0      	nop			; (mov r8, r8)
10000d06:	46c0      	nop			; (mov r8, r8)
10000d08:	46c0      	nop			; (mov r8, r8)
10000d0a:	46c0      	nop			; (mov r8, r8)
10000d0c:	46c0      	nop			; (mov r8, r8)
10000d0e:	46c0      	nop			; (mov r8, r8)
10000d10:	46c0      	nop			; (mov r8, r8)
10000d12:	46c0      	nop			; (mov r8, r8)
10000d14:	46c0      	nop			; (mov r8, r8)
10000d16:	46c0      	nop			; (mov r8, r8)
10000d18:	46c0      	nop			; (mov r8, r8)
10000d1a:	46c0      	nop			; (mov r8, r8)
10000d1c:	46c0      	nop			; (mov r8, r8)
10000d1e:	46c0      	nop			; (mov r8, r8)
10000d20:	46c0      	nop			; (mov r8, r8)
10000d22:	46c0      	nop			; (mov r8, r8)
10000d24:	46c0      	nop			; (mov r8, r8)
10000d26:	46c0      	nop			; (mov r8, r8)
10000d28:	46c0      	nop			; (mov r8, r8)
10000d2a:	46c0      	nop			; (mov r8, r8)
10000d2c:	46c0      	nop			; (mov r8, r8)
10000d2e:	46c0      	nop			; (mov r8, r8)
10000d30:	46c0      	nop			; (mov r8, r8)
10000d32:	46c0      	nop			; (mov r8, r8)
10000d34:	46c0      	nop			; (mov r8, r8)
10000d36:	46c0      	nop			; (mov r8, r8)
10000d38:	46c0      	nop			; (mov r8, r8)
10000d3a:	46c0      	nop			; (mov r8, r8)
10000d3c:	46c0      	nop			; (mov r8, r8)
10000d3e:	46c0      	nop			; (mov r8, r8)
10000d40:	7823      	ldrb	r3, [r4, #0]
10000d42:	2b00      	cmp	r3, #0
10000d44:	d1fc      	bne.n	10000d40 <tft_drawPixel.part.0+0x5e4>
10000d46:	3301      	adds	r3, #1
10000d48:	7023      	strb	r3, [r4, #0]
10000d4a:	2280      	movs	r2, #128	; 0x80
10000d4c:	23d0      	movs	r3, #208	; 0xd0
10000d4e:	02d2      	lsls	r2, r2, #11
10000d50:	061b      	lsls	r3, r3, #24
10000d52:	3701      	adds	r7, #1
10000d54:	615a      	str	r2, [r3, #20]
10000d56:	b2b8      	uxth	r0, r7
10000d58:	619a      	str	r2, [r3, #24]
10000d5a:	f7ff fcd7 	bl	1000070c <tft_spiwrite16>
10000d5e:	46c0      	nop			; (mov r8, r8)
10000d60:	46c0      	nop			; (mov r8, r8)
10000d62:	46c0      	nop			; (mov r8, r8)
10000d64:	46c0      	nop			; (mov r8, r8)
10000d66:	46c0      	nop			; (mov r8, r8)
10000d68:	46c0      	nop			; (mov r8, r8)
10000d6a:	46c0      	nop			; (mov r8, r8)
10000d6c:	46c0      	nop			; (mov r8, r8)
10000d6e:	46c0      	nop			; (mov r8, r8)
10000d70:	46c0      	nop			; (mov r8, r8)
10000d72:	46c0      	nop			; (mov r8, r8)
10000d74:	46c0      	nop			; (mov r8, r8)
10000d76:	46c0      	nop			; (mov r8, r8)
10000d78:	46c0      	nop			; (mov r8, r8)
10000d7a:	46c0      	nop			; (mov r8, r8)
10000d7c:	46c0      	nop			; (mov r8, r8)
10000d7e:	46c0      	nop			; (mov r8, r8)
10000d80:	46c0      	nop			; (mov r8, r8)
10000d82:	46c0      	nop			; (mov r8, r8)
10000d84:	46c0      	nop			; (mov r8, r8)
10000d86:	46c0      	nop			; (mov r8, r8)
10000d88:	46c0      	nop			; (mov r8, r8)
10000d8a:	46c0      	nop			; (mov r8, r8)
10000d8c:	46c0      	nop			; (mov r8, r8)
10000d8e:	46c0      	nop			; (mov r8, r8)
10000d90:	46c0      	nop			; (mov r8, r8)
10000d92:	46c0      	nop			; (mov r8, r8)
10000d94:	46c0      	nop			; (mov r8, r8)
10000d96:	46c0      	nop			; (mov r8, r8)
10000d98:	46c0      	nop			; (mov r8, r8)
10000d9a:	46c0      	nop			; (mov r8, r8)
10000d9c:	46c0      	nop			; (mov r8, r8)
10000d9e:	46c0      	nop			; (mov r8, r8)
10000da0:	46c0      	nop			; (mov r8, r8)
10000da2:	46c0      	nop			; (mov r8, r8)
10000da4:	46c0      	nop			; (mov r8, r8)
10000da6:	46c0      	nop			; (mov r8, r8)
10000da8:	46c0      	nop			; (mov r8, r8)
10000daa:	46c0      	nop			; (mov r8, r8)
10000dac:	46c0      	nop			; (mov r8, r8)
10000dae:	46c0      	nop			; (mov r8, r8)
10000db0:	46c0      	nop			; (mov r8, r8)
10000db2:	46c0      	nop			; (mov r8, r8)
10000db4:	46c0      	nop			; (mov r8, r8)
10000db6:	46c0      	nop			; (mov r8, r8)
10000db8:	46c0      	nop			; (mov r8, r8)
10000dba:	46c0      	nop			; (mov r8, r8)
10000dbc:	46c0      	nop			; (mov r8, r8)
10000dbe:	46c0      	nop			; (mov r8, r8)
10000dc0:	46c0      	nop			; (mov r8, r8)
10000dc2:	46c0      	nop			; (mov r8, r8)
10000dc4:	46c0      	nop			; (mov r8, r8)
10000dc6:	46c0      	nop			; (mov r8, r8)
10000dc8:	46c0      	nop			; (mov r8, r8)
10000dca:	46c0      	nop			; (mov r8, r8)
10000dcc:	46c0      	nop			; (mov r8, r8)
10000dce:	46c0      	nop			; (mov r8, r8)
10000dd0:	46c0      	nop			; (mov r8, r8)
10000dd2:	46c0      	nop			; (mov r8, r8)
10000dd4:	46c0      	nop			; (mov r8, r8)
10000dd6:	46c0      	nop			; (mov r8, r8)
10000dd8:	46c0      	nop			; (mov r8, r8)
10000dda:	46c0      	nop			; (mov r8, r8)
10000ddc:	46c0      	nop			; (mov r8, r8)
10000dde:	46c0      	nop			; (mov r8, r8)
10000de0:	46c0      	nop			; (mov r8, r8)
10000de2:	46c0      	nop			; (mov r8, r8)
10000de4:	46c0      	nop			; (mov r8, r8)
10000de6:	46c0      	nop			; (mov r8, r8)
10000de8:	46c0      	nop			; (mov r8, r8)
10000dea:	46c0      	nop			; (mov r8, r8)
10000dec:	46c0      	nop			; (mov r8, r8)
10000dee:	46c0      	nop			; (mov r8, r8)
10000df0:	46c0      	nop			; (mov r8, r8)
10000df2:	46c0      	nop			; (mov r8, r8)
10000df4:	46c0      	nop			; (mov r8, r8)
10000df6:	46c0      	nop			; (mov r8, r8)
10000df8:	46c0      	nop			; (mov r8, r8)
10000dfa:	46c0      	nop			; (mov r8, r8)
10000dfc:	46c0      	nop			; (mov r8, r8)
10000dfe:	46c0      	nop			; (mov r8, r8)
10000e00:	46c0      	nop			; (mov r8, r8)
10000e02:	46c0      	nop			; (mov r8, r8)
10000e04:	46c0      	nop			; (mov r8, r8)
10000e06:	46c0      	nop			; (mov r8, r8)
10000e08:	46c0      	nop			; (mov r8, r8)
10000e0a:	46c0      	nop			; (mov r8, r8)
10000e0c:	46c0      	nop			; (mov r8, r8)
10000e0e:	46c0      	nop			; (mov r8, r8)
10000e10:	46c0      	nop			; (mov r8, r8)
10000e12:	46c0      	nop			; (mov r8, r8)
10000e14:	46c0      	nop			; (mov r8, r8)
10000e16:	46c0      	nop			; (mov r8, r8)
10000e18:	46c0      	nop			; (mov r8, r8)
10000e1a:	46c0      	nop			; (mov r8, r8)
10000e1c:	46c0      	nop			; (mov r8, r8)
10000e1e:	46c0      	nop			; (mov r8, r8)
10000e20:	46c0      	nop			; (mov r8, r8)
10000e22:	46c0      	nop			; (mov r8, r8)
10000e24:	46c0      	nop			; (mov r8, r8)
10000e26:	46c0      	nop			; (mov r8, r8)
10000e28:	46c0      	nop			; (mov r8, r8)
10000e2a:	46c0      	nop			; (mov r8, r8)
10000e2c:	46c0      	nop			; (mov r8, r8)
10000e2e:	46c0      	nop			; (mov r8, r8)
10000e30:	46c0      	nop			; (mov r8, r8)
10000e32:	46c0      	nop			; (mov r8, r8)
10000e34:	46c0      	nop			; (mov r8, r8)
10000e36:	46c0      	nop			; (mov r8, r8)
10000e38:	46c0      	nop			; (mov r8, r8)
10000e3a:	46c0      	nop			; (mov r8, r8)
10000e3c:	46c0      	nop			; (mov r8, r8)
10000e3e:	46c0      	nop			; (mov r8, r8)
10000e40:	46c0      	nop			; (mov r8, r8)
10000e42:	46c0      	nop			; (mov r8, r8)
10000e44:	46c0      	nop			; (mov r8, r8)
10000e46:	46c0      	nop			; (mov r8, r8)
10000e48:	46c0      	nop			; (mov r8, r8)
10000e4a:	46c0      	nop			; (mov r8, r8)
10000e4c:	46c0      	nop			; (mov r8, r8)
10000e4e:	46c0      	nop			; (mov r8, r8)
10000e50:	46c0      	nop			; (mov r8, r8)
10000e52:	46c0      	nop			; (mov r8, r8)
10000e54:	46c0      	nop			; (mov r8, r8)
10000e56:	46c0      	nop			; (mov r8, r8)
10000e58:	46c0      	nop			; (mov r8, r8)
10000e5a:	46c0      	nop			; (mov r8, r8)
10000e5c:	46c0      	nop			; (mov r8, r8)
10000e5e:	46c0      	nop			; (mov r8, r8)
10000e60:	46c0      	nop			; (mov r8, r8)
10000e62:	46c0      	nop			; (mov r8, r8)
10000e64:	46c0      	nop			; (mov r8, r8)
10000e66:	46c0      	nop			; (mov r8, r8)
10000e68:	46c0      	nop			; (mov r8, r8)
10000e6a:	46c0      	nop			; (mov r8, r8)
10000e6c:	46c0      	nop			; (mov r8, r8)
10000e6e:	46c0      	nop			; (mov r8, r8)
10000e70:	46c0      	nop			; (mov r8, r8)
10000e72:	46c0      	nop			; (mov r8, r8)
10000e74:	46c0      	nop			; (mov r8, r8)
10000e76:	46c0      	nop			; (mov r8, r8)
10000e78:	46c0      	nop			; (mov r8, r8)
10000e7a:	46c0      	nop			; (mov r8, r8)
10000e7c:	46c0      	nop			; (mov r8, r8)
10000e7e:	46c0      	nop			; (mov r8, r8)
10000e80:	46c0      	nop			; (mov r8, r8)
10000e82:	46c0      	nop			; (mov r8, r8)
10000e84:	46c0      	nop			; (mov r8, r8)
10000e86:	46c0      	nop			; (mov r8, r8)
10000e88:	46c0      	nop			; (mov r8, r8)
10000e8a:	46c0      	nop			; (mov r8, r8)
10000e8c:	46c0      	nop			; (mov r8, r8)
10000e8e:	46c0      	nop			; (mov r8, r8)
10000e90:	46c0      	nop			; (mov r8, r8)
10000e92:	46c0      	nop			; (mov r8, r8)
10000e94:	46c0      	nop			; (mov r8, r8)
10000e96:	46c0      	nop			; (mov r8, r8)
10000e98:	46c0      	nop			; (mov r8, r8)
10000e9a:	46c0      	nop			; (mov r8, r8)
10000e9c:	46c0      	nop			; (mov r8, r8)
10000e9e:	7823      	ldrb	r3, [r4, #0]
10000ea0:	2b00      	cmp	r3, #0
10000ea2:	d1fc      	bne.n	10000e9e <tft_drawPixel.part.0+0x742>
10000ea4:	23d0      	movs	r3, #208	; 0xd0
10000ea6:	2280      	movs	r2, #128	; 0x80
10000ea8:	2080      	movs	r0, #128	; 0x80
10000eaa:	2101      	movs	r1, #1
10000eac:	061b      	lsls	r3, r3, #24
10000eae:	02d2      	lsls	r2, r2, #11
10000eb0:	0240      	lsls	r0, r0, #9
10000eb2:	7021      	strb	r1, [r4, #0]
10000eb4:	615a      	str	r2, [r3, #20]
10000eb6:	6198      	str	r0, [r3, #24]
10000eb8:	619a      	str	r2, [r3, #24]
10000eba:	ce44      	ldmia	r6, {r2, r6}
10000ebc:	1d30      	adds	r0, r6, #4
10000ebe:	3610      	adds	r6, #16
10000ec0:	40b1      	lsls	r1, r6
10000ec2:	0080      	lsls	r0, r0, #2
10000ec4:	1810      	adds	r0, r2, r0
10000ec6:	6853      	ldr	r3, [r2, #4]
10000ec8:	420b      	tst	r3, r1
10000eca:	d1fc      	bne.n	10000ec6 <tft_drawPixel.part.0+0x76a>
10000ecc:	232c      	movs	r3, #44	; 0x2c
10000ece:	7003      	strb	r3, [r0, #0]
10000ed0:	46c0      	nop			; (mov r8, r8)
10000ed2:	46c0      	nop			; (mov r8, r8)
10000ed4:	46c0      	nop			; (mov r8, r8)
10000ed6:	46c0      	nop			; (mov r8, r8)
10000ed8:	46c0      	nop			; (mov r8, r8)
10000eda:	46c0      	nop			; (mov r8, r8)
10000edc:	46c0      	nop			; (mov r8, r8)
10000ede:	46c0      	nop			; (mov r8, r8)
10000ee0:	46c0      	nop			; (mov r8, r8)
10000ee2:	46c0      	nop			; (mov r8, r8)
10000ee4:	46c0      	nop			; (mov r8, r8)
10000ee6:	46c0      	nop			; (mov r8, r8)
10000ee8:	46c0      	nop			; (mov r8, r8)
10000eea:	46c0      	nop			; (mov r8, r8)
10000eec:	46c0      	nop			; (mov r8, r8)
10000eee:	46c0      	nop			; (mov r8, r8)
10000ef0:	46c0      	nop			; (mov r8, r8)
10000ef2:	46c0      	nop			; (mov r8, r8)
10000ef4:	46c0      	nop			; (mov r8, r8)
10000ef6:	46c0      	nop			; (mov r8, r8)
10000ef8:	46c0      	nop			; (mov r8, r8)
10000efa:	46c0      	nop			; (mov r8, r8)
10000efc:	46c0      	nop			; (mov r8, r8)
10000efe:	46c0      	nop			; (mov r8, r8)
10000f00:	46c0      	nop			; (mov r8, r8)
10000f02:	46c0      	nop			; (mov r8, r8)
10000f04:	46c0      	nop			; (mov r8, r8)
10000f06:	46c0      	nop			; (mov r8, r8)
10000f08:	46c0      	nop			; (mov r8, r8)
10000f0a:	46c0      	nop			; (mov r8, r8)
10000f0c:	46c0      	nop			; (mov r8, r8)
10000f0e:	46c0      	nop			; (mov r8, r8)
10000f10:	46c0      	nop			; (mov r8, r8)
10000f12:	46c0      	nop			; (mov r8, r8)
10000f14:	46c0      	nop			; (mov r8, r8)
10000f16:	46c0      	nop			; (mov r8, r8)
10000f18:	46c0      	nop			; (mov r8, r8)
10000f1a:	46c0      	nop			; (mov r8, r8)
10000f1c:	46c0      	nop			; (mov r8, r8)
10000f1e:	46c0      	nop			; (mov r8, r8)
10000f20:	46c0      	nop			; (mov r8, r8)
10000f22:	46c0      	nop			; (mov r8, r8)
10000f24:	46c0      	nop			; (mov r8, r8)
10000f26:	46c0      	nop			; (mov r8, r8)
10000f28:	46c0      	nop			; (mov r8, r8)
10000f2a:	46c0      	nop			; (mov r8, r8)
10000f2c:	46c0      	nop			; (mov r8, r8)
10000f2e:	46c0      	nop			; (mov r8, r8)
10000f30:	46c0      	nop			; (mov r8, r8)
10000f32:	46c0      	nop			; (mov r8, r8)
10000f34:	46c0      	nop			; (mov r8, r8)
10000f36:	46c0      	nop			; (mov r8, r8)
10000f38:	46c0      	nop			; (mov r8, r8)
10000f3a:	46c0      	nop			; (mov r8, r8)
10000f3c:	46c0      	nop			; (mov r8, r8)
10000f3e:	46c0      	nop			; (mov r8, r8)
10000f40:	46c0      	nop			; (mov r8, r8)
10000f42:	46c0      	nop			; (mov r8, r8)
10000f44:	46c0      	nop			; (mov r8, r8)
10000f46:	46c0      	nop			; (mov r8, r8)
10000f48:	46c0      	nop			; (mov r8, r8)
10000f4a:	46c0      	nop			; (mov r8, r8)
10000f4c:	46c0      	nop			; (mov r8, r8)
10000f4e:	46c0      	nop			; (mov r8, r8)
10000f50:	46c0      	nop			; (mov r8, r8)
10000f52:	46c0      	nop			; (mov r8, r8)
10000f54:	46c0      	nop			; (mov r8, r8)
10000f56:	46c0      	nop			; (mov r8, r8)
10000f58:	46c0      	nop			; (mov r8, r8)
10000f5a:	46c0      	nop			; (mov r8, r8)
10000f5c:	46c0      	nop			; (mov r8, r8)
10000f5e:	46c0      	nop			; (mov r8, r8)
10000f60:	46c0      	nop			; (mov r8, r8)
10000f62:	46c0      	nop			; (mov r8, r8)
10000f64:	46c0      	nop			; (mov r8, r8)
10000f66:	46c0      	nop			; (mov r8, r8)
10000f68:	46c0      	nop			; (mov r8, r8)
10000f6a:	46c0      	nop			; (mov r8, r8)
10000f6c:	46c0      	nop			; (mov r8, r8)
10000f6e:	46c0      	nop			; (mov r8, r8)
10000f70:	46c0      	nop			; (mov r8, r8)
10000f72:	46c0      	nop			; (mov r8, r8)
10000f74:	46c0      	nop			; (mov r8, r8)
10000f76:	46c0      	nop			; (mov r8, r8)
10000f78:	46c0      	nop			; (mov r8, r8)
10000f7a:	46c0      	nop			; (mov r8, r8)
10000f7c:	46c0      	nop			; (mov r8, r8)
10000f7e:	46c0      	nop			; (mov r8, r8)
10000f80:	46c0      	nop			; (mov r8, r8)
10000f82:	46c0      	nop			; (mov r8, r8)
10000f84:	46c0      	nop			; (mov r8, r8)
10000f86:	46c0      	nop			; (mov r8, r8)
10000f88:	46c0      	nop			; (mov r8, r8)
10000f8a:	46c0      	nop			; (mov r8, r8)
10000f8c:	46c0      	nop			; (mov r8, r8)
10000f8e:	46c0      	nop			; (mov r8, r8)
10000f90:	7823      	ldrb	r3, [r4, #0]
10000f92:	2b00      	cmp	r3, #0
10000f94:	d1fc      	bne.n	10000f90 <tft_drawPixel.part.0+0x834>
10000f96:	3301      	adds	r3, #1
10000f98:	7023      	strb	r3, [r4, #0]
10000f9a:	2280      	movs	r2, #128	; 0x80
10000f9c:	23d0      	movs	r3, #208	; 0xd0
10000f9e:	2180      	movs	r1, #128	; 0x80
10000fa0:	061b      	lsls	r3, r3, #24
10000fa2:	02d2      	lsls	r2, r2, #11
10000fa4:	0249      	lsls	r1, r1, #9
10000fa6:	615a      	str	r2, [r3, #20]
10000fa8:	0028      	movs	r0, r5
10000faa:	6159      	str	r1, [r3, #20]
10000fac:	619a      	str	r2, [r3, #24]
10000fae:	f7ff fbad 	bl	1000070c <tft_spiwrite16>
10000fb2:	46c0      	nop			; (mov r8, r8)
10000fb4:	46c0      	nop			; (mov r8, r8)
10000fb6:	46c0      	nop			; (mov r8, r8)
10000fb8:	46c0      	nop			; (mov r8, r8)
10000fba:	46c0      	nop			; (mov r8, r8)
10000fbc:	46c0      	nop			; (mov r8, r8)
10000fbe:	46c0      	nop			; (mov r8, r8)
10000fc0:	46c0      	nop			; (mov r8, r8)
10000fc2:	46c0      	nop			; (mov r8, r8)
10000fc4:	46c0      	nop			; (mov r8, r8)
10000fc6:	46c0      	nop			; (mov r8, r8)
10000fc8:	46c0      	nop			; (mov r8, r8)
10000fca:	46c0      	nop			; (mov r8, r8)
10000fcc:	46c0      	nop			; (mov r8, r8)
10000fce:	46c0      	nop			; (mov r8, r8)
10000fd0:	46c0      	nop			; (mov r8, r8)
10000fd2:	46c0      	nop			; (mov r8, r8)
10000fd4:	46c0      	nop			; (mov r8, r8)
10000fd6:	46c0      	nop			; (mov r8, r8)
10000fd8:	46c0      	nop			; (mov r8, r8)
10000fda:	46c0      	nop			; (mov r8, r8)
10000fdc:	46c0      	nop			; (mov r8, r8)
10000fde:	46c0      	nop			; (mov r8, r8)
10000fe0:	46c0      	nop			; (mov r8, r8)
10000fe2:	46c0      	nop			; (mov r8, r8)
10000fe4:	46c0      	nop			; (mov r8, r8)
10000fe6:	46c0      	nop			; (mov r8, r8)
10000fe8:	46c0      	nop			; (mov r8, r8)
10000fea:	46c0      	nop			; (mov r8, r8)
10000fec:	46c0      	nop			; (mov r8, r8)
10000fee:	46c0      	nop			; (mov r8, r8)
10000ff0:	46c0      	nop			; (mov r8, r8)
10000ff2:	46c0      	nop			; (mov r8, r8)
10000ff4:	46c0      	nop			; (mov r8, r8)
10000ff6:	46c0      	nop			; (mov r8, r8)
10000ff8:	46c0      	nop			; (mov r8, r8)
10000ffa:	46c0      	nop			; (mov r8, r8)
10000ffc:	46c0      	nop			; (mov r8, r8)
10000ffe:	46c0      	nop			; (mov r8, r8)
10001000:	46c0      	nop			; (mov r8, r8)
10001002:	46c0      	nop			; (mov r8, r8)
10001004:	46c0      	nop			; (mov r8, r8)
10001006:	46c0      	nop			; (mov r8, r8)
10001008:	46c0      	nop			; (mov r8, r8)
1000100a:	46c0      	nop			; (mov r8, r8)
1000100c:	46c0      	nop			; (mov r8, r8)
1000100e:	46c0      	nop			; (mov r8, r8)
10001010:	46c0      	nop			; (mov r8, r8)
10001012:	46c0      	nop			; (mov r8, r8)
10001014:	46c0      	nop			; (mov r8, r8)
10001016:	46c0      	nop			; (mov r8, r8)
10001018:	46c0      	nop			; (mov r8, r8)
1000101a:	46c0      	nop			; (mov r8, r8)
1000101c:	46c0      	nop			; (mov r8, r8)
1000101e:	46c0      	nop			; (mov r8, r8)
10001020:	46c0      	nop			; (mov r8, r8)
10001022:	46c0      	nop			; (mov r8, r8)
10001024:	46c0      	nop			; (mov r8, r8)
10001026:	46c0      	nop			; (mov r8, r8)
10001028:	46c0      	nop			; (mov r8, r8)
1000102a:	46c0      	nop			; (mov r8, r8)
1000102c:	46c0      	nop			; (mov r8, r8)
1000102e:	46c0      	nop			; (mov r8, r8)
10001030:	46c0      	nop			; (mov r8, r8)
10001032:	46c0      	nop			; (mov r8, r8)
10001034:	46c0      	nop			; (mov r8, r8)
10001036:	46c0      	nop			; (mov r8, r8)
10001038:	46c0      	nop			; (mov r8, r8)
1000103a:	46c0      	nop			; (mov r8, r8)
1000103c:	46c0      	nop			; (mov r8, r8)
1000103e:	46c0      	nop			; (mov r8, r8)
10001040:	46c0      	nop			; (mov r8, r8)
10001042:	46c0      	nop			; (mov r8, r8)
10001044:	46c0      	nop			; (mov r8, r8)
10001046:	46c0      	nop			; (mov r8, r8)
10001048:	46c0      	nop			; (mov r8, r8)
1000104a:	46c0      	nop			; (mov r8, r8)
1000104c:	46c0      	nop			; (mov r8, r8)
1000104e:	46c0      	nop			; (mov r8, r8)
10001050:	46c0      	nop			; (mov r8, r8)
10001052:	46c0      	nop			; (mov r8, r8)
10001054:	46c0      	nop			; (mov r8, r8)
10001056:	46c0      	nop			; (mov r8, r8)
10001058:	46c0      	nop			; (mov r8, r8)
1000105a:	46c0      	nop			; (mov r8, r8)
1000105c:	46c0      	nop			; (mov r8, r8)
1000105e:	46c0      	nop			; (mov r8, r8)
10001060:	46c0      	nop			; (mov r8, r8)
10001062:	46c0      	nop			; (mov r8, r8)
10001064:	46c0      	nop			; (mov r8, r8)
10001066:	46c0      	nop			; (mov r8, r8)
10001068:	46c0      	nop			; (mov r8, r8)
1000106a:	46c0      	nop			; (mov r8, r8)
1000106c:	46c0      	nop			; (mov r8, r8)
1000106e:	46c0      	nop			; (mov r8, r8)
10001070:	46c0      	nop			; (mov r8, r8)
10001072:	46c0      	nop			; (mov r8, r8)
10001074:	46c0      	nop			; (mov r8, r8)
10001076:	46c0      	nop			; (mov r8, r8)
10001078:	46c0      	nop			; (mov r8, r8)
1000107a:	46c0      	nop			; (mov r8, r8)
1000107c:	46c0      	nop			; (mov r8, r8)
1000107e:	46c0      	nop			; (mov r8, r8)
10001080:	46c0      	nop			; (mov r8, r8)
10001082:	46c0      	nop			; (mov r8, r8)
10001084:	46c0      	nop			; (mov r8, r8)
10001086:	46c0      	nop			; (mov r8, r8)
10001088:	46c0      	nop			; (mov r8, r8)
1000108a:	46c0      	nop			; (mov r8, r8)
1000108c:	46c0      	nop			; (mov r8, r8)
1000108e:	46c0      	nop			; (mov r8, r8)
10001090:	46c0      	nop			; (mov r8, r8)
10001092:	46c0      	nop			; (mov r8, r8)
10001094:	46c0      	nop			; (mov r8, r8)
10001096:	46c0      	nop			; (mov r8, r8)
10001098:	46c0      	nop			; (mov r8, r8)
1000109a:	46c0      	nop			; (mov r8, r8)
1000109c:	46c0      	nop			; (mov r8, r8)
1000109e:	46c0      	nop			; (mov r8, r8)
100010a0:	46c0      	nop			; (mov r8, r8)
100010a2:	46c0      	nop			; (mov r8, r8)
100010a4:	46c0      	nop			; (mov r8, r8)
100010a6:	46c0      	nop			; (mov r8, r8)
100010a8:	46c0      	nop			; (mov r8, r8)
100010aa:	46c0      	nop			; (mov r8, r8)
100010ac:	46c0      	nop			; (mov r8, r8)
100010ae:	46c0      	nop			; (mov r8, r8)
100010b0:	46c0      	nop			; (mov r8, r8)
100010b2:	46c0      	nop			; (mov r8, r8)
100010b4:	46c0      	nop			; (mov r8, r8)
100010b6:	46c0      	nop			; (mov r8, r8)
100010b8:	46c0      	nop			; (mov r8, r8)
100010ba:	46c0      	nop			; (mov r8, r8)
100010bc:	46c0      	nop			; (mov r8, r8)
100010be:	46c0      	nop			; (mov r8, r8)
100010c0:	46c0      	nop			; (mov r8, r8)
100010c2:	46c0      	nop			; (mov r8, r8)
100010c4:	46c0      	nop			; (mov r8, r8)
100010c6:	46c0      	nop			; (mov r8, r8)
100010c8:	46c0      	nop			; (mov r8, r8)
100010ca:	46c0      	nop			; (mov r8, r8)
100010cc:	46c0      	nop			; (mov r8, r8)
100010ce:	46c0      	nop			; (mov r8, r8)
100010d0:	46c0      	nop			; (mov r8, r8)
100010d2:	46c0      	nop			; (mov r8, r8)
100010d4:	46c0      	nop			; (mov r8, r8)
100010d6:	46c0      	nop			; (mov r8, r8)
100010d8:	46c0      	nop			; (mov r8, r8)
100010da:	46c0      	nop			; (mov r8, r8)
100010dc:	46c0      	nop			; (mov r8, r8)
100010de:	46c0      	nop			; (mov r8, r8)
100010e0:	46c0      	nop			; (mov r8, r8)
100010e2:	46c0      	nop			; (mov r8, r8)
100010e4:	46c0      	nop			; (mov r8, r8)
100010e6:	46c0      	nop			; (mov r8, r8)
100010e8:	46c0      	nop			; (mov r8, r8)
100010ea:	46c0      	nop			; (mov r8, r8)
100010ec:	46c0      	nop			; (mov r8, r8)
100010ee:	46c0      	nop			; (mov r8, r8)
100010f0:	46c0      	nop			; (mov r8, r8)
100010f2:	7823      	ldrb	r3, [r4, #0]
100010f4:	2b00      	cmp	r3, #0
100010f6:	d1fc      	bne.n	100010f2 <tft_drawPixel.part.0+0x996>
100010f8:	3301      	adds	r3, #1
100010fa:	7023      	strb	r3, [r4, #0]
100010fc:	2280      	movs	r2, #128	; 0x80
100010fe:	23d0      	movs	r3, #208	; 0xd0
10001100:	02d2      	lsls	r2, r2, #11
10001102:	061b      	lsls	r3, r3, #24
10001104:	615a      	str	r2, [r3, #20]
10001106:	bc80      	pop	{r7}
10001108:	46b8      	mov	r8, r7
1000110a:	bdf0      	pop	{r4, r5, r6, r7, pc}

1000110c <tft_begin>:
1000110c:	b5f0      	push	{r4, r5, r6, r7, lr}
1000110e:	20fa      	movs	r0, #250	; 0xfa
10001110:	46c6      	mov	lr, r8
10001112:	24d0      	movs	r4, #208	; 0xd0
10001114:	2580      	movs	r5, #128	; 0x80
10001116:	2780      	movs	r7, #128	; 0x80
10001118:	2680      	movs	r6, #128	; 0x80
1000111a:	0624      	lsls	r4, r4, #24
1000111c:	036d      	lsls	r5, r5, #13
1000111e:	b500      	push	{lr}
10001120:	0040      	lsls	r0, r0, #1
10001122:	027f      	lsls	r7, r7, #9
10001124:	02f6      	lsls	r6, r6, #11
10001126:	f003 fd7f 	bl	10004c28 <sleep_ms>
1000112a:	61a5      	str	r5, [r4, #24]
1000112c:	2005      	movs	r0, #5
1000112e:	61a7      	str	r7, [r4, #24]
10001130:	6166      	str	r6, [r4, #20]
10001132:	6165      	str	r5, [r4, #20]
10001134:	f003 fd78 	bl	10004c28 <sleep_ms>
10001138:	2014      	movs	r0, #20
1000113a:	61a5      	str	r5, [r4, #24]
1000113c:	f003 fd74 	bl	10004c28 <sleep_ms>
10001140:	2096      	movs	r0, #150	; 0x96
10001142:	6165      	str	r5, [r4, #20]
10001144:	f003 fd70 	bl	10004c28 <sleep_ms>
10001148:	2201      	movs	r2, #1
1000114a:	4dde      	ldr	r5, [pc, #888]	; (100014c4 <tft_begin+0x3b8>)
1000114c:	61a7      	str	r7, [r4, #24]
1000114e:	686b      	ldr	r3, [r5, #4]
10001150:	6829      	ldr	r1, [r5, #0]
10001152:	1d18      	adds	r0, r3, #4
10001154:	3310      	adds	r3, #16
10001156:	409a      	lsls	r2, r3
10001158:	0080      	lsls	r0, r0, #2
1000115a:	61a6      	str	r6, [r4, #24]
1000115c:	1808      	adds	r0, r1, r0
1000115e:	684b      	ldr	r3, [r1, #4]
10001160:	421a      	tst	r2, r3
10001162:	d1fc      	bne.n	1000115e <tft_begin+0x52>
10001164:	23ef      	movs	r3, #239	; 0xef
10001166:	7003      	strb	r3, [r0, #0]
10001168:	6868      	ldr	r0, [r5, #4]
1000116a:	2201      	movs	r2, #1
1000116c:	0003      	movs	r3, r0
1000116e:	3310      	adds	r3, #16
10001170:	409a      	lsls	r2, r3
10001172:	6829      	ldr	r1, [r5, #0]
10001174:	4cd4      	ldr	r4, [pc, #848]	; (100014c8 <tft_begin+0x3bc>)
10001176:	7823      	ldrb	r3, [r4, #0]
10001178:	2b00      	cmp	r3, #0
1000117a:	d1fc      	bne.n	10001176 <tft_begin+0x6a>
1000117c:	3301      	adds	r3, #1
1000117e:	7023      	strb	r3, [r4, #0]
10001180:	2680      	movs	r6, #128	; 0x80
10001182:	23d0      	movs	r3, #208	; 0xd0
10001184:	2780      	movs	r7, #128	; 0x80
10001186:	3004      	adds	r0, #4
10001188:	061b      	lsls	r3, r3, #24
1000118a:	02f6      	lsls	r6, r6, #11
1000118c:	027f      	lsls	r7, r7, #9
1000118e:	0080      	lsls	r0, r0, #2
10001190:	615e      	str	r6, [r3, #20]
10001192:	1808      	adds	r0, r1, r0
10001194:	615f      	str	r7, [r3, #20]
10001196:	619e      	str	r6, [r3, #24]
10001198:	684b      	ldr	r3, [r1, #4]
1000119a:	421a      	tst	r2, r3
1000119c:	d1fc      	bne.n	10001198 <tft_begin+0x8c>
1000119e:	2303      	movs	r3, #3
100011a0:	7003      	strb	r3, [r0, #0]
100011a2:	6868      	ldr	r0, [r5, #4]
100011a4:	2201      	movs	r2, #1
100011a6:	0003      	movs	r3, r0
100011a8:	3310      	adds	r3, #16
100011aa:	409a      	lsls	r2, r3
100011ac:	6829      	ldr	r1, [r5, #0]
100011ae:	7823      	ldrb	r3, [r4, #0]
100011b0:	2b00      	cmp	r3, #0
100011b2:	d1fc      	bne.n	100011ae <tft_begin+0xa2>
100011b4:	3301      	adds	r3, #1
100011b6:	7023      	strb	r3, [r4, #0]
100011b8:	2680      	movs	r6, #128	; 0x80
100011ba:	23d0      	movs	r3, #208	; 0xd0
100011bc:	2780      	movs	r7, #128	; 0x80
100011be:	3004      	adds	r0, #4
100011c0:	061b      	lsls	r3, r3, #24
100011c2:	02f6      	lsls	r6, r6, #11
100011c4:	027f      	lsls	r7, r7, #9
100011c6:	0080      	lsls	r0, r0, #2
100011c8:	615e      	str	r6, [r3, #20]
100011ca:	1808      	adds	r0, r1, r0
100011cc:	615f      	str	r7, [r3, #20]
100011ce:	619e      	str	r6, [r3, #24]
100011d0:	684b      	ldr	r3, [r1, #4]
100011d2:	421a      	tst	r2, r3
100011d4:	d1fc      	bne.n	100011d0 <tft_begin+0xc4>
100011d6:	2380      	movs	r3, #128	; 0x80
100011d8:	7003      	strb	r3, [r0, #0]
100011da:	6868      	ldr	r0, [r5, #4]
100011dc:	2201      	movs	r2, #1
100011de:	0003      	movs	r3, r0
100011e0:	3310      	adds	r3, #16
100011e2:	409a      	lsls	r2, r3
100011e4:	6829      	ldr	r1, [r5, #0]
100011e6:	7823      	ldrb	r3, [r4, #0]
100011e8:	2b00      	cmp	r3, #0
100011ea:	d1fc      	bne.n	100011e6 <tft_begin+0xda>
100011ec:	3301      	adds	r3, #1
100011ee:	7023      	strb	r3, [r4, #0]
100011f0:	2680      	movs	r6, #128	; 0x80
100011f2:	23d0      	movs	r3, #208	; 0xd0
100011f4:	2780      	movs	r7, #128	; 0x80
100011f6:	3004      	adds	r0, #4
100011f8:	061b      	lsls	r3, r3, #24
100011fa:	02f6      	lsls	r6, r6, #11
100011fc:	027f      	lsls	r7, r7, #9
100011fe:	0080      	lsls	r0, r0, #2
10001200:	615e      	str	r6, [r3, #20]
10001202:	1808      	adds	r0, r1, r0
10001204:	615f      	str	r7, [r3, #20]
10001206:	619e      	str	r6, [r3, #24]
10001208:	684b      	ldr	r3, [r1, #4]
1000120a:	421a      	tst	r2, r3
1000120c:	d1fc      	bne.n	10001208 <tft_begin+0xfc>
1000120e:	2302      	movs	r3, #2
10001210:	7003      	strb	r3, [r0, #0]
10001212:	6868      	ldr	r0, [r5, #4]
10001214:	2201      	movs	r2, #1
10001216:	0003      	movs	r3, r0
10001218:	3310      	adds	r3, #16
1000121a:	409a      	lsls	r2, r3
1000121c:	6829      	ldr	r1, [r5, #0]
1000121e:	7823      	ldrb	r3, [r4, #0]
10001220:	2b00      	cmp	r3, #0
10001222:	d1fc      	bne.n	1000121e <tft_begin+0x112>
10001224:	3301      	adds	r3, #1
10001226:	7023      	strb	r3, [r4, #0]
10001228:	2680      	movs	r6, #128	; 0x80
1000122a:	23d0      	movs	r3, #208	; 0xd0
1000122c:	2780      	movs	r7, #128	; 0x80
1000122e:	3004      	adds	r0, #4
10001230:	061b      	lsls	r3, r3, #24
10001232:	02f6      	lsls	r6, r6, #11
10001234:	027f      	lsls	r7, r7, #9
10001236:	0080      	lsls	r0, r0, #2
10001238:	615e      	str	r6, [r3, #20]
1000123a:	1808      	adds	r0, r1, r0
1000123c:	619f      	str	r7, [r3, #24]
1000123e:	619e      	str	r6, [r3, #24]
10001240:	684b      	ldr	r3, [r1, #4]
10001242:	421a      	tst	r2, r3
10001244:	d1fc      	bne.n	10001240 <tft_begin+0x134>
10001246:	23cf      	movs	r3, #207	; 0xcf
10001248:	7003      	strb	r3, [r0, #0]
1000124a:	6868      	ldr	r0, [r5, #4]
1000124c:	2201      	movs	r2, #1
1000124e:	0003      	movs	r3, r0
10001250:	3310      	adds	r3, #16
10001252:	409a      	lsls	r2, r3
10001254:	6829      	ldr	r1, [r5, #0]
10001256:	7823      	ldrb	r3, [r4, #0]
10001258:	2b00      	cmp	r3, #0
1000125a:	d1fc      	bne.n	10001256 <tft_begin+0x14a>
1000125c:	3301      	adds	r3, #1
1000125e:	7023      	strb	r3, [r4, #0]
10001260:	2680      	movs	r6, #128	; 0x80
10001262:	23d0      	movs	r3, #208	; 0xd0
10001264:	2780      	movs	r7, #128	; 0x80
10001266:	061b      	lsls	r3, r3, #24
10001268:	02f6      	lsls	r6, r6, #11
1000126a:	027f      	lsls	r7, r7, #9
1000126c:	3004      	adds	r0, #4
1000126e:	615e      	str	r6, [r3, #20]
10001270:	615f      	str	r7, [r3, #20]
10001272:	619e      	str	r6, [r3, #24]
10001274:	0086      	lsls	r6, r0, #2
10001276:	198e      	adds	r6, r1, r6
10001278:	0010      	movs	r0, r2
1000127a:	684b      	ldr	r3, [r1, #4]
1000127c:	4018      	ands	r0, r3
1000127e:	421a      	tst	r2, r3
10001280:	d1fa      	bne.n	10001278 <tft_begin+0x16c>
10001282:	7030      	strb	r0, [r6, #0]
10001284:	6868      	ldr	r0, [r5, #4]
10001286:	2201      	movs	r2, #1
10001288:	0003      	movs	r3, r0
1000128a:	3310      	adds	r3, #16
1000128c:	409a      	lsls	r2, r3
1000128e:	6829      	ldr	r1, [r5, #0]
10001290:	7823      	ldrb	r3, [r4, #0]
10001292:	2b00      	cmp	r3, #0
10001294:	d1fc      	bne.n	10001290 <tft_begin+0x184>
10001296:	3301      	adds	r3, #1
10001298:	7023      	strb	r3, [r4, #0]
1000129a:	2680      	movs	r6, #128	; 0x80
1000129c:	23d0      	movs	r3, #208	; 0xd0
1000129e:	2780      	movs	r7, #128	; 0x80
100012a0:	3004      	adds	r0, #4
100012a2:	061b      	lsls	r3, r3, #24
100012a4:	02f6      	lsls	r6, r6, #11
100012a6:	027f      	lsls	r7, r7, #9
100012a8:	0080      	lsls	r0, r0, #2
100012aa:	615e      	str	r6, [r3, #20]
100012ac:	1808      	adds	r0, r1, r0
100012ae:	615f      	str	r7, [r3, #20]
100012b0:	619e      	str	r6, [r3, #24]
100012b2:	684b      	ldr	r3, [r1, #4]
100012b4:	421a      	tst	r2, r3
100012b6:	d1fc      	bne.n	100012b2 <tft_begin+0x1a6>
100012b8:	23c1      	movs	r3, #193	; 0xc1
100012ba:	7003      	strb	r3, [r0, #0]
100012bc:	6868      	ldr	r0, [r5, #4]
100012be:	2201      	movs	r2, #1
100012c0:	0003      	movs	r3, r0
100012c2:	3310      	adds	r3, #16
100012c4:	409a      	lsls	r2, r3
100012c6:	6829      	ldr	r1, [r5, #0]
100012c8:	7823      	ldrb	r3, [r4, #0]
100012ca:	2b00      	cmp	r3, #0
100012cc:	d1fc      	bne.n	100012c8 <tft_begin+0x1bc>
100012ce:	3301      	adds	r3, #1
100012d0:	7023      	strb	r3, [r4, #0]
100012d2:	2680      	movs	r6, #128	; 0x80
100012d4:	23d0      	movs	r3, #208	; 0xd0
100012d6:	2780      	movs	r7, #128	; 0x80
100012d8:	3004      	adds	r0, #4
100012da:	061b      	lsls	r3, r3, #24
100012dc:	02f6      	lsls	r6, r6, #11
100012de:	027f      	lsls	r7, r7, #9
100012e0:	0080      	lsls	r0, r0, #2
100012e2:	615e      	str	r6, [r3, #20]
100012e4:	1808      	adds	r0, r1, r0
100012e6:	615f      	str	r7, [r3, #20]
100012e8:	619e      	str	r6, [r3, #24]
100012ea:	684b      	ldr	r3, [r1, #4]
100012ec:	421a      	tst	r2, r3
100012ee:	d1fc      	bne.n	100012ea <tft_begin+0x1de>
100012f0:	2330      	movs	r3, #48	; 0x30
100012f2:	7003      	strb	r3, [r0, #0]
100012f4:	6868      	ldr	r0, [r5, #4]
100012f6:	2201      	movs	r2, #1
100012f8:	0003      	movs	r3, r0
100012fa:	3310      	adds	r3, #16
100012fc:	409a      	lsls	r2, r3
100012fe:	6829      	ldr	r1, [r5, #0]
10001300:	7823      	ldrb	r3, [r4, #0]
10001302:	2b00      	cmp	r3, #0
10001304:	d1fc      	bne.n	10001300 <tft_begin+0x1f4>
10001306:	3301      	adds	r3, #1
10001308:	7023      	strb	r3, [r4, #0]
1000130a:	2680      	movs	r6, #128	; 0x80
1000130c:	23d0      	movs	r3, #208	; 0xd0
1000130e:	2780      	movs	r7, #128	; 0x80
10001310:	3004      	adds	r0, #4
10001312:	061b      	lsls	r3, r3, #24
10001314:	02f6      	lsls	r6, r6, #11
10001316:	027f      	lsls	r7, r7, #9
10001318:	0080      	lsls	r0, r0, #2
1000131a:	615e      	str	r6, [r3, #20]
1000131c:	1808      	adds	r0, r1, r0
1000131e:	619f      	str	r7, [r3, #24]
10001320:	619e      	str	r6, [r3, #24]
10001322:	684b      	ldr	r3, [r1, #4]
10001324:	421a      	tst	r2, r3
10001326:	d1fc      	bne.n	10001322 <tft_begin+0x216>
10001328:	23ed      	movs	r3, #237	; 0xed
1000132a:	7003      	strb	r3, [r0, #0]
1000132c:	6868      	ldr	r0, [r5, #4]
1000132e:	2201      	movs	r2, #1
10001330:	0003      	movs	r3, r0
10001332:	3310      	adds	r3, #16
10001334:	409a      	lsls	r2, r3
10001336:	6829      	ldr	r1, [r5, #0]
10001338:	7823      	ldrb	r3, [r4, #0]
1000133a:	2b00      	cmp	r3, #0
1000133c:	d1fc      	bne.n	10001338 <tft_begin+0x22c>
1000133e:	3301      	adds	r3, #1
10001340:	7023      	strb	r3, [r4, #0]
10001342:	2680      	movs	r6, #128	; 0x80
10001344:	23d0      	movs	r3, #208	; 0xd0
10001346:	2780      	movs	r7, #128	; 0x80
10001348:	3004      	adds	r0, #4
1000134a:	061b      	lsls	r3, r3, #24
1000134c:	02f6      	lsls	r6, r6, #11
1000134e:	027f      	lsls	r7, r7, #9
10001350:	0080      	lsls	r0, r0, #2
10001352:	615e      	str	r6, [r3, #20]
10001354:	1808      	adds	r0, r1, r0
10001356:	615f      	str	r7, [r3, #20]
10001358:	619e      	str	r6, [r3, #24]
1000135a:	684b      	ldr	r3, [r1, #4]
1000135c:	421a      	tst	r2, r3
1000135e:	d1fc      	bne.n	1000135a <tft_begin+0x24e>
10001360:	2364      	movs	r3, #100	; 0x64
10001362:	7003      	strb	r3, [r0, #0]
10001364:	6868      	ldr	r0, [r5, #4]
10001366:	2201      	movs	r2, #1
10001368:	0003      	movs	r3, r0
1000136a:	3310      	adds	r3, #16
1000136c:	409a      	lsls	r2, r3
1000136e:	6829      	ldr	r1, [r5, #0]
10001370:	7823      	ldrb	r3, [r4, #0]
10001372:	2b00      	cmp	r3, #0
10001374:	d1fc      	bne.n	10001370 <tft_begin+0x264>
10001376:	3301      	adds	r3, #1
10001378:	7023      	strb	r3, [r4, #0]
1000137a:	2680      	movs	r6, #128	; 0x80
1000137c:	23d0      	movs	r3, #208	; 0xd0
1000137e:	2780      	movs	r7, #128	; 0x80
10001380:	3004      	adds	r0, #4
10001382:	061b      	lsls	r3, r3, #24
10001384:	02f6      	lsls	r6, r6, #11
10001386:	027f      	lsls	r7, r7, #9
10001388:	0080      	lsls	r0, r0, #2
1000138a:	615e      	str	r6, [r3, #20]
1000138c:	1808      	adds	r0, r1, r0
1000138e:	615f      	str	r7, [r3, #20]
10001390:	619e      	str	r6, [r3, #24]
10001392:	684b      	ldr	r3, [r1, #4]
10001394:	421a      	tst	r2, r3
10001396:	d1fc      	bne.n	10001392 <tft_begin+0x286>
10001398:	2303      	movs	r3, #3
1000139a:	7003      	strb	r3, [r0, #0]
1000139c:	6868      	ldr	r0, [r5, #4]
1000139e:	2201      	movs	r2, #1
100013a0:	0003      	movs	r3, r0
100013a2:	3310      	adds	r3, #16
100013a4:	409a      	lsls	r2, r3
100013a6:	6829      	ldr	r1, [r5, #0]
100013a8:	7823      	ldrb	r3, [r4, #0]
100013aa:	2b00      	cmp	r3, #0
100013ac:	d1fc      	bne.n	100013a8 <tft_begin+0x29c>
100013ae:	3301      	adds	r3, #1
100013b0:	7023      	strb	r3, [r4, #0]
100013b2:	2680      	movs	r6, #128	; 0x80
100013b4:	23d0      	movs	r3, #208	; 0xd0
100013b6:	2780      	movs	r7, #128	; 0x80
100013b8:	3004      	adds	r0, #4
100013ba:	061b      	lsls	r3, r3, #24
100013bc:	02f6      	lsls	r6, r6, #11
100013be:	027f      	lsls	r7, r7, #9
100013c0:	0080      	lsls	r0, r0, #2
100013c2:	615e      	str	r6, [r3, #20]
100013c4:	1808      	adds	r0, r1, r0
100013c6:	615f      	str	r7, [r3, #20]
100013c8:	619e      	str	r6, [r3, #24]
100013ca:	684b      	ldr	r3, [r1, #4]
100013cc:	421a      	tst	r2, r3
100013ce:	d1fc      	bne.n	100013ca <tft_begin+0x2be>
100013d0:	2312      	movs	r3, #18
100013d2:	7003      	strb	r3, [r0, #0]
100013d4:	6868      	ldr	r0, [r5, #4]
100013d6:	2201      	movs	r2, #1
100013d8:	0003      	movs	r3, r0
100013da:	3310      	adds	r3, #16
100013dc:	409a      	lsls	r2, r3
100013de:	6829      	ldr	r1, [r5, #0]
100013e0:	7823      	ldrb	r3, [r4, #0]
100013e2:	2b00      	cmp	r3, #0
100013e4:	d1fc      	bne.n	100013e0 <tft_begin+0x2d4>
100013e6:	3301      	adds	r3, #1
100013e8:	7023      	strb	r3, [r4, #0]
100013ea:	2680      	movs	r6, #128	; 0x80
100013ec:	23d0      	movs	r3, #208	; 0xd0
100013ee:	2780      	movs	r7, #128	; 0x80
100013f0:	3004      	adds	r0, #4
100013f2:	061b      	lsls	r3, r3, #24
100013f4:	02f6      	lsls	r6, r6, #11
100013f6:	027f      	lsls	r7, r7, #9
100013f8:	0080      	lsls	r0, r0, #2
100013fa:	615e      	str	r6, [r3, #20]
100013fc:	1808      	adds	r0, r1, r0
100013fe:	615f      	str	r7, [r3, #20]
10001400:	619e      	str	r6, [r3, #24]
10001402:	684b      	ldr	r3, [r1, #4]
10001404:	421a      	tst	r2, r3
10001406:	d1fc      	bne.n	10001402 <tft_begin+0x2f6>
10001408:	2381      	movs	r3, #129	; 0x81
1000140a:	7003      	strb	r3, [r0, #0]
1000140c:	6868      	ldr	r0, [r5, #4]
1000140e:	2201      	movs	r2, #1
10001410:	0003      	movs	r3, r0
10001412:	3310      	adds	r3, #16
10001414:	409a      	lsls	r2, r3
10001416:	6829      	ldr	r1, [r5, #0]
10001418:	7823      	ldrb	r3, [r4, #0]
1000141a:	2b00      	cmp	r3, #0
1000141c:	d1fc      	bne.n	10001418 <tft_begin+0x30c>
1000141e:	3301      	adds	r3, #1
10001420:	7023      	strb	r3, [r4, #0]
10001422:	2680      	movs	r6, #128	; 0x80
10001424:	23d0      	movs	r3, #208	; 0xd0
10001426:	2780      	movs	r7, #128	; 0x80
10001428:	3004      	adds	r0, #4
1000142a:	061b      	lsls	r3, r3, #24
1000142c:	02f6      	lsls	r6, r6, #11
1000142e:	027f      	lsls	r7, r7, #9
10001430:	0080      	lsls	r0, r0, #2
10001432:	615e      	str	r6, [r3, #20]
10001434:	1808      	adds	r0, r1, r0
10001436:	619f      	str	r7, [r3, #24]
10001438:	619e      	str	r6, [r3, #24]
1000143a:	684b      	ldr	r3, [r1, #4]
1000143c:	421a      	tst	r2, r3
1000143e:	d1fc      	bne.n	1000143a <tft_begin+0x32e>
10001440:	23e8      	movs	r3, #232	; 0xe8
10001442:	7003      	strb	r3, [r0, #0]
10001444:	6868      	ldr	r0, [r5, #4]
10001446:	2201      	movs	r2, #1
10001448:	0003      	movs	r3, r0
1000144a:	3310      	adds	r3, #16
1000144c:	409a      	lsls	r2, r3
1000144e:	6829      	ldr	r1, [r5, #0]
10001450:	7823      	ldrb	r3, [r4, #0]
10001452:	2b00      	cmp	r3, #0
10001454:	d1fc      	bne.n	10001450 <tft_begin+0x344>
10001456:	3301      	adds	r3, #1
10001458:	7023      	strb	r3, [r4, #0]
1000145a:	2680      	movs	r6, #128	; 0x80
1000145c:	23d0      	movs	r3, #208	; 0xd0
1000145e:	2780      	movs	r7, #128	; 0x80
10001460:	3004      	adds	r0, #4
10001462:	061b      	lsls	r3, r3, #24
10001464:	02f6      	lsls	r6, r6, #11
10001466:	027f      	lsls	r7, r7, #9
10001468:	0080      	lsls	r0, r0, #2
1000146a:	615e      	str	r6, [r3, #20]
1000146c:	1808      	adds	r0, r1, r0
1000146e:	615f      	str	r7, [r3, #20]
10001470:	619e      	str	r6, [r3, #24]
10001472:	684b      	ldr	r3, [r1, #4]
10001474:	421a      	tst	r2, r3
10001476:	d1fc      	bne.n	10001472 <tft_begin+0x366>
10001478:	2385      	movs	r3, #133	; 0x85
1000147a:	7003      	strb	r3, [r0, #0]
1000147c:	6868      	ldr	r0, [r5, #4]
1000147e:	2201      	movs	r2, #1
10001480:	0003      	movs	r3, r0
10001482:	3310      	adds	r3, #16
10001484:	409a      	lsls	r2, r3
10001486:	6829      	ldr	r1, [r5, #0]
10001488:	7823      	ldrb	r3, [r4, #0]
1000148a:	2b00      	cmp	r3, #0
1000148c:	d1fc      	bne.n	10001488 <tft_begin+0x37c>
1000148e:	3301      	adds	r3, #1
10001490:	7023      	strb	r3, [r4, #0]
10001492:	2680      	movs	r6, #128	; 0x80
10001494:	23d0      	movs	r3, #208	; 0xd0
10001496:	2780      	movs	r7, #128	; 0x80
10001498:	061b      	lsls	r3, r3, #24
1000149a:	02f6      	lsls	r6, r6, #11
1000149c:	027f      	lsls	r7, r7, #9
1000149e:	3004      	adds	r0, #4
100014a0:	615e      	str	r6, [r3, #20]
100014a2:	615f      	str	r7, [r3, #20]
100014a4:	619e      	str	r6, [r3, #24]
100014a6:	0086      	lsls	r6, r0, #2
100014a8:	198e      	adds	r6, r1, r6
100014aa:	0010      	movs	r0, r2
100014ac:	684b      	ldr	r3, [r1, #4]
100014ae:	4018      	ands	r0, r3
100014b0:	421a      	tst	r2, r3
100014b2:	d1fa      	bne.n	100014aa <tft_begin+0x39e>
100014b4:	7030      	strb	r0, [r6, #0]
100014b6:	6868      	ldr	r0, [r5, #4]
100014b8:	2201      	movs	r2, #1
100014ba:	0003      	movs	r3, r0
100014bc:	3310      	adds	r3, #16
100014be:	409a      	lsls	r2, r3
100014c0:	6829      	ldr	r1, [r5, #0]
100014c2:	e003      	b.n	100014cc <tft_begin+0x3c0>
100014c4:	2000019c 	.word	0x2000019c
100014c8:	20000198 	.word	0x20000198
100014cc:	7823      	ldrb	r3, [r4, #0]
100014ce:	2b00      	cmp	r3, #0
100014d0:	d1fc      	bne.n	100014cc <tft_begin+0x3c0>
100014d2:	3301      	adds	r3, #1
100014d4:	7023      	strb	r3, [r4, #0]
100014d6:	2680      	movs	r6, #128	; 0x80
100014d8:	23d0      	movs	r3, #208	; 0xd0
100014da:	2780      	movs	r7, #128	; 0x80
100014dc:	3004      	adds	r0, #4
100014de:	061b      	lsls	r3, r3, #24
100014e0:	02f6      	lsls	r6, r6, #11
100014e2:	027f      	lsls	r7, r7, #9
100014e4:	0080      	lsls	r0, r0, #2
100014e6:	615e      	str	r6, [r3, #20]
100014e8:	1808      	adds	r0, r1, r0
100014ea:	615f      	str	r7, [r3, #20]
100014ec:	619e      	str	r6, [r3, #24]
100014ee:	684b      	ldr	r3, [r1, #4]
100014f0:	421a      	tst	r2, r3
100014f2:	d1fc      	bne.n	100014ee <tft_begin+0x3e2>
100014f4:	2378      	movs	r3, #120	; 0x78
100014f6:	7003      	strb	r3, [r0, #0]
100014f8:	6868      	ldr	r0, [r5, #4]
100014fa:	2201      	movs	r2, #1
100014fc:	0003      	movs	r3, r0
100014fe:	3310      	adds	r3, #16
10001500:	409a      	lsls	r2, r3
10001502:	6829      	ldr	r1, [r5, #0]
10001504:	7823      	ldrb	r3, [r4, #0]
10001506:	2b00      	cmp	r3, #0
10001508:	d1fc      	bne.n	10001504 <tft_begin+0x3f8>
1000150a:	3301      	adds	r3, #1
1000150c:	7023      	strb	r3, [r4, #0]
1000150e:	2680      	movs	r6, #128	; 0x80
10001510:	23d0      	movs	r3, #208	; 0xd0
10001512:	2780      	movs	r7, #128	; 0x80
10001514:	3004      	adds	r0, #4
10001516:	061b      	lsls	r3, r3, #24
10001518:	02f6      	lsls	r6, r6, #11
1000151a:	027f      	lsls	r7, r7, #9
1000151c:	0080      	lsls	r0, r0, #2
1000151e:	615e      	str	r6, [r3, #20]
10001520:	1808      	adds	r0, r1, r0
10001522:	619f      	str	r7, [r3, #24]
10001524:	619e      	str	r6, [r3, #24]
10001526:	684b      	ldr	r3, [r1, #4]
10001528:	421a      	tst	r2, r3
1000152a:	d1fc      	bne.n	10001526 <tft_begin+0x41a>
1000152c:	23cb      	movs	r3, #203	; 0xcb
1000152e:	7003      	strb	r3, [r0, #0]
10001530:	6868      	ldr	r0, [r5, #4]
10001532:	2201      	movs	r2, #1
10001534:	0003      	movs	r3, r0
10001536:	3310      	adds	r3, #16
10001538:	409a      	lsls	r2, r3
1000153a:	6829      	ldr	r1, [r5, #0]
1000153c:	7823      	ldrb	r3, [r4, #0]
1000153e:	2b00      	cmp	r3, #0
10001540:	d1fc      	bne.n	1000153c <tft_begin+0x430>
10001542:	3301      	adds	r3, #1
10001544:	7023      	strb	r3, [r4, #0]
10001546:	2680      	movs	r6, #128	; 0x80
10001548:	23d0      	movs	r3, #208	; 0xd0
1000154a:	2780      	movs	r7, #128	; 0x80
1000154c:	3004      	adds	r0, #4
1000154e:	061b      	lsls	r3, r3, #24
10001550:	02f6      	lsls	r6, r6, #11
10001552:	027f      	lsls	r7, r7, #9
10001554:	0080      	lsls	r0, r0, #2
10001556:	615e      	str	r6, [r3, #20]
10001558:	1808      	adds	r0, r1, r0
1000155a:	615f      	str	r7, [r3, #20]
1000155c:	619e      	str	r6, [r3, #24]
1000155e:	684b      	ldr	r3, [r1, #4]
10001560:	421a      	tst	r2, r3
10001562:	d1fc      	bne.n	1000155e <tft_begin+0x452>
10001564:	2339      	movs	r3, #57	; 0x39
10001566:	7003      	strb	r3, [r0, #0]
10001568:	6868      	ldr	r0, [r5, #4]
1000156a:	2201      	movs	r2, #1
1000156c:	0003      	movs	r3, r0
1000156e:	3310      	adds	r3, #16
10001570:	409a      	lsls	r2, r3
10001572:	6829      	ldr	r1, [r5, #0]
10001574:	7823      	ldrb	r3, [r4, #0]
10001576:	2b00      	cmp	r3, #0
10001578:	d1fc      	bne.n	10001574 <tft_begin+0x468>
1000157a:	3301      	adds	r3, #1
1000157c:	7023      	strb	r3, [r4, #0]
1000157e:	2680      	movs	r6, #128	; 0x80
10001580:	23d0      	movs	r3, #208	; 0xd0
10001582:	2780      	movs	r7, #128	; 0x80
10001584:	3004      	adds	r0, #4
10001586:	061b      	lsls	r3, r3, #24
10001588:	02f6      	lsls	r6, r6, #11
1000158a:	027f      	lsls	r7, r7, #9
1000158c:	0080      	lsls	r0, r0, #2
1000158e:	615e      	str	r6, [r3, #20]
10001590:	1808      	adds	r0, r1, r0
10001592:	615f      	str	r7, [r3, #20]
10001594:	619e      	str	r6, [r3, #24]
10001596:	684b      	ldr	r3, [r1, #4]
10001598:	421a      	tst	r2, r3
1000159a:	d1fc      	bne.n	10001596 <tft_begin+0x48a>
1000159c:	232c      	movs	r3, #44	; 0x2c
1000159e:	7003      	strb	r3, [r0, #0]
100015a0:	6868      	ldr	r0, [r5, #4]
100015a2:	2201      	movs	r2, #1
100015a4:	0003      	movs	r3, r0
100015a6:	3310      	adds	r3, #16
100015a8:	409a      	lsls	r2, r3
100015aa:	6829      	ldr	r1, [r5, #0]
100015ac:	7823      	ldrb	r3, [r4, #0]
100015ae:	2b00      	cmp	r3, #0
100015b0:	d1fc      	bne.n	100015ac <tft_begin+0x4a0>
100015b2:	3301      	adds	r3, #1
100015b4:	7023      	strb	r3, [r4, #0]
100015b6:	2680      	movs	r6, #128	; 0x80
100015b8:	23d0      	movs	r3, #208	; 0xd0
100015ba:	2780      	movs	r7, #128	; 0x80
100015bc:	061b      	lsls	r3, r3, #24
100015be:	02f6      	lsls	r6, r6, #11
100015c0:	027f      	lsls	r7, r7, #9
100015c2:	3004      	adds	r0, #4
100015c4:	615e      	str	r6, [r3, #20]
100015c6:	615f      	str	r7, [r3, #20]
100015c8:	619e      	str	r6, [r3, #24]
100015ca:	0086      	lsls	r6, r0, #2
100015cc:	198e      	adds	r6, r1, r6
100015ce:	0010      	movs	r0, r2
100015d0:	684b      	ldr	r3, [r1, #4]
100015d2:	4018      	ands	r0, r3
100015d4:	421a      	tst	r2, r3
100015d6:	d1fa      	bne.n	100015ce <tft_begin+0x4c2>
100015d8:	7030      	strb	r0, [r6, #0]
100015da:	6868      	ldr	r0, [r5, #4]
100015dc:	2201      	movs	r2, #1
100015de:	0003      	movs	r3, r0
100015e0:	3310      	adds	r3, #16
100015e2:	409a      	lsls	r2, r3
100015e4:	6829      	ldr	r1, [r5, #0]
100015e6:	7823      	ldrb	r3, [r4, #0]
100015e8:	2b00      	cmp	r3, #0
100015ea:	d1fc      	bne.n	100015e6 <tft_begin+0x4da>
100015ec:	3301      	adds	r3, #1
100015ee:	7023      	strb	r3, [r4, #0]
100015f0:	2680      	movs	r6, #128	; 0x80
100015f2:	23d0      	movs	r3, #208	; 0xd0
100015f4:	2780      	movs	r7, #128	; 0x80
100015f6:	3004      	adds	r0, #4
100015f8:	061b      	lsls	r3, r3, #24
100015fa:	02f6      	lsls	r6, r6, #11
100015fc:	027f      	lsls	r7, r7, #9
100015fe:	0080      	lsls	r0, r0, #2
10001600:	615e      	str	r6, [r3, #20]
10001602:	1808      	adds	r0, r1, r0
10001604:	615f      	str	r7, [r3, #20]
10001606:	619e      	str	r6, [r3, #24]
10001608:	684b      	ldr	r3, [r1, #4]
1000160a:	421a      	tst	r2, r3
1000160c:	d1fc      	bne.n	10001608 <tft_begin+0x4fc>
1000160e:	2334      	movs	r3, #52	; 0x34
10001610:	7003      	strb	r3, [r0, #0]
10001612:	6868      	ldr	r0, [r5, #4]
10001614:	2201      	movs	r2, #1
10001616:	0003      	movs	r3, r0
10001618:	3310      	adds	r3, #16
1000161a:	409a      	lsls	r2, r3
1000161c:	6829      	ldr	r1, [r5, #0]
1000161e:	7823      	ldrb	r3, [r4, #0]
10001620:	2b00      	cmp	r3, #0
10001622:	d1fc      	bne.n	1000161e <tft_begin+0x512>
10001624:	3301      	adds	r3, #1
10001626:	7023      	strb	r3, [r4, #0]
10001628:	2680      	movs	r6, #128	; 0x80
1000162a:	23d0      	movs	r3, #208	; 0xd0
1000162c:	2780      	movs	r7, #128	; 0x80
1000162e:	3004      	adds	r0, #4
10001630:	061b      	lsls	r3, r3, #24
10001632:	02f6      	lsls	r6, r6, #11
10001634:	027f      	lsls	r7, r7, #9
10001636:	0080      	lsls	r0, r0, #2
10001638:	615e      	str	r6, [r3, #20]
1000163a:	1808      	adds	r0, r1, r0
1000163c:	615f      	str	r7, [r3, #20]
1000163e:	619e      	str	r6, [r3, #24]
10001640:	684b      	ldr	r3, [r1, #4]
10001642:	421a      	tst	r2, r3
10001644:	d1fc      	bne.n	10001640 <tft_begin+0x534>
10001646:	2302      	movs	r3, #2
10001648:	7003      	strb	r3, [r0, #0]
1000164a:	6868      	ldr	r0, [r5, #4]
1000164c:	2201      	movs	r2, #1
1000164e:	0003      	movs	r3, r0
10001650:	3310      	adds	r3, #16
10001652:	409a      	lsls	r2, r3
10001654:	6829      	ldr	r1, [r5, #0]
10001656:	7823      	ldrb	r3, [r4, #0]
10001658:	2b00      	cmp	r3, #0
1000165a:	d1fc      	bne.n	10001656 <tft_begin+0x54a>
1000165c:	3301      	adds	r3, #1
1000165e:	7023      	strb	r3, [r4, #0]
10001660:	2680      	movs	r6, #128	; 0x80
10001662:	23d0      	movs	r3, #208	; 0xd0
10001664:	2780      	movs	r7, #128	; 0x80
10001666:	3004      	adds	r0, #4
10001668:	061b      	lsls	r3, r3, #24
1000166a:	02f6      	lsls	r6, r6, #11
1000166c:	027f      	lsls	r7, r7, #9
1000166e:	0080      	lsls	r0, r0, #2
10001670:	615e      	str	r6, [r3, #20]
10001672:	1808      	adds	r0, r1, r0
10001674:	619f      	str	r7, [r3, #24]
10001676:	619e      	str	r6, [r3, #24]
10001678:	684b      	ldr	r3, [r1, #4]
1000167a:	421a      	tst	r2, r3
1000167c:	d1fc      	bne.n	10001678 <tft_begin+0x56c>
1000167e:	23f7      	movs	r3, #247	; 0xf7
10001680:	7003      	strb	r3, [r0, #0]
10001682:	6868      	ldr	r0, [r5, #4]
10001684:	2201      	movs	r2, #1
10001686:	0003      	movs	r3, r0
10001688:	3310      	adds	r3, #16
1000168a:	409a      	lsls	r2, r3
1000168c:	6829      	ldr	r1, [r5, #0]
1000168e:	7823      	ldrb	r3, [r4, #0]
10001690:	2b00      	cmp	r3, #0
10001692:	d1fc      	bne.n	1000168e <tft_begin+0x582>
10001694:	3301      	adds	r3, #1
10001696:	7023      	strb	r3, [r4, #0]
10001698:	2680      	movs	r6, #128	; 0x80
1000169a:	23d0      	movs	r3, #208	; 0xd0
1000169c:	2780      	movs	r7, #128	; 0x80
1000169e:	3004      	adds	r0, #4
100016a0:	061b      	lsls	r3, r3, #24
100016a2:	02f6      	lsls	r6, r6, #11
100016a4:	027f      	lsls	r7, r7, #9
100016a6:	0080      	lsls	r0, r0, #2
100016a8:	615e      	str	r6, [r3, #20]
100016aa:	1808      	adds	r0, r1, r0
100016ac:	615f      	str	r7, [r3, #20]
100016ae:	619e      	str	r6, [r3, #24]
100016b0:	684b      	ldr	r3, [r1, #4]
100016b2:	421a      	tst	r2, r3
100016b4:	d1fc      	bne.n	100016b0 <tft_begin+0x5a4>
100016b6:	2320      	movs	r3, #32
100016b8:	7003      	strb	r3, [r0, #0]
100016ba:	6868      	ldr	r0, [r5, #4]
100016bc:	2201      	movs	r2, #1
100016be:	0003      	movs	r3, r0
100016c0:	3310      	adds	r3, #16
100016c2:	409a      	lsls	r2, r3
100016c4:	6829      	ldr	r1, [r5, #0]
100016c6:	7823      	ldrb	r3, [r4, #0]
100016c8:	2b00      	cmp	r3, #0
100016ca:	d1fc      	bne.n	100016c6 <tft_begin+0x5ba>
100016cc:	3301      	adds	r3, #1
100016ce:	7023      	strb	r3, [r4, #0]
100016d0:	2680      	movs	r6, #128	; 0x80
100016d2:	23d0      	movs	r3, #208	; 0xd0
100016d4:	2780      	movs	r7, #128	; 0x80
100016d6:	3004      	adds	r0, #4
100016d8:	061b      	lsls	r3, r3, #24
100016da:	02f6      	lsls	r6, r6, #11
100016dc:	027f      	lsls	r7, r7, #9
100016de:	0080      	lsls	r0, r0, #2
100016e0:	615e      	str	r6, [r3, #20]
100016e2:	1808      	adds	r0, r1, r0
100016e4:	619f      	str	r7, [r3, #24]
100016e6:	619e      	str	r6, [r3, #24]
100016e8:	684b      	ldr	r3, [r1, #4]
100016ea:	421a      	tst	r2, r3
100016ec:	d1fc      	bne.n	100016e8 <tft_begin+0x5dc>
100016ee:	23ea      	movs	r3, #234	; 0xea
100016f0:	7003      	strb	r3, [r0, #0]
100016f2:	6868      	ldr	r0, [r5, #4]
100016f4:	2201      	movs	r2, #1
100016f6:	0003      	movs	r3, r0
100016f8:	3310      	adds	r3, #16
100016fa:	409a      	lsls	r2, r3
100016fc:	6829      	ldr	r1, [r5, #0]
100016fe:	7823      	ldrb	r3, [r4, #0]
10001700:	2b00      	cmp	r3, #0
10001702:	d1fc      	bne.n	100016fe <tft_begin+0x5f2>
10001704:	3301      	adds	r3, #1
10001706:	7023      	strb	r3, [r4, #0]
10001708:	2680      	movs	r6, #128	; 0x80
1000170a:	23d0      	movs	r3, #208	; 0xd0
1000170c:	2780      	movs	r7, #128	; 0x80
1000170e:	061b      	lsls	r3, r3, #24
10001710:	02f6      	lsls	r6, r6, #11
10001712:	027f      	lsls	r7, r7, #9
10001714:	3004      	adds	r0, #4
10001716:	615e      	str	r6, [r3, #20]
10001718:	615f      	str	r7, [r3, #20]
1000171a:	619e      	str	r6, [r3, #24]
1000171c:	0086      	lsls	r6, r0, #2
1000171e:	198e      	adds	r6, r1, r6
10001720:	0010      	movs	r0, r2
10001722:	684b      	ldr	r3, [r1, #4]
10001724:	4018      	ands	r0, r3
10001726:	421a      	tst	r2, r3
10001728:	d1fa      	bne.n	10001720 <tft_begin+0x614>
1000172a:	7030      	strb	r0, [r6, #0]
1000172c:	6868      	ldr	r0, [r5, #4]
1000172e:	2201      	movs	r2, #1
10001730:	0003      	movs	r3, r0
10001732:	3310      	adds	r3, #16
10001734:	409a      	lsls	r2, r3
10001736:	6829      	ldr	r1, [r5, #0]
10001738:	7823      	ldrb	r3, [r4, #0]
1000173a:	2b00      	cmp	r3, #0
1000173c:	d1fc      	bne.n	10001738 <tft_begin+0x62c>
1000173e:	3301      	adds	r3, #1
10001740:	7023      	strb	r3, [r4, #0]
10001742:	2680      	movs	r6, #128	; 0x80
10001744:	23d0      	movs	r3, #208	; 0xd0
10001746:	2780      	movs	r7, #128	; 0x80
10001748:	061b      	lsls	r3, r3, #24
1000174a:	02f6      	lsls	r6, r6, #11
1000174c:	027f      	lsls	r7, r7, #9
1000174e:	3004      	adds	r0, #4
10001750:	615e      	str	r6, [r3, #20]
10001752:	615f      	str	r7, [r3, #20]
10001754:	619e      	str	r6, [r3, #24]
10001756:	0086      	lsls	r6, r0, #2
10001758:	198e      	adds	r6, r1, r6
1000175a:	0010      	movs	r0, r2
1000175c:	684b      	ldr	r3, [r1, #4]
1000175e:	4018      	ands	r0, r3
10001760:	421a      	tst	r2, r3
10001762:	d1fa      	bne.n	1000175a <tft_begin+0x64e>
10001764:	7030      	strb	r0, [r6, #0]
10001766:	6868      	ldr	r0, [r5, #4]
10001768:	2201      	movs	r2, #1
1000176a:	0003      	movs	r3, r0
1000176c:	3310      	adds	r3, #16
1000176e:	409a      	lsls	r2, r3
10001770:	6829      	ldr	r1, [r5, #0]
10001772:	7823      	ldrb	r3, [r4, #0]
10001774:	2b00      	cmp	r3, #0
10001776:	d1fc      	bne.n	10001772 <tft_begin+0x666>
10001778:	3301      	adds	r3, #1
1000177a:	7023      	strb	r3, [r4, #0]
1000177c:	2680      	movs	r6, #128	; 0x80
1000177e:	23d0      	movs	r3, #208	; 0xd0
10001780:	2780      	movs	r7, #128	; 0x80
10001782:	3004      	adds	r0, #4
10001784:	061b      	lsls	r3, r3, #24
10001786:	02f6      	lsls	r6, r6, #11
10001788:	027f      	lsls	r7, r7, #9
1000178a:	0080      	lsls	r0, r0, #2
1000178c:	615e      	str	r6, [r3, #20]
1000178e:	1808      	adds	r0, r1, r0
10001790:	619f      	str	r7, [r3, #24]
10001792:	619e      	str	r6, [r3, #24]
10001794:	684b      	ldr	r3, [r1, #4]
10001796:	421a      	tst	r2, r3
10001798:	d1fc      	bne.n	10001794 <tft_begin+0x688>
1000179a:	23c0      	movs	r3, #192	; 0xc0
1000179c:	7003      	strb	r3, [r0, #0]
1000179e:	6868      	ldr	r0, [r5, #4]
100017a0:	2201      	movs	r2, #1
100017a2:	0003      	movs	r3, r0
100017a4:	3310      	adds	r3, #16
100017a6:	409a      	lsls	r2, r3
100017a8:	6829      	ldr	r1, [r5, #0]
100017aa:	7823      	ldrb	r3, [r4, #0]
100017ac:	2b00      	cmp	r3, #0
100017ae:	d1fc      	bne.n	100017aa <tft_begin+0x69e>
100017b0:	3301      	adds	r3, #1
100017b2:	7023      	strb	r3, [r4, #0]
100017b4:	2680      	movs	r6, #128	; 0x80
100017b6:	23d0      	movs	r3, #208	; 0xd0
100017b8:	2780      	movs	r7, #128	; 0x80
100017ba:	3004      	adds	r0, #4
100017bc:	061b      	lsls	r3, r3, #24
100017be:	02f6      	lsls	r6, r6, #11
100017c0:	027f      	lsls	r7, r7, #9
100017c2:	0080      	lsls	r0, r0, #2
100017c4:	615e      	str	r6, [r3, #20]
100017c6:	1808      	adds	r0, r1, r0
100017c8:	615f      	str	r7, [r3, #20]
100017ca:	619e      	str	r6, [r3, #24]
100017cc:	684b      	ldr	r3, [r1, #4]
100017ce:	421a      	tst	r2, r3
100017d0:	d1fc      	bne.n	100017cc <tft_begin+0x6c0>
100017d2:	2323      	movs	r3, #35	; 0x23
100017d4:	7003      	strb	r3, [r0, #0]
100017d6:	6868      	ldr	r0, [r5, #4]
100017d8:	2201      	movs	r2, #1
100017da:	0003      	movs	r3, r0
100017dc:	3310      	adds	r3, #16
100017de:	409a      	lsls	r2, r3
100017e0:	6829      	ldr	r1, [r5, #0]
100017e2:	7823      	ldrb	r3, [r4, #0]
100017e4:	2b00      	cmp	r3, #0
100017e6:	d1fc      	bne.n	100017e2 <tft_begin+0x6d6>
100017e8:	3301      	adds	r3, #1
100017ea:	7023      	strb	r3, [r4, #0]
100017ec:	2680      	movs	r6, #128	; 0x80
100017ee:	23d0      	movs	r3, #208	; 0xd0
100017f0:	2780      	movs	r7, #128	; 0x80
100017f2:	3004      	adds	r0, #4
100017f4:	061b      	lsls	r3, r3, #24
100017f6:	02f6      	lsls	r6, r6, #11
100017f8:	027f      	lsls	r7, r7, #9
100017fa:	0080      	lsls	r0, r0, #2
100017fc:	615e      	str	r6, [r3, #20]
100017fe:	1808      	adds	r0, r1, r0
10001800:	619f      	str	r7, [r3, #24]
10001802:	619e      	str	r6, [r3, #24]
10001804:	684b      	ldr	r3, [r1, #4]
10001806:	421a      	tst	r2, r3
10001808:	d1fc      	bne.n	10001804 <tft_begin+0x6f8>
1000180a:	23c1      	movs	r3, #193	; 0xc1
1000180c:	7003      	strb	r3, [r0, #0]
1000180e:	6868      	ldr	r0, [r5, #4]
10001810:	2201      	movs	r2, #1
10001812:	0003      	movs	r3, r0
10001814:	3310      	adds	r3, #16
10001816:	409a      	lsls	r2, r3
10001818:	6829      	ldr	r1, [r5, #0]
1000181a:	7823      	ldrb	r3, [r4, #0]
1000181c:	2b00      	cmp	r3, #0
1000181e:	d1fc      	bne.n	1000181a <tft_begin+0x70e>
10001820:	3301      	adds	r3, #1
10001822:	7023      	strb	r3, [r4, #0]
10001824:	2680      	movs	r6, #128	; 0x80
10001826:	23d0      	movs	r3, #208	; 0xd0
10001828:	2780      	movs	r7, #128	; 0x80
1000182a:	3004      	adds	r0, #4
1000182c:	061b      	lsls	r3, r3, #24
1000182e:	02f6      	lsls	r6, r6, #11
10001830:	027f      	lsls	r7, r7, #9
10001832:	0080      	lsls	r0, r0, #2
10001834:	615e      	str	r6, [r3, #20]
10001836:	1808      	adds	r0, r1, r0
10001838:	615f      	str	r7, [r3, #20]
1000183a:	619e      	str	r6, [r3, #24]
1000183c:	684b      	ldr	r3, [r1, #4]
1000183e:	421a      	tst	r2, r3
10001840:	d1fc      	bne.n	1000183c <tft_begin+0x730>
10001842:	2310      	movs	r3, #16
10001844:	7003      	strb	r3, [r0, #0]
10001846:	6868      	ldr	r0, [r5, #4]
10001848:	2201      	movs	r2, #1
1000184a:	0003      	movs	r3, r0
1000184c:	3310      	adds	r3, #16
1000184e:	409a      	lsls	r2, r3
10001850:	6829      	ldr	r1, [r5, #0]
10001852:	7823      	ldrb	r3, [r4, #0]
10001854:	2b00      	cmp	r3, #0
10001856:	d1fc      	bne.n	10001852 <tft_begin+0x746>
10001858:	3301      	adds	r3, #1
1000185a:	7023      	strb	r3, [r4, #0]
1000185c:	2680      	movs	r6, #128	; 0x80
1000185e:	23d0      	movs	r3, #208	; 0xd0
10001860:	2780      	movs	r7, #128	; 0x80
10001862:	3004      	adds	r0, #4
10001864:	061b      	lsls	r3, r3, #24
10001866:	02f6      	lsls	r6, r6, #11
10001868:	027f      	lsls	r7, r7, #9
1000186a:	0080      	lsls	r0, r0, #2
1000186c:	615e      	str	r6, [r3, #20]
1000186e:	1808      	adds	r0, r1, r0
10001870:	619f      	str	r7, [r3, #24]
10001872:	619e      	str	r6, [r3, #24]
10001874:	684b      	ldr	r3, [r1, #4]
10001876:	421a      	tst	r2, r3
10001878:	d1fc      	bne.n	10001874 <tft_begin+0x768>
1000187a:	23c5      	movs	r3, #197	; 0xc5
1000187c:	7003      	strb	r3, [r0, #0]
1000187e:	6868      	ldr	r0, [r5, #4]
10001880:	2201      	movs	r2, #1
10001882:	0003      	movs	r3, r0
10001884:	3310      	adds	r3, #16
10001886:	409a      	lsls	r2, r3
10001888:	6829      	ldr	r1, [r5, #0]
1000188a:	7823      	ldrb	r3, [r4, #0]
1000188c:	2b00      	cmp	r3, #0
1000188e:	d1fc      	bne.n	1000188a <tft_begin+0x77e>
10001890:	3301      	adds	r3, #1
10001892:	7023      	strb	r3, [r4, #0]
10001894:	2680      	movs	r6, #128	; 0x80
10001896:	23d0      	movs	r3, #208	; 0xd0
10001898:	2780      	movs	r7, #128	; 0x80
1000189a:	3004      	adds	r0, #4
1000189c:	061b      	lsls	r3, r3, #24
1000189e:	02f6      	lsls	r6, r6, #11
100018a0:	027f      	lsls	r7, r7, #9
100018a2:	0080      	lsls	r0, r0, #2
100018a4:	615e      	str	r6, [r3, #20]
100018a6:	1808      	adds	r0, r1, r0
100018a8:	615f      	str	r7, [r3, #20]
100018aa:	619e      	str	r6, [r3, #24]
100018ac:	684b      	ldr	r3, [r1, #4]
100018ae:	421a      	tst	r2, r3
100018b0:	d1fc      	bne.n	100018ac <tft_begin+0x7a0>
100018b2:	233e      	movs	r3, #62	; 0x3e
100018b4:	7003      	strb	r3, [r0, #0]
100018b6:	6868      	ldr	r0, [r5, #4]
100018b8:	2201      	movs	r2, #1
100018ba:	0003      	movs	r3, r0
100018bc:	3310      	adds	r3, #16
100018be:	409a      	lsls	r2, r3
100018c0:	6829      	ldr	r1, [r5, #0]
100018c2:	7823      	ldrb	r3, [r4, #0]
100018c4:	2b00      	cmp	r3, #0
100018c6:	d1fc      	bne.n	100018c2 <tft_begin+0x7b6>
100018c8:	3301      	adds	r3, #1
100018ca:	7023      	strb	r3, [r4, #0]
100018cc:	2680      	movs	r6, #128	; 0x80
100018ce:	23d0      	movs	r3, #208	; 0xd0
100018d0:	2780      	movs	r7, #128	; 0x80
100018d2:	3004      	adds	r0, #4
100018d4:	061b      	lsls	r3, r3, #24
100018d6:	02f6      	lsls	r6, r6, #11
100018d8:	027f      	lsls	r7, r7, #9
100018da:	0080      	lsls	r0, r0, #2
100018dc:	615e      	str	r6, [r3, #20]
100018de:	1808      	adds	r0, r1, r0
100018e0:	615f      	str	r7, [r3, #20]
100018e2:	619e      	str	r6, [r3, #24]
100018e4:	684b      	ldr	r3, [r1, #4]
100018e6:	421a      	tst	r2, r3
100018e8:	d1fc      	bne.n	100018e4 <tft_begin+0x7d8>
100018ea:	2328      	movs	r3, #40	; 0x28
100018ec:	7003      	strb	r3, [r0, #0]
100018ee:	6868      	ldr	r0, [r5, #4]
100018f0:	2201      	movs	r2, #1
100018f2:	0003      	movs	r3, r0
100018f4:	3310      	adds	r3, #16
100018f6:	409a      	lsls	r2, r3
100018f8:	6829      	ldr	r1, [r5, #0]
100018fa:	7823      	ldrb	r3, [r4, #0]
100018fc:	2b00      	cmp	r3, #0
100018fe:	d1fc      	bne.n	100018fa <tft_begin+0x7ee>
10001900:	3301      	adds	r3, #1
10001902:	7023      	strb	r3, [r4, #0]
10001904:	2680      	movs	r6, #128	; 0x80
10001906:	23d0      	movs	r3, #208	; 0xd0
10001908:	2780      	movs	r7, #128	; 0x80
1000190a:	3004      	adds	r0, #4
1000190c:	061b      	lsls	r3, r3, #24
1000190e:	02f6      	lsls	r6, r6, #11
10001910:	027f      	lsls	r7, r7, #9
10001912:	0080      	lsls	r0, r0, #2
10001914:	615e      	str	r6, [r3, #20]
10001916:	1808      	adds	r0, r1, r0
10001918:	619f      	str	r7, [r3, #24]
1000191a:	619e      	str	r6, [r3, #24]
1000191c:	684b      	ldr	r3, [r1, #4]
1000191e:	421a      	tst	r2, r3
10001920:	d1fc      	bne.n	1000191c <tft_begin+0x810>
10001922:	23c7      	movs	r3, #199	; 0xc7
10001924:	7003      	strb	r3, [r0, #0]
10001926:	6868      	ldr	r0, [r5, #4]
10001928:	2201      	movs	r2, #1
1000192a:	0003      	movs	r3, r0
1000192c:	3310      	adds	r3, #16
1000192e:	409a      	lsls	r2, r3
10001930:	6829      	ldr	r1, [r5, #0]
10001932:	7823      	ldrb	r3, [r4, #0]
10001934:	2b00      	cmp	r3, #0
10001936:	d1fc      	bne.n	10001932 <tft_begin+0x826>
10001938:	3301      	adds	r3, #1
1000193a:	7023      	strb	r3, [r4, #0]
1000193c:	2680      	movs	r6, #128	; 0x80
1000193e:	23d0      	movs	r3, #208	; 0xd0
10001940:	2780      	movs	r7, #128	; 0x80
10001942:	3004      	adds	r0, #4
10001944:	061b      	lsls	r3, r3, #24
10001946:	02f6      	lsls	r6, r6, #11
10001948:	027f      	lsls	r7, r7, #9
1000194a:	0080      	lsls	r0, r0, #2
1000194c:	615e      	str	r6, [r3, #20]
1000194e:	1808      	adds	r0, r1, r0
10001950:	615f      	str	r7, [r3, #20]
10001952:	619e      	str	r6, [r3, #24]
10001954:	684b      	ldr	r3, [r1, #4]
10001956:	421a      	tst	r2, r3
10001958:	d1fc      	bne.n	10001954 <tft_begin+0x848>
1000195a:	2386      	movs	r3, #134	; 0x86
1000195c:	7003      	strb	r3, [r0, #0]
1000195e:	6868      	ldr	r0, [r5, #4]
10001960:	2201      	movs	r2, #1
10001962:	0003      	movs	r3, r0
10001964:	3310      	adds	r3, #16
10001966:	409a      	lsls	r2, r3
10001968:	6829      	ldr	r1, [r5, #0]
1000196a:	7823      	ldrb	r3, [r4, #0]
1000196c:	2b00      	cmp	r3, #0
1000196e:	d1fc      	bne.n	1000196a <tft_begin+0x85e>
10001970:	3301      	adds	r3, #1
10001972:	7023      	strb	r3, [r4, #0]
10001974:	2680      	movs	r6, #128	; 0x80
10001976:	23d0      	movs	r3, #208	; 0xd0
10001978:	2780      	movs	r7, #128	; 0x80
1000197a:	3004      	adds	r0, #4
1000197c:	061b      	lsls	r3, r3, #24
1000197e:	02f6      	lsls	r6, r6, #11
10001980:	027f      	lsls	r7, r7, #9
10001982:	0080      	lsls	r0, r0, #2
10001984:	615e      	str	r6, [r3, #20]
10001986:	1808      	adds	r0, r1, r0
10001988:	619f      	str	r7, [r3, #24]
1000198a:	619e      	str	r6, [r3, #24]
1000198c:	684b      	ldr	r3, [r1, #4]
1000198e:	421a      	tst	r2, r3
10001990:	d1fc      	bne.n	1000198c <tft_begin+0x880>
10001992:	2336      	movs	r3, #54	; 0x36
10001994:	7003      	strb	r3, [r0, #0]
10001996:	6868      	ldr	r0, [r5, #4]
10001998:	2201      	movs	r2, #1
1000199a:	0003      	movs	r3, r0
1000199c:	3310      	adds	r3, #16
1000199e:	409a      	lsls	r2, r3
100019a0:	6829      	ldr	r1, [r5, #0]
100019a2:	7823      	ldrb	r3, [r4, #0]
100019a4:	2b00      	cmp	r3, #0
100019a6:	d1fc      	bne.n	100019a2 <tft_begin+0x896>
100019a8:	3301      	adds	r3, #1
100019aa:	7023      	strb	r3, [r4, #0]
100019ac:	2680      	movs	r6, #128	; 0x80
100019ae:	23d0      	movs	r3, #208	; 0xd0
100019b0:	2780      	movs	r7, #128	; 0x80
100019b2:	3004      	adds	r0, #4
100019b4:	061b      	lsls	r3, r3, #24
100019b6:	02f6      	lsls	r6, r6, #11
100019b8:	027f      	lsls	r7, r7, #9
100019ba:	0080      	lsls	r0, r0, #2
100019bc:	615e      	str	r6, [r3, #20]
100019be:	1808      	adds	r0, r1, r0
100019c0:	615f      	str	r7, [r3, #20]
100019c2:	619e      	str	r6, [r3, #24]
100019c4:	684b      	ldr	r3, [r1, #4]
100019c6:	421a      	tst	r2, r3
100019c8:	d1fc      	bne.n	100019c4 <tft_begin+0x8b8>
100019ca:	2348      	movs	r3, #72	; 0x48
100019cc:	7003      	strb	r3, [r0, #0]
100019ce:	6868      	ldr	r0, [r5, #4]
100019d0:	2201      	movs	r2, #1
100019d2:	0003      	movs	r3, r0
100019d4:	3310      	adds	r3, #16
100019d6:	409a      	lsls	r2, r3
100019d8:	6829      	ldr	r1, [r5, #0]
100019da:	7823      	ldrb	r3, [r4, #0]
100019dc:	2b00      	cmp	r3, #0
100019de:	d1fc      	bne.n	100019da <tft_begin+0x8ce>
100019e0:	3301      	adds	r3, #1
100019e2:	7023      	strb	r3, [r4, #0]
100019e4:	2680      	movs	r6, #128	; 0x80
100019e6:	23d0      	movs	r3, #208	; 0xd0
100019e8:	2780      	movs	r7, #128	; 0x80
100019ea:	3004      	adds	r0, #4
100019ec:	061b      	lsls	r3, r3, #24
100019ee:	02f6      	lsls	r6, r6, #11
100019f0:	027f      	lsls	r7, r7, #9
100019f2:	0080      	lsls	r0, r0, #2
100019f4:	615e      	str	r6, [r3, #20]
100019f6:	1808      	adds	r0, r1, r0
100019f8:	619f      	str	r7, [r3, #24]
100019fa:	619e      	str	r6, [r3, #24]
100019fc:	684b      	ldr	r3, [r1, #4]
100019fe:	421a      	tst	r2, r3
10001a00:	d1fc      	bne.n	100019fc <tft_begin+0x8f0>
10001a02:	233a      	movs	r3, #58	; 0x3a
10001a04:	7003      	strb	r3, [r0, #0]
10001a06:	6868      	ldr	r0, [r5, #4]
10001a08:	2201      	movs	r2, #1
10001a0a:	0003      	movs	r3, r0
10001a0c:	3310      	adds	r3, #16
10001a0e:	409a      	lsls	r2, r3
10001a10:	6829      	ldr	r1, [r5, #0]
10001a12:	7823      	ldrb	r3, [r4, #0]
10001a14:	2b00      	cmp	r3, #0
10001a16:	d1fc      	bne.n	10001a12 <tft_begin+0x906>
10001a18:	3301      	adds	r3, #1
10001a1a:	7023      	strb	r3, [r4, #0]
10001a1c:	2680      	movs	r6, #128	; 0x80
10001a1e:	23d0      	movs	r3, #208	; 0xd0
10001a20:	2780      	movs	r7, #128	; 0x80
10001a22:	3004      	adds	r0, #4
10001a24:	061b      	lsls	r3, r3, #24
10001a26:	02f6      	lsls	r6, r6, #11
10001a28:	027f      	lsls	r7, r7, #9
10001a2a:	0080      	lsls	r0, r0, #2
10001a2c:	615e      	str	r6, [r3, #20]
10001a2e:	1808      	adds	r0, r1, r0
10001a30:	615f      	str	r7, [r3, #20]
10001a32:	619e      	str	r6, [r3, #24]
10001a34:	684b      	ldr	r3, [r1, #4]
10001a36:	421a      	tst	r2, r3
10001a38:	d1fc      	bne.n	10001a34 <tft_begin+0x928>
10001a3a:	2355      	movs	r3, #85	; 0x55
10001a3c:	7003      	strb	r3, [r0, #0]
10001a3e:	6868      	ldr	r0, [r5, #4]
10001a40:	2201      	movs	r2, #1
10001a42:	0003      	movs	r3, r0
10001a44:	3310      	adds	r3, #16
10001a46:	409a      	lsls	r2, r3
10001a48:	6829      	ldr	r1, [r5, #0]
10001a4a:	7823      	ldrb	r3, [r4, #0]
10001a4c:	2b00      	cmp	r3, #0
10001a4e:	d1fc      	bne.n	10001a4a <tft_begin+0x93e>
10001a50:	3301      	adds	r3, #1
10001a52:	7023      	strb	r3, [r4, #0]
10001a54:	2680      	movs	r6, #128	; 0x80
10001a56:	23d0      	movs	r3, #208	; 0xd0
10001a58:	2780      	movs	r7, #128	; 0x80
10001a5a:	3004      	adds	r0, #4
10001a5c:	061b      	lsls	r3, r3, #24
10001a5e:	02f6      	lsls	r6, r6, #11
10001a60:	027f      	lsls	r7, r7, #9
10001a62:	0080      	lsls	r0, r0, #2
10001a64:	615e      	str	r6, [r3, #20]
10001a66:	1808      	adds	r0, r1, r0
10001a68:	619f      	str	r7, [r3, #24]
10001a6a:	619e      	str	r6, [r3, #24]
10001a6c:	684b      	ldr	r3, [r1, #4]
10001a6e:	421a      	tst	r2, r3
10001a70:	d1fc      	bne.n	10001a6c <tft_begin+0x960>
10001a72:	23b1      	movs	r3, #177	; 0xb1
10001a74:	7003      	strb	r3, [r0, #0]
10001a76:	6868      	ldr	r0, [r5, #4]
10001a78:	2201      	movs	r2, #1
10001a7a:	0003      	movs	r3, r0
10001a7c:	3310      	adds	r3, #16
10001a7e:	409a      	lsls	r2, r3
10001a80:	6829      	ldr	r1, [r5, #0]
10001a82:	7823      	ldrb	r3, [r4, #0]
10001a84:	2b00      	cmp	r3, #0
10001a86:	d1fc      	bne.n	10001a82 <tft_begin+0x976>
10001a88:	3301      	adds	r3, #1
10001a8a:	7023      	strb	r3, [r4, #0]
10001a8c:	2680      	movs	r6, #128	; 0x80
10001a8e:	23d0      	movs	r3, #208	; 0xd0
10001a90:	2780      	movs	r7, #128	; 0x80
10001a92:	061b      	lsls	r3, r3, #24
10001a94:	02f6      	lsls	r6, r6, #11
10001a96:	027f      	lsls	r7, r7, #9
10001a98:	3004      	adds	r0, #4
10001a9a:	615e      	str	r6, [r3, #20]
10001a9c:	615f      	str	r7, [r3, #20]
10001a9e:	619e      	str	r6, [r3, #24]
10001aa0:	0086      	lsls	r6, r0, #2
10001aa2:	198e      	adds	r6, r1, r6
10001aa4:	0010      	movs	r0, r2
10001aa6:	684b      	ldr	r3, [r1, #4]
10001aa8:	4018      	ands	r0, r3
10001aaa:	421a      	tst	r2, r3
10001aac:	d1fa      	bne.n	10001aa4 <tft_begin+0x998>
10001aae:	7030      	strb	r0, [r6, #0]
10001ab0:	6868      	ldr	r0, [r5, #4]
10001ab2:	2201      	movs	r2, #1
10001ab4:	0003      	movs	r3, r0
10001ab6:	3310      	adds	r3, #16
10001ab8:	409a      	lsls	r2, r3
10001aba:	6829      	ldr	r1, [r5, #0]
10001abc:	7823      	ldrb	r3, [r4, #0]
10001abe:	2b00      	cmp	r3, #0
10001ac0:	d1fc      	bne.n	10001abc <tft_begin+0x9b0>
10001ac2:	3301      	adds	r3, #1
10001ac4:	7023      	strb	r3, [r4, #0]
10001ac6:	2680      	movs	r6, #128	; 0x80
10001ac8:	23d0      	movs	r3, #208	; 0xd0
10001aca:	2780      	movs	r7, #128	; 0x80
10001acc:	3004      	adds	r0, #4
10001ace:	061b      	lsls	r3, r3, #24
10001ad0:	02f6      	lsls	r6, r6, #11
10001ad2:	027f      	lsls	r7, r7, #9
10001ad4:	0080      	lsls	r0, r0, #2
10001ad6:	615e      	str	r6, [r3, #20]
10001ad8:	1808      	adds	r0, r1, r0
10001ada:	615f      	str	r7, [r3, #20]
10001adc:	619e      	str	r6, [r3, #24]
10001ade:	684b      	ldr	r3, [r1, #4]
10001ae0:	421a      	tst	r2, r3
10001ae2:	d1fc      	bne.n	10001ade <tft_begin+0x9d2>
10001ae4:	2318      	movs	r3, #24
10001ae6:	7003      	strb	r3, [r0, #0]
10001ae8:	6868      	ldr	r0, [r5, #4]
10001aea:	2201      	movs	r2, #1
10001aec:	0003      	movs	r3, r0
10001aee:	3310      	adds	r3, #16
10001af0:	409a      	lsls	r2, r3
10001af2:	6829      	ldr	r1, [r5, #0]
10001af4:	7823      	ldrb	r3, [r4, #0]
10001af6:	2b00      	cmp	r3, #0
10001af8:	d1fc      	bne.n	10001af4 <tft_begin+0x9e8>
10001afa:	3301      	adds	r3, #1
10001afc:	7023      	strb	r3, [r4, #0]
10001afe:	2680      	movs	r6, #128	; 0x80
10001b00:	23d0      	movs	r3, #208	; 0xd0
10001b02:	2780      	movs	r7, #128	; 0x80
10001b04:	3004      	adds	r0, #4
10001b06:	061b      	lsls	r3, r3, #24
10001b08:	02f6      	lsls	r6, r6, #11
10001b0a:	027f      	lsls	r7, r7, #9
10001b0c:	0080      	lsls	r0, r0, #2
10001b0e:	615e      	str	r6, [r3, #20]
10001b10:	1808      	adds	r0, r1, r0
10001b12:	619f      	str	r7, [r3, #24]
10001b14:	619e      	str	r6, [r3, #24]
10001b16:	684b      	ldr	r3, [r1, #4]
10001b18:	421a      	tst	r2, r3
10001b1a:	d1fc      	bne.n	10001b16 <tft_begin+0xa0a>
10001b1c:	23b6      	movs	r3, #182	; 0xb6
10001b1e:	7003      	strb	r3, [r0, #0]
10001b20:	6868      	ldr	r0, [r5, #4]
10001b22:	2201      	movs	r2, #1
10001b24:	0003      	movs	r3, r0
10001b26:	3310      	adds	r3, #16
10001b28:	409a      	lsls	r2, r3
10001b2a:	6829      	ldr	r1, [r5, #0]
10001b2c:	7823      	ldrb	r3, [r4, #0]
10001b2e:	2b00      	cmp	r3, #0
10001b30:	d1fc      	bne.n	10001b2c <tft_begin+0xa20>
10001b32:	3301      	adds	r3, #1
10001b34:	7023      	strb	r3, [r4, #0]
10001b36:	2680      	movs	r6, #128	; 0x80
10001b38:	23d0      	movs	r3, #208	; 0xd0
10001b3a:	2780      	movs	r7, #128	; 0x80
10001b3c:	3004      	adds	r0, #4
10001b3e:	061b      	lsls	r3, r3, #24
10001b40:	02f6      	lsls	r6, r6, #11
10001b42:	027f      	lsls	r7, r7, #9
10001b44:	0080      	lsls	r0, r0, #2
10001b46:	615e      	str	r6, [r3, #20]
10001b48:	1808      	adds	r0, r1, r0
10001b4a:	615f      	str	r7, [r3, #20]
10001b4c:	619e      	str	r6, [r3, #24]
10001b4e:	684b      	ldr	r3, [r1, #4]
10001b50:	421a      	tst	r2, r3
10001b52:	d1fc      	bne.n	10001b4e <tft_begin+0xa42>
10001b54:	2308      	movs	r3, #8
10001b56:	7003      	strb	r3, [r0, #0]
10001b58:	6868      	ldr	r0, [r5, #4]
10001b5a:	2201      	movs	r2, #1
10001b5c:	0003      	movs	r3, r0
10001b5e:	3310      	adds	r3, #16
10001b60:	409a      	lsls	r2, r3
10001b62:	6829      	ldr	r1, [r5, #0]
10001b64:	7823      	ldrb	r3, [r4, #0]
10001b66:	2b00      	cmp	r3, #0
10001b68:	d1fc      	bne.n	10001b64 <tft_begin+0xa58>
10001b6a:	3301      	adds	r3, #1
10001b6c:	7023      	strb	r3, [r4, #0]
10001b6e:	2680      	movs	r6, #128	; 0x80
10001b70:	23d0      	movs	r3, #208	; 0xd0
10001b72:	2780      	movs	r7, #128	; 0x80
10001b74:	3004      	adds	r0, #4
10001b76:	061b      	lsls	r3, r3, #24
10001b78:	02f6      	lsls	r6, r6, #11
10001b7a:	027f      	lsls	r7, r7, #9
10001b7c:	0080      	lsls	r0, r0, #2
10001b7e:	615e      	str	r6, [r3, #20]
10001b80:	1808      	adds	r0, r1, r0
10001b82:	615f      	str	r7, [r3, #20]
10001b84:	619e      	str	r6, [r3, #24]
10001b86:	684b      	ldr	r3, [r1, #4]
10001b88:	421a      	tst	r2, r3
10001b8a:	d1fc      	bne.n	10001b86 <tft_begin+0xa7a>
10001b8c:	2382      	movs	r3, #130	; 0x82
10001b8e:	7003      	strb	r3, [r0, #0]
10001b90:	6868      	ldr	r0, [r5, #4]
10001b92:	2201      	movs	r2, #1
10001b94:	0003      	movs	r3, r0
10001b96:	3310      	adds	r3, #16
10001b98:	409a      	lsls	r2, r3
10001b9a:	6829      	ldr	r1, [r5, #0]
10001b9c:	7823      	ldrb	r3, [r4, #0]
10001b9e:	2b00      	cmp	r3, #0
10001ba0:	d1fc      	bne.n	10001b9c <tft_begin+0xa90>
10001ba2:	3301      	adds	r3, #1
10001ba4:	7023      	strb	r3, [r4, #0]
10001ba6:	2680      	movs	r6, #128	; 0x80
10001ba8:	23d0      	movs	r3, #208	; 0xd0
10001baa:	2780      	movs	r7, #128	; 0x80
10001bac:	3004      	adds	r0, #4
10001bae:	061b      	lsls	r3, r3, #24
10001bb0:	02f6      	lsls	r6, r6, #11
10001bb2:	027f      	lsls	r7, r7, #9
10001bb4:	0080      	lsls	r0, r0, #2
10001bb6:	615e      	str	r6, [r3, #20]
10001bb8:	1808      	adds	r0, r1, r0
10001bba:	615f      	str	r7, [r3, #20]
10001bbc:	619e      	str	r6, [r3, #24]
10001bbe:	684b      	ldr	r3, [r1, #4]
10001bc0:	421a      	tst	r2, r3
10001bc2:	d1fc      	bne.n	10001bbe <tft_begin+0xab2>
10001bc4:	2327      	movs	r3, #39	; 0x27
10001bc6:	7003      	strb	r3, [r0, #0]
10001bc8:	6868      	ldr	r0, [r5, #4]
10001bca:	2201      	movs	r2, #1
10001bcc:	0003      	movs	r3, r0
10001bce:	3310      	adds	r3, #16
10001bd0:	409a      	lsls	r2, r3
10001bd2:	6829      	ldr	r1, [r5, #0]
10001bd4:	7823      	ldrb	r3, [r4, #0]
10001bd6:	2b00      	cmp	r3, #0
10001bd8:	d1fc      	bne.n	10001bd4 <tft_begin+0xac8>
10001bda:	3301      	adds	r3, #1
10001bdc:	7023      	strb	r3, [r4, #0]
10001bde:	2680      	movs	r6, #128	; 0x80
10001be0:	23d0      	movs	r3, #208	; 0xd0
10001be2:	2780      	movs	r7, #128	; 0x80
10001be4:	3004      	adds	r0, #4
10001be6:	061b      	lsls	r3, r3, #24
10001be8:	02f6      	lsls	r6, r6, #11
10001bea:	027f      	lsls	r7, r7, #9
10001bec:	0080      	lsls	r0, r0, #2
10001bee:	615e      	str	r6, [r3, #20]
10001bf0:	1808      	adds	r0, r1, r0
10001bf2:	619f      	str	r7, [r3, #24]
10001bf4:	619e      	str	r6, [r3, #24]
10001bf6:	684b      	ldr	r3, [r1, #4]
10001bf8:	421a      	tst	r2, r3
10001bfa:	d1fc      	bne.n	10001bf6 <tft_begin+0xaea>
10001bfc:	23f2      	movs	r3, #242	; 0xf2
10001bfe:	7003      	strb	r3, [r0, #0]
10001c00:	6868      	ldr	r0, [r5, #4]
10001c02:	2201      	movs	r2, #1
10001c04:	0003      	movs	r3, r0
10001c06:	3310      	adds	r3, #16
10001c08:	409a      	lsls	r2, r3
10001c0a:	6829      	ldr	r1, [r5, #0]
10001c0c:	7823      	ldrb	r3, [r4, #0]
10001c0e:	2b00      	cmp	r3, #0
10001c10:	d1fc      	bne.n	10001c0c <tft_begin+0xb00>
10001c12:	3301      	adds	r3, #1
10001c14:	7023      	strb	r3, [r4, #0]
10001c16:	2680      	movs	r6, #128	; 0x80
10001c18:	23d0      	movs	r3, #208	; 0xd0
10001c1a:	2780      	movs	r7, #128	; 0x80
10001c1c:	061b      	lsls	r3, r3, #24
10001c1e:	02f6      	lsls	r6, r6, #11
10001c20:	027f      	lsls	r7, r7, #9
10001c22:	3004      	adds	r0, #4
10001c24:	615e      	str	r6, [r3, #20]
10001c26:	615f      	str	r7, [r3, #20]
10001c28:	619e      	str	r6, [r3, #24]
10001c2a:	0086      	lsls	r6, r0, #2
10001c2c:	198e      	adds	r6, r1, r6
10001c2e:	0010      	movs	r0, r2
10001c30:	684b      	ldr	r3, [r1, #4]
10001c32:	4018      	ands	r0, r3
10001c34:	421a      	tst	r2, r3
10001c36:	d1fa      	bne.n	10001c2e <tft_begin+0xb22>
10001c38:	7030      	strb	r0, [r6, #0]
10001c3a:	6868      	ldr	r0, [r5, #4]
10001c3c:	2201      	movs	r2, #1
10001c3e:	0003      	movs	r3, r0
10001c40:	3310      	adds	r3, #16
10001c42:	409a      	lsls	r2, r3
10001c44:	6829      	ldr	r1, [r5, #0]
10001c46:	7823      	ldrb	r3, [r4, #0]
10001c48:	2b00      	cmp	r3, #0
10001c4a:	d1fc      	bne.n	10001c46 <tft_begin+0xb3a>
10001c4c:	3301      	adds	r3, #1
10001c4e:	7023      	strb	r3, [r4, #0]
10001c50:	2680      	movs	r6, #128	; 0x80
10001c52:	23d0      	movs	r3, #208	; 0xd0
10001c54:	2780      	movs	r7, #128	; 0x80
10001c56:	3004      	adds	r0, #4
10001c58:	061b      	lsls	r3, r3, #24
10001c5a:	02f6      	lsls	r6, r6, #11
10001c5c:	027f      	lsls	r7, r7, #9
10001c5e:	0080      	lsls	r0, r0, #2
10001c60:	615e      	str	r6, [r3, #20]
10001c62:	1808      	adds	r0, r1, r0
10001c64:	619f      	str	r7, [r3, #24]
10001c66:	619e      	str	r6, [r3, #24]
10001c68:	684b      	ldr	r3, [r1, #4]
10001c6a:	421a      	tst	r2, r3
10001c6c:	d1fc      	bne.n	10001c68 <tft_begin+0xb5c>
10001c6e:	2326      	movs	r3, #38	; 0x26
10001c70:	7003      	strb	r3, [r0, #0]
10001c72:	6868      	ldr	r0, [r5, #4]
10001c74:	2201      	movs	r2, #1
10001c76:	0003      	movs	r3, r0
10001c78:	3310      	adds	r3, #16
10001c7a:	409a      	lsls	r2, r3
10001c7c:	6829      	ldr	r1, [r5, #0]
10001c7e:	7823      	ldrb	r3, [r4, #0]
10001c80:	2b00      	cmp	r3, #0
10001c82:	d1fc      	bne.n	10001c7e <tft_begin+0xb72>
10001c84:	3301      	adds	r3, #1
10001c86:	7023      	strb	r3, [r4, #0]
10001c88:	2680      	movs	r6, #128	; 0x80
10001c8a:	23d0      	movs	r3, #208	; 0xd0
10001c8c:	2780      	movs	r7, #128	; 0x80
10001c8e:	3004      	adds	r0, #4
10001c90:	061b      	lsls	r3, r3, #24
10001c92:	02f6      	lsls	r6, r6, #11
10001c94:	027f      	lsls	r7, r7, #9
10001c96:	0080      	lsls	r0, r0, #2
10001c98:	615e      	str	r6, [r3, #20]
10001c9a:	1808      	adds	r0, r1, r0
10001c9c:	615f      	str	r7, [r3, #20]
10001c9e:	619e      	str	r6, [r3, #24]
10001ca0:	684b      	ldr	r3, [r1, #4]
10001ca2:	421a      	tst	r2, r3
10001ca4:	d1fc      	bne.n	10001ca0 <tft_begin+0xb94>
10001ca6:	2201      	movs	r2, #1
10001ca8:	7002      	strb	r2, [r0, #0]
10001caa:	6868      	ldr	r0, [r5, #4]
10001cac:	6829      	ldr	r1, [r5, #0]
10001cae:	0003      	movs	r3, r0
10001cb0:	3310      	adds	r3, #16
10001cb2:	409a      	lsls	r2, r3
10001cb4:	7823      	ldrb	r3, [r4, #0]
10001cb6:	2b00      	cmp	r3, #0
10001cb8:	d1fc      	bne.n	10001cb4 <tft_begin+0xba8>
10001cba:	3301      	adds	r3, #1
10001cbc:	7023      	strb	r3, [r4, #0]
10001cbe:	2680      	movs	r6, #128	; 0x80
10001cc0:	23d0      	movs	r3, #208	; 0xd0
10001cc2:	2780      	movs	r7, #128	; 0x80
10001cc4:	3004      	adds	r0, #4
10001cc6:	061b      	lsls	r3, r3, #24
10001cc8:	02f6      	lsls	r6, r6, #11
10001cca:	027f      	lsls	r7, r7, #9
10001ccc:	0080      	lsls	r0, r0, #2
10001cce:	615e      	str	r6, [r3, #20]
10001cd0:	1808      	adds	r0, r1, r0
10001cd2:	619f      	str	r7, [r3, #24]
10001cd4:	619e      	str	r6, [r3, #24]
10001cd6:	684b      	ldr	r3, [r1, #4]
10001cd8:	421a      	tst	r2, r3
10001cda:	d1fc      	bne.n	10001cd6 <tft_begin+0xbca>
10001cdc:	23e0      	movs	r3, #224	; 0xe0
10001cde:	7003      	strb	r3, [r0, #0]
10001ce0:	6868      	ldr	r0, [r5, #4]
10001ce2:	2201      	movs	r2, #1
10001ce4:	0003      	movs	r3, r0
10001ce6:	3310      	adds	r3, #16
10001ce8:	409a      	lsls	r2, r3
10001cea:	6829      	ldr	r1, [r5, #0]
10001cec:	7823      	ldrb	r3, [r4, #0]
10001cee:	2b00      	cmp	r3, #0
10001cf0:	d1fc      	bne.n	10001cec <tft_begin+0xbe0>
10001cf2:	3301      	adds	r3, #1
10001cf4:	7023      	strb	r3, [r4, #0]
10001cf6:	2680      	movs	r6, #128	; 0x80
10001cf8:	23d0      	movs	r3, #208	; 0xd0
10001cfa:	2780      	movs	r7, #128	; 0x80
10001cfc:	3004      	adds	r0, #4
10001cfe:	061b      	lsls	r3, r3, #24
10001d00:	02f6      	lsls	r6, r6, #11
10001d02:	027f      	lsls	r7, r7, #9
10001d04:	0080      	lsls	r0, r0, #2
10001d06:	615e      	str	r6, [r3, #20]
10001d08:	1808      	adds	r0, r1, r0
10001d0a:	615f      	str	r7, [r3, #20]
10001d0c:	619e      	str	r6, [r3, #24]
10001d0e:	684b      	ldr	r3, [r1, #4]
10001d10:	421a      	tst	r2, r3
10001d12:	d1fc      	bne.n	10001d0e <tft_begin+0xc02>
10001d14:	230f      	movs	r3, #15
10001d16:	7003      	strb	r3, [r0, #0]
10001d18:	6868      	ldr	r0, [r5, #4]
10001d1a:	2201      	movs	r2, #1
10001d1c:	0003      	movs	r3, r0
10001d1e:	3310      	adds	r3, #16
10001d20:	409a      	lsls	r2, r3
10001d22:	6829      	ldr	r1, [r5, #0]
10001d24:	7823      	ldrb	r3, [r4, #0]
10001d26:	2b00      	cmp	r3, #0
10001d28:	d1fc      	bne.n	10001d24 <tft_begin+0xc18>
10001d2a:	3301      	adds	r3, #1
10001d2c:	7023      	strb	r3, [r4, #0]
10001d2e:	2680      	movs	r6, #128	; 0x80
10001d30:	23d0      	movs	r3, #208	; 0xd0
10001d32:	2780      	movs	r7, #128	; 0x80
10001d34:	3004      	adds	r0, #4
10001d36:	061b      	lsls	r3, r3, #24
10001d38:	02f6      	lsls	r6, r6, #11
10001d3a:	027f      	lsls	r7, r7, #9
10001d3c:	0080      	lsls	r0, r0, #2
10001d3e:	615e      	str	r6, [r3, #20]
10001d40:	1808      	adds	r0, r1, r0
10001d42:	615f      	str	r7, [r3, #20]
10001d44:	619e      	str	r6, [r3, #24]
10001d46:	684b      	ldr	r3, [r1, #4]
10001d48:	421a      	tst	r2, r3
10001d4a:	d1fc      	bne.n	10001d46 <tft_begin+0xc3a>
10001d4c:	2331      	movs	r3, #49	; 0x31
10001d4e:	7003      	strb	r3, [r0, #0]
10001d50:	6868      	ldr	r0, [r5, #4]
10001d52:	2201      	movs	r2, #1
10001d54:	0003      	movs	r3, r0
10001d56:	3310      	adds	r3, #16
10001d58:	409a      	lsls	r2, r3
10001d5a:	6829      	ldr	r1, [r5, #0]
10001d5c:	7823      	ldrb	r3, [r4, #0]
10001d5e:	2b00      	cmp	r3, #0
10001d60:	d1fc      	bne.n	10001d5c <tft_begin+0xc50>
10001d62:	3301      	adds	r3, #1
10001d64:	7023      	strb	r3, [r4, #0]
10001d66:	2680      	movs	r6, #128	; 0x80
10001d68:	23d0      	movs	r3, #208	; 0xd0
10001d6a:	2780      	movs	r7, #128	; 0x80
10001d6c:	3004      	adds	r0, #4
10001d6e:	061b      	lsls	r3, r3, #24
10001d70:	02f6      	lsls	r6, r6, #11
10001d72:	027f      	lsls	r7, r7, #9
10001d74:	0080      	lsls	r0, r0, #2
10001d76:	615e      	str	r6, [r3, #20]
10001d78:	1808      	adds	r0, r1, r0
10001d7a:	615f      	str	r7, [r3, #20]
10001d7c:	619e      	str	r6, [r3, #24]
10001d7e:	684b      	ldr	r3, [r1, #4]
10001d80:	421a      	tst	r2, r3
10001d82:	d1fc      	bne.n	10001d7e <tft_begin+0xc72>
10001d84:	232b      	movs	r3, #43	; 0x2b
10001d86:	7003      	strb	r3, [r0, #0]
10001d88:	6868      	ldr	r0, [r5, #4]
10001d8a:	2201      	movs	r2, #1
10001d8c:	0003      	movs	r3, r0
10001d8e:	3310      	adds	r3, #16
10001d90:	409a      	lsls	r2, r3
10001d92:	6829      	ldr	r1, [r5, #0]
10001d94:	7823      	ldrb	r3, [r4, #0]
10001d96:	2b00      	cmp	r3, #0
10001d98:	d1fc      	bne.n	10001d94 <tft_begin+0xc88>
10001d9a:	3301      	adds	r3, #1
10001d9c:	7023      	strb	r3, [r4, #0]
10001d9e:	2680      	movs	r6, #128	; 0x80
10001da0:	23d0      	movs	r3, #208	; 0xd0
10001da2:	2780      	movs	r7, #128	; 0x80
10001da4:	3004      	adds	r0, #4
10001da6:	061b      	lsls	r3, r3, #24
10001da8:	02f6      	lsls	r6, r6, #11
10001daa:	027f      	lsls	r7, r7, #9
10001dac:	0080      	lsls	r0, r0, #2
10001dae:	615e      	str	r6, [r3, #20]
10001db0:	1808      	adds	r0, r1, r0
10001db2:	615f      	str	r7, [r3, #20]
10001db4:	619e      	str	r6, [r3, #24]
10001db6:	684b      	ldr	r3, [r1, #4]
10001db8:	421a      	tst	r2, r3
10001dba:	d1fc      	bne.n	10001db6 <tft_begin+0xcaa>
10001dbc:	230c      	movs	r3, #12
10001dbe:	7003      	strb	r3, [r0, #0]
10001dc0:	6868      	ldr	r0, [r5, #4]
10001dc2:	2201      	movs	r2, #1
10001dc4:	0003      	movs	r3, r0
10001dc6:	3310      	adds	r3, #16
10001dc8:	409a      	lsls	r2, r3
10001dca:	6829      	ldr	r1, [r5, #0]
10001dcc:	7823      	ldrb	r3, [r4, #0]
10001dce:	2b00      	cmp	r3, #0
10001dd0:	d1fc      	bne.n	10001dcc <tft_begin+0xcc0>
10001dd2:	3301      	adds	r3, #1
10001dd4:	7023      	strb	r3, [r4, #0]
10001dd6:	2680      	movs	r6, #128	; 0x80
10001dd8:	23d0      	movs	r3, #208	; 0xd0
10001dda:	2780      	movs	r7, #128	; 0x80
10001ddc:	3004      	adds	r0, #4
10001dde:	061b      	lsls	r3, r3, #24
10001de0:	02f6      	lsls	r6, r6, #11
10001de2:	027f      	lsls	r7, r7, #9
10001de4:	0080      	lsls	r0, r0, #2
10001de6:	615e      	str	r6, [r3, #20]
10001de8:	1808      	adds	r0, r1, r0
10001dea:	615f      	str	r7, [r3, #20]
10001dec:	619e      	str	r6, [r3, #24]
10001dee:	684b      	ldr	r3, [r1, #4]
10001df0:	421a      	tst	r2, r3
10001df2:	d1fc      	bne.n	10001dee <tft_begin+0xce2>
10001df4:	230e      	movs	r3, #14
10001df6:	7003      	strb	r3, [r0, #0]
10001df8:	6868      	ldr	r0, [r5, #4]
10001dfa:	2201      	movs	r2, #1
10001dfc:	0003      	movs	r3, r0
10001dfe:	3310      	adds	r3, #16
10001e00:	409a      	lsls	r2, r3
10001e02:	6829      	ldr	r1, [r5, #0]
10001e04:	7823      	ldrb	r3, [r4, #0]
10001e06:	2b00      	cmp	r3, #0
10001e08:	d1fc      	bne.n	10001e04 <tft_begin+0xcf8>
10001e0a:	3301      	adds	r3, #1
10001e0c:	7023      	strb	r3, [r4, #0]
10001e0e:	2680      	movs	r6, #128	; 0x80
10001e10:	23d0      	movs	r3, #208	; 0xd0
10001e12:	2780      	movs	r7, #128	; 0x80
10001e14:	3004      	adds	r0, #4
10001e16:	061b      	lsls	r3, r3, #24
10001e18:	02f6      	lsls	r6, r6, #11
10001e1a:	027f      	lsls	r7, r7, #9
10001e1c:	0080      	lsls	r0, r0, #2
10001e1e:	615e      	str	r6, [r3, #20]
10001e20:	1808      	adds	r0, r1, r0
10001e22:	615f      	str	r7, [r3, #20]
10001e24:	619e      	str	r6, [r3, #24]
10001e26:	684b      	ldr	r3, [r1, #4]
10001e28:	421a      	tst	r2, r3
10001e2a:	d1fc      	bne.n	10001e26 <tft_begin+0xd1a>
10001e2c:	2308      	movs	r3, #8
10001e2e:	7003      	strb	r3, [r0, #0]
10001e30:	6868      	ldr	r0, [r5, #4]
10001e32:	2201      	movs	r2, #1
10001e34:	0003      	movs	r3, r0
10001e36:	3310      	adds	r3, #16
10001e38:	409a      	lsls	r2, r3
10001e3a:	6829      	ldr	r1, [r5, #0]
10001e3c:	7823      	ldrb	r3, [r4, #0]
10001e3e:	2b00      	cmp	r3, #0
10001e40:	d1fc      	bne.n	10001e3c <tft_begin+0xd30>
10001e42:	3301      	adds	r3, #1
10001e44:	7023      	strb	r3, [r4, #0]
10001e46:	2680      	movs	r6, #128	; 0x80
10001e48:	23d0      	movs	r3, #208	; 0xd0
10001e4a:	2780      	movs	r7, #128	; 0x80
10001e4c:	3004      	adds	r0, #4
10001e4e:	061b      	lsls	r3, r3, #24
10001e50:	02f6      	lsls	r6, r6, #11
10001e52:	027f      	lsls	r7, r7, #9
10001e54:	0080      	lsls	r0, r0, #2
10001e56:	615e      	str	r6, [r3, #20]
10001e58:	1808      	adds	r0, r1, r0
10001e5a:	615f      	str	r7, [r3, #20]
10001e5c:	619e      	str	r6, [r3, #24]
10001e5e:	684b      	ldr	r3, [r1, #4]
10001e60:	421a      	tst	r2, r3
10001e62:	d1fc      	bne.n	10001e5e <tft_begin+0xd52>
10001e64:	234e      	movs	r3, #78	; 0x4e
10001e66:	7003      	strb	r3, [r0, #0]
10001e68:	6868      	ldr	r0, [r5, #4]
10001e6a:	2201      	movs	r2, #1
10001e6c:	0003      	movs	r3, r0
10001e6e:	3310      	adds	r3, #16
10001e70:	409a      	lsls	r2, r3
10001e72:	6829      	ldr	r1, [r5, #0]
10001e74:	7823      	ldrb	r3, [r4, #0]
10001e76:	2b00      	cmp	r3, #0
10001e78:	d1fc      	bne.n	10001e74 <tft_begin+0xd68>
10001e7a:	3301      	adds	r3, #1
10001e7c:	7023      	strb	r3, [r4, #0]
10001e7e:	2680      	movs	r6, #128	; 0x80
10001e80:	23d0      	movs	r3, #208	; 0xd0
10001e82:	2780      	movs	r7, #128	; 0x80
10001e84:	3004      	adds	r0, #4
10001e86:	061b      	lsls	r3, r3, #24
10001e88:	02f6      	lsls	r6, r6, #11
10001e8a:	027f      	lsls	r7, r7, #9
10001e8c:	0080      	lsls	r0, r0, #2
10001e8e:	615e      	str	r6, [r3, #20]
10001e90:	1808      	adds	r0, r1, r0
10001e92:	615f      	str	r7, [r3, #20]
10001e94:	619e      	str	r6, [r3, #24]
10001e96:	684b      	ldr	r3, [r1, #4]
10001e98:	421a      	tst	r2, r3
10001e9a:	d1fc      	bne.n	10001e96 <tft_begin+0xd8a>
10001e9c:	23f1      	movs	r3, #241	; 0xf1
10001e9e:	7003      	strb	r3, [r0, #0]
10001ea0:	6868      	ldr	r0, [r5, #4]
10001ea2:	2201      	movs	r2, #1
10001ea4:	0003      	movs	r3, r0
10001ea6:	3310      	adds	r3, #16
10001ea8:	409a      	lsls	r2, r3
10001eaa:	6829      	ldr	r1, [r5, #0]
10001eac:	7823      	ldrb	r3, [r4, #0]
10001eae:	2b00      	cmp	r3, #0
10001eb0:	d1fc      	bne.n	10001eac <tft_begin+0xda0>
10001eb2:	3301      	adds	r3, #1
10001eb4:	7023      	strb	r3, [r4, #0]
10001eb6:	2680      	movs	r6, #128	; 0x80
10001eb8:	23d0      	movs	r3, #208	; 0xd0
10001eba:	2780      	movs	r7, #128	; 0x80
10001ebc:	3004      	adds	r0, #4
10001ebe:	061b      	lsls	r3, r3, #24
10001ec0:	02f6      	lsls	r6, r6, #11
10001ec2:	027f      	lsls	r7, r7, #9
10001ec4:	0080      	lsls	r0, r0, #2
10001ec6:	615e      	str	r6, [r3, #20]
10001ec8:	1808      	adds	r0, r1, r0
10001eca:	615f      	str	r7, [r3, #20]
10001ecc:	619e      	str	r6, [r3, #24]
10001ece:	684b      	ldr	r3, [r1, #4]
10001ed0:	421a      	tst	r2, r3
10001ed2:	d1fc      	bne.n	10001ece <tft_begin+0xdc2>
10001ed4:	2337      	movs	r3, #55	; 0x37
10001ed6:	7003      	strb	r3, [r0, #0]
10001ed8:	6868      	ldr	r0, [r5, #4]
10001eda:	2201      	movs	r2, #1
10001edc:	0003      	movs	r3, r0
10001ede:	3310      	adds	r3, #16
10001ee0:	409a      	lsls	r2, r3
10001ee2:	6829      	ldr	r1, [r5, #0]
10001ee4:	7823      	ldrb	r3, [r4, #0]
10001ee6:	2b00      	cmp	r3, #0
10001ee8:	d1fc      	bne.n	10001ee4 <tft_begin+0xdd8>
10001eea:	3301      	adds	r3, #1
10001eec:	7023      	strb	r3, [r4, #0]
10001eee:	2680      	movs	r6, #128	; 0x80
10001ef0:	23d0      	movs	r3, #208	; 0xd0
10001ef2:	2780      	movs	r7, #128	; 0x80
10001ef4:	3004      	adds	r0, #4
10001ef6:	061b      	lsls	r3, r3, #24
10001ef8:	02f6      	lsls	r6, r6, #11
10001efa:	027f      	lsls	r7, r7, #9
10001efc:	0080      	lsls	r0, r0, #2
10001efe:	615e      	str	r6, [r3, #20]
10001f00:	1808      	adds	r0, r1, r0
10001f02:	615f      	str	r7, [r3, #20]
10001f04:	619e      	str	r6, [r3, #24]
10001f06:	684b      	ldr	r3, [r1, #4]
10001f08:	421a      	tst	r2, r3
10001f0a:	d1fc      	bne.n	10001f06 <tft_begin+0xdfa>
10001f0c:	2307      	movs	r3, #7
10001f0e:	7003      	strb	r3, [r0, #0]
10001f10:	6868      	ldr	r0, [r5, #4]
10001f12:	2201      	movs	r2, #1
10001f14:	0003      	movs	r3, r0
10001f16:	3310      	adds	r3, #16
10001f18:	409a      	lsls	r2, r3
10001f1a:	6829      	ldr	r1, [r5, #0]
10001f1c:	7823      	ldrb	r3, [r4, #0]
10001f1e:	2b00      	cmp	r3, #0
10001f20:	d1fc      	bne.n	10001f1c <tft_begin+0xe10>
10001f22:	3301      	adds	r3, #1
10001f24:	7023      	strb	r3, [r4, #0]
10001f26:	2680      	movs	r6, #128	; 0x80
10001f28:	23d0      	movs	r3, #208	; 0xd0
10001f2a:	2780      	movs	r7, #128	; 0x80
10001f2c:	3004      	adds	r0, #4
10001f2e:	061b      	lsls	r3, r3, #24
10001f30:	02f6      	lsls	r6, r6, #11
10001f32:	027f      	lsls	r7, r7, #9
10001f34:	0080      	lsls	r0, r0, #2
10001f36:	615e      	str	r6, [r3, #20]
10001f38:	1808      	adds	r0, r1, r0
10001f3a:	615f      	str	r7, [r3, #20]
10001f3c:	619e      	str	r6, [r3, #24]
10001f3e:	684b      	ldr	r3, [r1, #4]
10001f40:	421a      	tst	r2, r3
10001f42:	d1fc      	bne.n	10001f3e <tft_begin+0xe32>
10001f44:	2310      	movs	r3, #16
10001f46:	7003      	strb	r3, [r0, #0]
10001f48:	6868      	ldr	r0, [r5, #4]
10001f4a:	2201      	movs	r2, #1
10001f4c:	0003      	movs	r3, r0
10001f4e:	3310      	adds	r3, #16
10001f50:	409a      	lsls	r2, r3
10001f52:	6829      	ldr	r1, [r5, #0]
10001f54:	7823      	ldrb	r3, [r4, #0]
10001f56:	2b00      	cmp	r3, #0
10001f58:	d1fc      	bne.n	10001f54 <tft_begin+0xe48>
10001f5a:	3301      	adds	r3, #1
10001f5c:	7023      	strb	r3, [r4, #0]
10001f5e:	2680      	movs	r6, #128	; 0x80
10001f60:	23d0      	movs	r3, #208	; 0xd0
10001f62:	2780      	movs	r7, #128	; 0x80
10001f64:	3004      	adds	r0, #4
10001f66:	061b      	lsls	r3, r3, #24
10001f68:	02f6      	lsls	r6, r6, #11
10001f6a:	027f      	lsls	r7, r7, #9
10001f6c:	0080      	lsls	r0, r0, #2
10001f6e:	615e      	str	r6, [r3, #20]
10001f70:	1808      	adds	r0, r1, r0
10001f72:	615f      	str	r7, [r3, #20]
10001f74:	619e      	str	r6, [r3, #24]
10001f76:	684b      	ldr	r3, [r1, #4]
10001f78:	421a      	tst	r2, r3
10001f7a:	d1fc      	bne.n	10001f76 <tft_begin+0xe6a>
10001f7c:	2303      	movs	r3, #3
10001f7e:	7003      	strb	r3, [r0, #0]
10001f80:	6868      	ldr	r0, [r5, #4]
10001f82:	2201      	movs	r2, #1
10001f84:	0003      	movs	r3, r0
10001f86:	3310      	adds	r3, #16
10001f88:	409a      	lsls	r2, r3
10001f8a:	6829      	ldr	r1, [r5, #0]
10001f8c:	7823      	ldrb	r3, [r4, #0]
10001f8e:	2b00      	cmp	r3, #0
10001f90:	d1fc      	bne.n	10001f8c <tft_begin+0xe80>
10001f92:	3301      	adds	r3, #1
10001f94:	7023      	strb	r3, [r4, #0]
10001f96:	2680      	movs	r6, #128	; 0x80
10001f98:	23d0      	movs	r3, #208	; 0xd0
10001f9a:	2780      	movs	r7, #128	; 0x80
10001f9c:	3004      	adds	r0, #4
10001f9e:	061b      	lsls	r3, r3, #24
10001fa0:	02f6      	lsls	r6, r6, #11
10001fa2:	027f      	lsls	r7, r7, #9
10001fa4:	0080      	lsls	r0, r0, #2
10001fa6:	615e      	str	r6, [r3, #20]
10001fa8:	1808      	adds	r0, r1, r0
10001faa:	615f      	str	r7, [r3, #20]
10001fac:	619e      	str	r6, [r3, #24]
10001fae:	684b      	ldr	r3, [r1, #4]
10001fb0:	421a      	tst	r2, r3
10001fb2:	d1fc      	bne.n	10001fae <tft_begin+0xea2>
10001fb4:	230e      	movs	r3, #14
10001fb6:	7003      	strb	r3, [r0, #0]
10001fb8:	6868      	ldr	r0, [r5, #4]
10001fba:	2201      	movs	r2, #1
10001fbc:	0003      	movs	r3, r0
10001fbe:	3310      	adds	r3, #16
10001fc0:	409a      	lsls	r2, r3
10001fc2:	6829      	ldr	r1, [r5, #0]
10001fc4:	7823      	ldrb	r3, [r4, #0]
10001fc6:	2b00      	cmp	r3, #0
10001fc8:	d1fc      	bne.n	10001fc4 <tft_begin+0xeb8>
10001fca:	3301      	adds	r3, #1
10001fcc:	7023      	strb	r3, [r4, #0]
10001fce:	2680      	movs	r6, #128	; 0x80
10001fd0:	23d0      	movs	r3, #208	; 0xd0
10001fd2:	2780      	movs	r7, #128	; 0x80
10001fd4:	3004      	adds	r0, #4
10001fd6:	061b      	lsls	r3, r3, #24
10001fd8:	02f6      	lsls	r6, r6, #11
10001fda:	027f      	lsls	r7, r7, #9
10001fdc:	0080      	lsls	r0, r0, #2
10001fde:	615e      	str	r6, [r3, #20]
10001fe0:	1808      	adds	r0, r1, r0
10001fe2:	615f      	str	r7, [r3, #20]
10001fe4:	619e      	str	r6, [r3, #24]
10001fe6:	684b      	ldr	r3, [r1, #4]
10001fe8:	421a      	tst	r2, r3
10001fea:	d1fc      	bne.n	10001fe6 <tft_begin+0xeda>
10001fec:	2309      	movs	r3, #9
10001fee:	7003      	strb	r3, [r0, #0]
10001ff0:	6868      	ldr	r0, [r5, #4]
10001ff2:	2201      	movs	r2, #1
10001ff4:	0003      	movs	r3, r0
10001ff6:	3310      	adds	r3, #16
10001ff8:	409a      	lsls	r2, r3
10001ffa:	6829      	ldr	r1, [r5, #0]
10001ffc:	7823      	ldrb	r3, [r4, #0]
10001ffe:	2b00      	cmp	r3, #0
10002000:	d1fc      	bne.n	10001ffc <tft_begin+0xef0>
10002002:	3301      	adds	r3, #1
10002004:	7023      	strb	r3, [r4, #0]
10002006:	2680      	movs	r6, #128	; 0x80
10002008:	23d0      	movs	r3, #208	; 0xd0
1000200a:	2780      	movs	r7, #128	; 0x80
1000200c:	061b      	lsls	r3, r3, #24
1000200e:	02f6      	lsls	r6, r6, #11
10002010:	027f      	lsls	r7, r7, #9
10002012:	3004      	adds	r0, #4
10002014:	615e      	str	r6, [r3, #20]
10002016:	615f      	str	r7, [r3, #20]
10002018:	619e      	str	r6, [r3, #24]
1000201a:	0086      	lsls	r6, r0, #2
1000201c:	198e      	adds	r6, r1, r6
1000201e:	0010      	movs	r0, r2
10002020:	684b      	ldr	r3, [r1, #4]
10002022:	4018      	ands	r0, r3
10002024:	421a      	tst	r2, r3
10002026:	d1fa      	bne.n	1000201e <tft_begin+0xf12>
10002028:	7030      	strb	r0, [r6, #0]
1000202a:	6868      	ldr	r0, [r5, #4]
1000202c:	2201      	movs	r2, #1
1000202e:	0003      	movs	r3, r0
10002030:	3310      	adds	r3, #16
10002032:	409a      	lsls	r2, r3
10002034:	6829      	ldr	r1, [r5, #0]
10002036:	7823      	ldrb	r3, [r4, #0]
10002038:	2b00      	cmp	r3, #0
1000203a:	d1fc      	bne.n	10002036 <tft_begin+0xf2a>
1000203c:	3301      	adds	r3, #1
1000203e:	7023      	strb	r3, [r4, #0]
10002040:	2680      	movs	r6, #128	; 0x80
10002042:	23d0      	movs	r3, #208	; 0xd0
10002044:	2780      	movs	r7, #128	; 0x80
10002046:	3004      	adds	r0, #4
10002048:	061b      	lsls	r3, r3, #24
1000204a:	02f6      	lsls	r6, r6, #11
1000204c:	027f      	lsls	r7, r7, #9
1000204e:	0080      	lsls	r0, r0, #2
10002050:	615e      	str	r6, [r3, #20]
10002052:	1808      	adds	r0, r1, r0
10002054:	619f      	str	r7, [r3, #24]
10002056:	619e      	str	r6, [r3, #24]
10002058:	684b      	ldr	r3, [r1, #4]
1000205a:	421a      	tst	r2, r3
1000205c:	d1fc      	bne.n	10002058 <tft_begin+0xf4c>
1000205e:	23e1      	movs	r3, #225	; 0xe1
10002060:	7003      	strb	r3, [r0, #0]
10002062:	6868      	ldr	r0, [r5, #4]
10002064:	2201      	movs	r2, #1
10002066:	0003      	movs	r3, r0
10002068:	3310      	adds	r3, #16
1000206a:	409a      	lsls	r2, r3
1000206c:	6829      	ldr	r1, [r5, #0]
1000206e:	7823      	ldrb	r3, [r4, #0]
10002070:	2b00      	cmp	r3, #0
10002072:	d1fc      	bne.n	1000206e <tft_begin+0xf62>
10002074:	3301      	adds	r3, #1
10002076:	7023      	strb	r3, [r4, #0]
10002078:	2680      	movs	r6, #128	; 0x80
1000207a:	23d0      	movs	r3, #208	; 0xd0
1000207c:	2780      	movs	r7, #128	; 0x80
1000207e:	061b      	lsls	r3, r3, #24
10002080:	02f6      	lsls	r6, r6, #11
10002082:	027f      	lsls	r7, r7, #9
10002084:	3004      	adds	r0, #4
10002086:	615e      	str	r6, [r3, #20]
10002088:	615f      	str	r7, [r3, #20]
1000208a:	619e      	str	r6, [r3, #24]
1000208c:	0086      	lsls	r6, r0, #2
1000208e:	198e      	adds	r6, r1, r6
10002090:	0010      	movs	r0, r2
10002092:	684b      	ldr	r3, [r1, #4]
10002094:	4018      	ands	r0, r3
10002096:	421a      	tst	r2, r3
10002098:	d1fa      	bne.n	10002090 <tft_begin+0xf84>
1000209a:	7030      	strb	r0, [r6, #0]
1000209c:	6868      	ldr	r0, [r5, #4]
1000209e:	2201      	movs	r2, #1
100020a0:	0003      	movs	r3, r0
100020a2:	3310      	adds	r3, #16
100020a4:	409a      	lsls	r2, r3
100020a6:	6829      	ldr	r1, [r5, #0]
100020a8:	7823      	ldrb	r3, [r4, #0]
100020aa:	2b00      	cmp	r3, #0
100020ac:	d1fc      	bne.n	100020a8 <tft_begin+0xf9c>
100020ae:	3301      	adds	r3, #1
100020b0:	7023      	strb	r3, [r4, #0]
100020b2:	2680      	movs	r6, #128	; 0x80
100020b4:	23d0      	movs	r3, #208	; 0xd0
100020b6:	2780      	movs	r7, #128	; 0x80
100020b8:	3004      	adds	r0, #4
100020ba:	061b      	lsls	r3, r3, #24
100020bc:	02f6      	lsls	r6, r6, #11
100020be:	027f      	lsls	r7, r7, #9
100020c0:	0080      	lsls	r0, r0, #2
100020c2:	615e      	str	r6, [r3, #20]
100020c4:	1808      	adds	r0, r1, r0
100020c6:	615f      	str	r7, [r3, #20]
100020c8:	619e      	str	r6, [r3, #24]
100020ca:	684b      	ldr	r3, [r1, #4]
100020cc:	421a      	tst	r2, r3
100020ce:	d1fc      	bne.n	100020ca <tft_begin+0xfbe>
100020d0:	230e      	movs	r3, #14
100020d2:	7003      	strb	r3, [r0, #0]
100020d4:	6868      	ldr	r0, [r5, #4]
100020d6:	2201      	movs	r2, #1
100020d8:	0003      	movs	r3, r0
100020da:	3310      	adds	r3, #16
100020dc:	409a      	lsls	r2, r3
100020de:	6829      	ldr	r1, [r5, #0]
100020e0:	7823      	ldrb	r3, [r4, #0]
100020e2:	2b00      	cmp	r3, #0
100020e4:	d1fc      	bne.n	100020e0 <tft_begin+0xfd4>
100020e6:	3301      	adds	r3, #1
100020e8:	7023      	strb	r3, [r4, #0]
100020ea:	2680      	movs	r6, #128	; 0x80
100020ec:	23d0      	movs	r3, #208	; 0xd0
100020ee:	2780      	movs	r7, #128	; 0x80
100020f0:	3004      	adds	r0, #4
100020f2:	061b      	lsls	r3, r3, #24
100020f4:	02f6      	lsls	r6, r6, #11
100020f6:	027f      	lsls	r7, r7, #9
100020f8:	0080      	lsls	r0, r0, #2
100020fa:	615e      	str	r6, [r3, #20]
100020fc:	1808      	adds	r0, r1, r0
100020fe:	615f      	str	r7, [r3, #20]
10002100:	619e      	str	r6, [r3, #24]
10002102:	684b      	ldr	r3, [r1, #4]
10002104:	421a      	tst	r2, r3
10002106:	d1fc      	bne.n	10002102 <tft_begin+0xff6>
10002108:	2314      	movs	r3, #20
1000210a:	7003      	strb	r3, [r0, #0]
1000210c:	6868      	ldr	r0, [r5, #4]
1000210e:	2201      	movs	r2, #1
10002110:	0003      	movs	r3, r0
10002112:	3310      	adds	r3, #16
10002114:	409a      	lsls	r2, r3
10002116:	6829      	ldr	r1, [r5, #0]
10002118:	7823      	ldrb	r3, [r4, #0]
1000211a:	2b00      	cmp	r3, #0
1000211c:	d1fc      	bne.n	10002118 <tft_begin+0x100c>
1000211e:	3301      	adds	r3, #1
10002120:	7023      	strb	r3, [r4, #0]
10002122:	2680      	movs	r6, #128	; 0x80
10002124:	23d0      	movs	r3, #208	; 0xd0
10002126:	2780      	movs	r7, #128	; 0x80
10002128:	3004      	adds	r0, #4
1000212a:	061b      	lsls	r3, r3, #24
1000212c:	02f6      	lsls	r6, r6, #11
1000212e:	027f      	lsls	r7, r7, #9
10002130:	0080      	lsls	r0, r0, #2
10002132:	615e      	str	r6, [r3, #20]
10002134:	1808      	adds	r0, r1, r0
10002136:	615f      	str	r7, [r3, #20]
10002138:	619e      	str	r6, [r3, #24]
1000213a:	684b      	ldr	r3, [r1, #4]
1000213c:	421a      	tst	r2, r3
1000213e:	d1fc      	bne.n	1000213a <tft_begin+0x102e>
10002140:	2303      	movs	r3, #3
10002142:	7003      	strb	r3, [r0, #0]
10002144:	6868      	ldr	r0, [r5, #4]
10002146:	2201      	movs	r2, #1
10002148:	0003      	movs	r3, r0
1000214a:	3310      	adds	r3, #16
1000214c:	409a      	lsls	r2, r3
1000214e:	6829      	ldr	r1, [r5, #0]
10002150:	7823      	ldrb	r3, [r4, #0]
10002152:	2b00      	cmp	r3, #0
10002154:	d1fc      	bne.n	10002150 <tft_begin+0x1044>
10002156:	3301      	adds	r3, #1
10002158:	7023      	strb	r3, [r4, #0]
1000215a:	2680      	movs	r6, #128	; 0x80
1000215c:	23d0      	movs	r3, #208	; 0xd0
1000215e:	2780      	movs	r7, #128	; 0x80
10002160:	3004      	adds	r0, #4
10002162:	061b      	lsls	r3, r3, #24
10002164:	02f6      	lsls	r6, r6, #11
10002166:	027f      	lsls	r7, r7, #9
10002168:	0080      	lsls	r0, r0, #2
1000216a:	615e      	str	r6, [r3, #20]
1000216c:	1808      	adds	r0, r1, r0
1000216e:	615f      	str	r7, [r3, #20]
10002170:	619e      	str	r6, [r3, #24]
10002172:	684b      	ldr	r3, [r1, #4]
10002174:	421a      	tst	r2, r3
10002176:	d1fc      	bne.n	10002172 <tft_begin+0x1066>
10002178:	2311      	movs	r3, #17
1000217a:	7003      	strb	r3, [r0, #0]
1000217c:	6868      	ldr	r0, [r5, #4]
1000217e:	2201      	movs	r2, #1
10002180:	0003      	movs	r3, r0
10002182:	3310      	adds	r3, #16
10002184:	409a      	lsls	r2, r3
10002186:	6829      	ldr	r1, [r5, #0]
10002188:	7823      	ldrb	r3, [r4, #0]
1000218a:	2b00      	cmp	r3, #0
1000218c:	d1fc      	bne.n	10002188 <tft_begin+0x107c>
1000218e:	3301      	adds	r3, #1
10002190:	7023      	strb	r3, [r4, #0]
10002192:	2680      	movs	r6, #128	; 0x80
10002194:	23d0      	movs	r3, #208	; 0xd0
10002196:	2780      	movs	r7, #128	; 0x80
10002198:	3004      	adds	r0, #4
1000219a:	061b      	lsls	r3, r3, #24
1000219c:	02f6      	lsls	r6, r6, #11
1000219e:	027f      	lsls	r7, r7, #9
100021a0:	0080      	lsls	r0, r0, #2
100021a2:	615e      	str	r6, [r3, #20]
100021a4:	1808      	adds	r0, r1, r0
100021a6:	615f      	str	r7, [r3, #20]
100021a8:	619e      	str	r6, [r3, #24]
100021aa:	684b      	ldr	r3, [r1, #4]
100021ac:	421a      	tst	r2, r3
100021ae:	d1fc      	bne.n	100021aa <tft_begin+0x109e>
100021b0:	2307      	movs	r3, #7
100021b2:	7003      	strb	r3, [r0, #0]
100021b4:	6868      	ldr	r0, [r5, #4]
100021b6:	2201      	movs	r2, #1
100021b8:	0003      	movs	r3, r0
100021ba:	3310      	adds	r3, #16
100021bc:	409a      	lsls	r2, r3
100021be:	6829      	ldr	r1, [r5, #0]
100021c0:	7823      	ldrb	r3, [r4, #0]
100021c2:	2b00      	cmp	r3, #0
100021c4:	d1fc      	bne.n	100021c0 <tft_begin+0x10b4>
100021c6:	3301      	adds	r3, #1
100021c8:	7023      	strb	r3, [r4, #0]
100021ca:	2680      	movs	r6, #128	; 0x80
100021cc:	23d0      	movs	r3, #208	; 0xd0
100021ce:	2780      	movs	r7, #128	; 0x80
100021d0:	3004      	adds	r0, #4
100021d2:	061b      	lsls	r3, r3, #24
100021d4:	02f6      	lsls	r6, r6, #11
100021d6:	027f      	lsls	r7, r7, #9
100021d8:	0080      	lsls	r0, r0, #2
100021da:	615e      	str	r6, [r3, #20]
100021dc:	1808      	adds	r0, r1, r0
100021de:	615f      	str	r7, [r3, #20]
100021e0:	619e      	str	r6, [r3, #24]
100021e2:	684b      	ldr	r3, [r1, #4]
100021e4:	421a      	tst	r2, r3
100021e6:	d1fc      	bne.n	100021e2 <tft_begin+0x10d6>
100021e8:	2331      	movs	r3, #49	; 0x31
100021ea:	7003      	strb	r3, [r0, #0]
100021ec:	6868      	ldr	r0, [r5, #4]
100021ee:	2201      	movs	r2, #1
100021f0:	0003      	movs	r3, r0
100021f2:	3310      	adds	r3, #16
100021f4:	409a      	lsls	r2, r3
100021f6:	6829      	ldr	r1, [r5, #0]
100021f8:	7823      	ldrb	r3, [r4, #0]
100021fa:	2b00      	cmp	r3, #0
100021fc:	d1fc      	bne.n	100021f8 <tft_begin+0x10ec>
100021fe:	3301      	adds	r3, #1
10002200:	7023      	strb	r3, [r4, #0]
10002202:	2680      	movs	r6, #128	; 0x80
10002204:	23d0      	movs	r3, #208	; 0xd0
10002206:	2780      	movs	r7, #128	; 0x80
10002208:	3004      	adds	r0, #4
1000220a:	061b      	lsls	r3, r3, #24
1000220c:	02f6      	lsls	r6, r6, #11
1000220e:	027f      	lsls	r7, r7, #9
10002210:	0080      	lsls	r0, r0, #2
10002212:	615e      	str	r6, [r3, #20]
10002214:	1808      	adds	r0, r1, r0
10002216:	615f      	str	r7, [r3, #20]
10002218:	619e      	str	r6, [r3, #24]
1000221a:	684b      	ldr	r3, [r1, #4]
1000221c:	421a      	tst	r2, r3
1000221e:	d1fc      	bne.n	1000221a <tft_begin+0x110e>
10002220:	23c1      	movs	r3, #193	; 0xc1
10002222:	7003      	strb	r3, [r0, #0]
10002224:	6868      	ldr	r0, [r5, #4]
10002226:	2201      	movs	r2, #1
10002228:	0003      	movs	r3, r0
1000222a:	3310      	adds	r3, #16
1000222c:	409a      	lsls	r2, r3
1000222e:	6829      	ldr	r1, [r5, #0]
10002230:	7823      	ldrb	r3, [r4, #0]
10002232:	2b00      	cmp	r3, #0
10002234:	d1fc      	bne.n	10002230 <tft_begin+0x1124>
10002236:	3301      	adds	r3, #1
10002238:	7023      	strb	r3, [r4, #0]
1000223a:	2680      	movs	r6, #128	; 0x80
1000223c:	23d0      	movs	r3, #208	; 0xd0
1000223e:	2780      	movs	r7, #128	; 0x80
10002240:	3004      	adds	r0, #4
10002242:	061b      	lsls	r3, r3, #24
10002244:	02f6      	lsls	r6, r6, #11
10002246:	027f      	lsls	r7, r7, #9
10002248:	0080      	lsls	r0, r0, #2
1000224a:	615e      	str	r6, [r3, #20]
1000224c:	1808      	adds	r0, r1, r0
1000224e:	615f      	str	r7, [r3, #20]
10002250:	619e      	str	r6, [r3, #24]
10002252:	684b      	ldr	r3, [r1, #4]
10002254:	421a      	tst	r2, r3
10002256:	d1fc      	bne.n	10002252 <tft_begin+0x1146>
10002258:	2348      	movs	r3, #72	; 0x48
1000225a:	7003      	strb	r3, [r0, #0]
1000225c:	6868      	ldr	r0, [r5, #4]
1000225e:	2201      	movs	r2, #1
10002260:	0003      	movs	r3, r0
10002262:	3310      	adds	r3, #16
10002264:	409a      	lsls	r2, r3
10002266:	6829      	ldr	r1, [r5, #0]
10002268:	7823      	ldrb	r3, [r4, #0]
1000226a:	2b00      	cmp	r3, #0
1000226c:	d1fc      	bne.n	10002268 <tft_begin+0x115c>
1000226e:	3301      	adds	r3, #1
10002270:	7023      	strb	r3, [r4, #0]
10002272:	2680      	movs	r6, #128	; 0x80
10002274:	23d0      	movs	r3, #208	; 0xd0
10002276:	2780      	movs	r7, #128	; 0x80
10002278:	3004      	adds	r0, #4
1000227a:	061b      	lsls	r3, r3, #24
1000227c:	02f6      	lsls	r6, r6, #11
1000227e:	027f      	lsls	r7, r7, #9
10002280:	0080      	lsls	r0, r0, #2
10002282:	615e      	str	r6, [r3, #20]
10002284:	1808      	adds	r0, r1, r0
10002286:	615f      	str	r7, [r3, #20]
10002288:	619e      	str	r6, [r3, #24]
1000228a:	684b      	ldr	r3, [r1, #4]
1000228c:	421a      	tst	r2, r3
1000228e:	d1fc      	bne.n	1000228a <tft_begin+0x117e>
10002290:	2308      	movs	r3, #8
10002292:	7003      	strb	r3, [r0, #0]
10002294:	6868      	ldr	r0, [r5, #4]
10002296:	2201      	movs	r2, #1
10002298:	0003      	movs	r3, r0
1000229a:	3310      	adds	r3, #16
1000229c:	409a      	lsls	r2, r3
1000229e:	6829      	ldr	r1, [r5, #0]
100022a0:	7823      	ldrb	r3, [r4, #0]
100022a2:	2b00      	cmp	r3, #0
100022a4:	d1fc      	bne.n	100022a0 <tft_begin+0x1194>
100022a6:	3301      	adds	r3, #1
100022a8:	7023      	strb	r3, [r4, #0]
100022aa:	2680      	movs	r6, #128	; 0x80
100022ac:	23d0      	movs	r3, #208	; 0xd0
100022ae:	2780      	movs	r7, #128	; 0x80
100022b0:	3004      	adds	r0, #4
100022b2:	061b      	lsls	r3, r3, #24
100022b4:	02f6      	lsls	r6, r6, #11
100022b6:	027f      	lsls	r7, r7, #9
100022b8:	0080      	lsls	r0, r0, #2
100022ba:	615e      	str	r6, [r3, #20]
100022bc:	1808      	adds	r0, r1, r0
100022be:	615f      	str	r7, [r3, #20]
100022c0:	619e      	str	r6, [r3, #24]
100022c2:	684b      	ldr	r3, [r1, #4]
100022c4:	421a      	tst	r2, r3
100022c6:	d1fc      	bne.n	100022c2 <tft_begin+0x11b6>
100022c8:	230f      	movs	r3, #15
100022ca:	7003      	strb	r3, [r0, #0]
100022cc:	6868      	ldr	r0, [r5, #4]
100022ce:	2201      	movs	r2, #1
100022d0:	0003      	movs	r3, r0
100022d2:	3310      	adds	r3, #16
100022d4:	409a      	lsls	r2, r3
100022d6:	6829      	ldr	r1, [r5, #0]
100022d8:	7823      	ldrb	r3, [r4, #0]
100022da:	2b00      	cmp	r3, #0
100022dc:	d1fc      	bne.n	100022d8 <tft_begin+0x11cc>
100022de:	3301      	adds	r3, #1
100022e0:	7023      	strb	r3, [r4, #0]
100022e2:	2680      	movs	r6, #128	; 0x80
100022e4:	23d0      	movs	r3, #208	; 0xd0
100022e6:	2780      	movs	r7, #128	; 0x80
100022e8:	3004      	adds	r0, #4
100022ea:	061b      	lsls	r3, r3, #24
100022ec:	02f6      	lsls	r6, r6, #11
100022ee:	027f      	lsls	r7, r7, #9
100022f0:	0080      	lsls	r0, r0, #2
100022f2:	615e      	str	r6, [r3, #20]
100022f4:	1808      	adds	r0, r1, r0
100022f6:	615f      	str	r7, [r3, #20]
100022f8:	619e      	str	r6, [r3, #24]
100022fa:	684b      	ldr	r3, [r1, #4]
100022fc:	421a      	tst	r2, r3
100022fe:	d1fc      	bne.n	100022fa <tft_begin+0x11ee>
10002300:	230c      	movs	r3, #12
10002302:	7003      	strb	r3, [r0, #0]
10002304:	6868      	ldr	r0, [r5, #4]
10002306:	2201      	movs	r2, #1
10002308:	0003      	movs	r3, r0
1000230a:	3310      	adds	r3, #16
1000230c:	409a      	lsls	r2, r3
1000230e:	6829      	ldr	r1, [r5, #0]
10002310:	7823      	ldrb	r3, [r4, #0]
10002312:	2b00      	cmp	r3, #0
10002314:	d1fc      	bne.n	10002310 <tft_begin+0x1204>
10002316:	3301      	adds	r3, #1
10002318:	7023      	strb	r3, [r4, #0]
1000231a:	2680      	movs	r6, #128	; 0x80
1000231c:	23d0      	movs	r3, #208	; 0xd0
1000231e:	2780      	movs	r7, #128	; 0x80
10002320:	3004      	adds	r0, #4
10002322:	061b      	lsls	r3, r3, #24
10002324:	02f6      	lsls	r6, r6, #11
10002326:	027f      	lsls	r7, r7, #9
10002328:	0080      	lsls	r0, r0, #2
1000232a:	615e      	str	r6, [r3, #20]
1000232c:	1808      	adds	r0, r1, r0
1000232e:	615f      	str	r7, [r3, #20]
10002330:	619e      	str	r6, [r3, #24]
10002332:	684b      	ldr	r3, [r1, #4]
10002334:	421a      	tst	r2, r3
10002336:	d1fc      	bne.n	10002332 <tft_begin+0x1226>
10002338:	2331      	movs	r3, #49	; 0x31
1000233a:	7003      	strb	r3, [r0, #0]
1000233c:	6868      	ldr	r0, [r5, #4]
1000233e:	2201      	movs	r2, #1
10002340:	0003      	movs	r3, r0
10002342:	3310      	adds	r3, #16
10002344:	409a      	lsls	r2, r3
10002346:	6829      	ldr	r1, [r5, #0]
10002348:	7823      	ldrb	r3, [r4, #0]
1000234a:	2b00      	cmp	r3, #0
1000234c:	d1fc      	bne.n	10002348 <tft_begin+0x123c>
1000234e:	3301      	adds	r3, #1
10002350:	7023      	strb	r3, [r4, #0]
10002352:	2680      	movs	r6, #128	; 0x80
10002354:	23d0      	movs	r3, #208	; 0xd0
10002356:	2780      	movs	r7, #128	; 0x80
10002358:	3004      	adds	r0, #4
1000235a:	061b      	lsls	r3, r3, #24
1000235c:	02f6      	lsls	r6, r6, #11
1000235e:	027f      	lsls	r7, r7, #9
10002360:	0080      	lsls	r0, r0, #2
10002362:	615e      	str	r6, [r3, #20]
10002364:	1808      	adds	r0, r1, r0
10002366:	615f      	str	r7, [r3, #20]
10002368:	619e      	str	r6, [r3, #24]
1000236a:	684b      	ldr	r3, [r1, #4]
1000236c:	421a      	tst	r2, r3
1000236e:	d1fc      	bne.n	1000236a <tft_begin+0x125e>
10002370:	2336      	movs	r3, #54	; 0x36
10002372:	7003      	strb	r3, [r0, #0]
10002374:	6868      	ldr	r0, [r5, #4]
10002376:	2201      	movs	r2, #1
10002378:	0003      	movs	r3, r0
1000237a:	3310      	adds	r3, #16
1000237c:	409a      	lsls	r2, r3
1000237e:	6829      	ldr	r1, [r5, #0]
10002380:	7823      	ldrb	r3, [r4, #0]
10002382:	2b00      	cmp	r3, #0
10002384:	d1fc      	bne.n	10002380 <tft_begin+0x1274>
10002386:	3301      	adds	r3, #1
10002388:	7023      	strb	r3, [r4, #0]
1000238a:	2680      	movs	r6, #128	; 0x80
1000238c:	23d0      	movs	r3, #208	; 0xd0
1000238e:	2780      	movs	r7, #128	; 0x80
10002390:	3004      	adds	r0, #4
10002392:	061b      	lsls	r3, r3, #24
10002394:	02f6      	lsls	r6, r6, #11
10002396:	027f      	lsls	r7, r7, #9
10002398:	0080      	lsls	r0, r0, #2
1000239a:	615e      	str	r6, [r3, #20]
1000239c:	1808      	adds	r0, r1, r0
1000239e:	615f      	str	r7, [r3, #20]
100023a0:	619e      	str	r6, [r3, #24]
100023a2:	684b      	ldr	r3, [r1, #4]
100023a4:	421a      	tst	r2, r3
100023a6:	d1fc      	bne.n	100023a2 <tft_begin+0x1296>
100023a8:	230f      	movs	r3, #15
100023aa:	7003      	strb	r3, [r0, #0]
100023ac:	6868      	ldr	r0, [r5, #4]
100023ae:	2201      	movs	r2, #1
100023b0:	0003      	movs	r3, r0
100023b2:	3310      	adds	r3, #16
100023b4:	409a      	lsls	r2, r3
100023b6:	6829      	ldr	r1, [r5, #0]
100023b8:	7823      	ldrb	r3, [r4, #0]
100023ba:	2b00      	cmp	r3, #0
100023bc:	d1fc      	bne.n	100023b8 <tft_begin+0x12ac>
100023be:	3301      	adds	r3, #1
100023c0:	7023      	strb	r3, [r4, #0]
100023c2:	2680      	movs	r6, #128	; 0x80
100023c4:	23d0      	movs	r3, #208	; 0xd0
100023c6:	2780      	movs	r7, #128	; 0x80
100023c8:	3004      	adds	r0, #4
100023ca:	061b      	lsls	r3, r3, #24
100023cc:	02f6      	lsls	r6, r6, #11
100023ce:	027f      	lsls	r7, r7, #9
100023d0:	0080      	lsls	r0, r0, #2
100023d2:	615e      	str	r6, [r3, #20]
100023d4:	1808      	adds	r0, r1, r0
100023d6:	619f      	str	r7, [r3, #24]
100023d8:	619e      	str	r6, [r3, #24]
100023da:	684b      	ldr	r3, [r1, #4]
100023dc:	421a      	tst	r2, r3
100023de:	d1fc      	bne.n	100023da <tft_begin+0x12ce>
100023e0:	2311      	movs	r3, #17
100023e2:	7003      	strb	r3, [r0, #0]
100023e4:	7823      	ldrb	r3, [r4, #0]
100023e6:	2b00      	cmp	r3, #0
100023e8:	d1fc      	bne.n	100023e4 <tft_begin+0x12d8>
100023ea:	27d0      	movs	r7, #208	; 0xd0
100023ec:	2380      	movs	r3, #128	; 0x80
100023ee:	2601      	movs	r6, #1
100023f0:	02db      	lsls	r3, r3, #11
100023f2:	063f      	lsls	r7, r7, #24
100023f4:	7026      	strb	r6, [r4, #0]
100023f6:	2078      	movs	r0, #120	; 0x78
100023f8:	617b      	str	r3, [r7, #20]
100023fa:	4698      	mov	r8, r3
100023fc:	f002 fc14 	bl	10004c28 <sleep_ms>
10002400:	cd06      	ldmia	r5!, {r1, r2}
10002402:	2380      	movs	r3, #128	; 0x80
10002404:	025b      	lsls	r3, r3, #9
10002406:	61bb      	str	r3, [r7, #24]
10002408:	1d10      	adds	r0, r2, #4
1000240a:	4643      	mov	r3, r8
1000240c:	3210      	adds	r2, #16
1000240e:	4096      	lsls	r6, r2
10002410:	0080      	lsls	r0, r0, #2
10002412:	61bb      	str	r3, [r7, #24]
10002414:	1808      	adds	r0, r1, r0
10002416:	684b      	ldr	r3, [r1, #4]
10002418:	421e      	tst	r6, r3
1000241a:	d1fc      	bne.n	10002416 <tft_begin+0x130a>
1000241c:	2329      	movs	r3, #41	; 0x29
1000241e:	7003      	strb	r3, [r0, #0]
10002420:	7823      	ldrb	r3, [r4, #0]
10002422:	2b00      	cmp	r3, #0
10002424:	d1fc      	bne.n	10002420 <tft_begin+0x1314>
10002426:	3301      	adds	r3, #1
10002428:	7023      	strb	r3, [r4, #0]
1000242a:	2280      	movs	r2, #128	; 0x80
1000242c:	23d0      	movs	r3, #208	; 0xd0
1000242e:	20fa      	movs	r0, #250	; 0xfa
10002430:	061b      	lsls	r3, r3, #24
10002432:	02d2      	lsls	r2, r2, #11
10002434:	615a      	str	r2, [r3, #20]
10002436:	0040      	lsls	r0, r0, #1
10002438:	f002 fbf6 	bl	10004c28 <sleep_ms>
1000243c:	bc80      	pop	{r7}
1000243e:	46b8      	mov	r8, r7
10002440:	bdf0      	pop	{r4, r5, r6, r7, pc}
10002442:	46c0      	nop			; (mov r8, r8)

10002444 <tft_setAddrWindow>:
10002444:	b5f0      	push	{r4, r5, r6, r7, lr}
10002446:	0015      	movs	r5, r2
10002448:	001f      	movs	r7, r3
1000244a:	2280      	movs	r2, #128	; 0x80
1000244c:	23d0      	movs	r3, #208	; 0xd0
1000244e:	46c6      	mov	lr, r8
10002450:	061b      	lsls	r3, r3, #24
10002452:	0252      	lsls	r2, r2, #9
10002454:	b500      	push	{lr}
10002456:	619a      	str	r2, [r3, #24]
10002458:	2280      	movs	r2, #128	; 0x80
1000245a:	4e4b      	ldr	r6, [pc, #300]	; (10002588 <tft_setAddrWindow+0x144>)
1000245c:	02d2      	lsls	r2, r2, #11
1000245e:	619a      	str	r2, [r3, #24]
10002460:	6873      	ldr	r3, [r6, #4]
10002462:	4688      	mov	r8, r1
10002464:	1d19      	adds	r1, r3, #4
10002466:	3310      	adds	r3, #16
10002468:	001c      	movs	r4, r3
1000246a:	2301      	movs	r3, #1
1000246c:	40a3      	lsls	r3, r4
1000246e:	6832      	ldr	r2, [r6, #0]
10002470:	0089      	lsls	r1, r1, #2
10002472:	1851      	adds	r1, r2, r1
10002474:	6854      	ldr	r4, [r2, #4]
10002476:	4223      	tst	r3, r4
10002478:	d1fc      	bne.n	10002474 <tft_setAddrWindow+0x30>
1000247a:	232a      	movs	r3, #42	; 0x2a
1000247c:	4c43      	ldr	r4, [pc, #268]	; (1000258c <tft_setAddrWindow+0x148>)
1000247e:	700b      	strb	r3, [r1, #0]
10002480:	7823      	ldrb	r3, [r4, #0]
10002482:	2b00      	cmp	r3, #0
10002484:	d1fc      	bne.n	10002480 <tft_setAddrWindow+0x3c>
10002486:	3301      	adds	r3, #1
10002488:	7023      	strb	r3, [r4, #0]
1000248a:	2280      	movs	r2, #128	; 0x80
1000248c:	23d0      	movs	r3, #208	; 0xd0
1000248e:	2180      	movs	r1, #128	; 0x80
10002490:	061b      	lsls	r3, r3, #24
10002492:	02d2      	lsls	r2, r2, #11
10002494:	0249      	lsls	r1, r1, #9
10002496:	615a      	str	r2, [r3, #20]
10002498:	6159      	str	r1, [r3, #20]
1000249a:	619a      	str	r2, [r3, #24]
1000249c:	f7fe f936 	bl	1000070c <tft_spiwrite16>
100024a0:	7823      	ldrb	r3, [r4, #0]
100024a2:	2b00      	cmp	r3, #0
100024a4:	d1fc      	bne.n	100024a0 <tft_setAddrWindow+0x5c>
100024a6:	3301      	adds	r3, #1
100024a8:	7023      	strb	r3, [r4, #0]
100024aa:	2280      	movs	r2, #128	; 0x80
100024ac:	23d0      	movs	r3, #208	; 0xd0
100024ae:	2180      	movs	r1, #128	; 0x80
100024b0:	061b      	lsls	r3, r3, #24
100024b2:	02d2      	lsls	r2, r2, #11
100024b4:	0249      	lsls	r1, r1, #9
100024b6:	615a      	str	r2, [r3, #20]
100024b8:	0028      	movs	r0, r5
100024ba:	6159      	str	r1, [r3, #20]
100024bc:	619a      	str	r2, [r3, #24]
100024be:	f7fe f925 	bl	1000070c <tft_spiwrite16>
100024c2:	7823      	ldrb	r3, [r4, #0]
100024c4:	2b00      	cmp	r3, #0
100024c6:	d1fc      	bne.n	100024c2 <tft_setAddrWindow+0x7e>
100024c8:	23d0      	movs	r3, #208	; 0xd0
100024ca:	2280      	movs	r2, #128	; 0x80
100024cc:	2180      	movs	r1, #128	; 0x80
100024ce:	2501      	movs	r5, #1
100024d0:	061b      	lsls	r3, r3, #24
100024d2:	02d2      	lsls	r2, r2, #11
100024d4:	0249      	lsls	r1, r1, #9
100024d6:	7025      	strb	r5, [r4, #0]
100024d8:	615a      	str	r2, [r3, #20]
100024da:	6199      	str	r1, [r3, #24]
100024dc:	6871      	ldr	r1, [r6, #4]
100024de:	619a      	str	r2, [r3, #24]
100024e0:	1d08      	adds	r0, r1, #4
100024e2:	3110      	adds	r1, #16
100024e4:	408d      	lsls	r5, r1
100024e6:	6833      	ldr	r3, [r6, #0]
100024e8:	0080      	lsls	r0, r0, #2
100024ea:	1818      	adds	r0, r3, r0
100024ec:	685a      	ldr	r2, [r3, #4]
100024ee:	4215      	tst	r5, r2
100024f0:	d1fc      	bne.n	100024ec <tft_setAddrWindow+0xa8>
100024f2:	232b      	movs	r3, #43	; 0x2b
100024f4:	7003      	strb	r3, [r0, #0]
100024f6:	7823      	ldrb	r3, [r4, #0]
100024f8:	2b00      	cmp	r3, #0
100024fa:	d1fc      	bne.n	100024f6 <tft_setAddrWindow+0xb2>
100024fc:	3301      	adds	r3, #1
100024fe:	7023      	strb	r3, [r4, #0]
10002500:	2280      	movs	r2, #128	; 0x80
10002502:	23d0      	movs	r3, #208	; 0xd0
10002504:	2180      	movs	r1, #128	; 0x80
10002506:	061b      	lsls	r3, r3, #24
10002508:	02d2      	lsls	r2, r2, #11
1000250a:	0249      	lsls	r1, r1, #9
1000250c:	615a      	str	r2, [r3, #20]
1000250e:	4640      	mov	r0, r8
10002510:	6159      	str	r1, [r3, #20]
10002512:	619a      	str	r2, [r3, #24]
10002514:	f7fe f8fa 	bl	1000070c <tft_spiwrite16>
10002518:	7823      	ldrb	r3, [r4, #0]
1000251a:	2b00      	cmp	r3, #0
1000251c:	d1fc      	bne.n	10002518 <tft_setAddrWindow+0xd4>
1000251e:	3301      	adds	r3, #1
10002520:	7023      	strb	r3, [r4, #0]
10002522:	2280      	movs	r2, #128	; 0x80
10002524:	23d0      	movs	r3, #208	; 0xd0
10002526:	2180      	movs	r1, #128	; 0x80
10002528:	061b      	lsls	r3, r3, #24
1000252a:	02d2      	lsls	r2, r2, #11
1000252c:	0249      	lsls	r1, r1, #9
1000252e:	615a      	str	r2, [r3, #20]
10002530:	0038      	movs	r0, r7
10002532:	6159      	str	r1, [r3, #20]
10002534:	619a      	str	r2, [r3, #24]
10002536:	f7fe f8e9 	bl	1000070c <tft_spiwrite16>
1000253a:	7823      	ldrb	r3, [r4, #0]
1000253c:	2b00      	cmp	r3, #0
1000253e:	d1fc      	bne.n	1000253a <tft_setAddrWindow+0xf6>
10002540:	23d0      	movs	r3, #208	; 0xd0
10002542:	2180      	movs	r1, #128	; 0x80
10002544:	2080      	movs	r0, #128	; 0x80
10002546:	2201      	movs	r2, #1
10002548:	061b      	lsls	r3, r3, #24
1000254a:	02c9      	lsls	r1, r1, #11
1000254c:	0240      	lsls	r0, r0, #9
1000254e:	7022      	strb	r2, [r4, #0]
10002550:	6159      	str	r1, [r3, #20]
10002552:	6198      	str	r0, [r3, #24]
10002554:	6199      	str	r1, [r3, #24]
10002556:	ce22      	ldmia	r6!, {r1, r5}
10002558:	1d28      	adds	r0, r5, #4
1000255a:	3510      	adds	r5, #16
1000255c:	40aa      	lsls	r2, r5
1000255e:	0080      	lsls	r0, r0, #2
10002560:	1808      	adds	r0, r1, r0
10002562:	684b      	ldr	r3, [r1, #4]
10002564:	4213      	tst	r3, r2
10002566:	d1fc      	bne.n	10002562 <tft_setAddrWindow+0x11e>
10002568:	232c      	movs	r3, #44	; 0x2c
1000256a:	7003      	strb	r3, [r0, #0]
1000256c:	7823      	ldrb	r3, [r4, #0]
1000256e:	2b00      	cmp	r3, #0
10002570:	d1fc      	bne.n	1000256c <tft_setAddrWindow+0x128>
10002572:	3301      	adds	r3, #1
10002574:	7023      	strb	r3, [r4, #0]
10002576:	2280      	movs	r2, #128	; 0x80
10002578:	23d0      	movs	r3, #208	; 0xd0
1000257a:	02d2      	lsls	r2, r2, #11
1000257c:	061b      	lsls	r3, r3, #24
1000257e:	615a      	str	r2, [r3, #20]
10002580:	bc80      	pop	{r7}
10002582:	46b8      	mov	r8, r7
10002584:	bdf0      	pop	{r4, r5, r6, r7, pc}
10002586:	46c0      	nop			; (mov r8, r8)
10002588:	2000019c 	.word	0x2000019c
1000258c:	20000198 	.word	0x20000198

10002590 <tft_fillRect>:
10002590:	b5f8      	push	{r3, r4, r5, r6, r7, lr}
10002592:	46ce      	mov	lr, r9
10002594:	4647      	mov	r7, r8
10002596:	b580      	push	{r7, lr}
10002598:	4698      	mov	r8, r3
1000259a:	ab08      	add	r3, sp, #32
1000259c:	881e      	ldrh	r6, [r3, #0]
1000259e:	4b2b      	ldr	r3, [pc, #172]	; (1000264c <tft_fillRect+0xbc>)
100025a0:	4691      	mov	r9, r2
100025a2:	881b      	ldrh	r3, [r3, #0]
100025a4:	4298      	cmp	r0, r3
100025a6:	da42      	bge.n	1000262e <tft_fillRect+0x9e>
100025a8:	4a29      	ldr	r2, [pc, #164]	; (10002650 <tft_fillRect+0xc0>)
100025aa:	8814      	ldrh	r4, [r2, #0]
100025ac:	42a1      	cmp	r1, r4
100025ae:	da3e      	bge.n	1000262e <tft_fillRect+0x9e>
100025b0:	464a      	mov	r2, r9
100025b2:	1812      	adds	r2, r2, r0
100025b4:	b280      	uxth	r0, r0
100025b6:	4293      	cmp	r3, r2
100025b8:	db42      	blt.n	10002640 <tft_fillRect+0xb0>
100025ba:	464b      	mov	r3, r9
100025bc:	b29a      	uxth	r2, r3
100025be:	4643      	mov	r3, r8
100025c0:	185b      	adds	r3, r3, r1
100025c2:	b289      	uxth	r1, r1
100025c4:	429c      	cmp	r4, r3
100025c6:	db36      	blt.n	10002636 <tft_fillRect+0xa6>
100025c8:	4643      	mov	r3, r8
100025ca:	b29b      	uxth	r3, r3
100025cc:	18cb      	adds	r3, r1, r3
100025ce:	1882      	adds	r2, r0, r2
100025d0:	3b01      	subs	r3, #1
100025d2:	3a01      	subs	r2, #1
100025d4:	b29b      	uxth	r3, r3
100025d6:	b292      	uxth	r2, r2
100025d8:	f7ff ff34 	bl	10002444 <tft_setAddrWindow>
100025dc:	23d0      	movs	r3, #208	; 0xd0
100025de:	2280      	movs	r2, #128	; 0x80
100025e0:	061b      	lsls	r3, r3, #24
100025e2:	0252      	lsls	r2, r2, #9
100025e4:	615a      	str	r2, [r3, #20]
100025e6:	2280      	movs	r2, #128	; 0x80
100025e8:	02d2      	lsls	r2, r2, #11
100025ea:	619a      	str	r2, [r3, #24]
100025ec:	4643      	mov	r3, r8
100025ee:	2b00      	cmp	r3, #0
100025f0:	dd18      	ble.n	10002624 <tft_fillRect+0x94>
100025f2:	464b      	mov	r3, r9
100025f4:	2b00      	cmp	r3, #0
100025f6:	dd15      	ble.n	10002624 <tft_fillRect+0x94>
100025f8:	2701      	movs	r7, #1
100025fa:	4c16      	ldr	r4, [pc, #88]	; (10002654 <tft_fillRect+0xc4>)
100025fc:	464d      	mov	r5, r9
100025fe:	0030      	movs	r0, r6
10002600:	f7fe f884 	bl	1000070c <tft_spiwrite16>
10002604:	7821      	ldrb	r1, [r4, #0]
10002606:	2900      	cmp	r1, #0
10002608:	d1fc      	bne.n	10002604 <tft_fillRect+0x74>
1000260a:	3d01      	subs	r5, #1
1000260c:	b2ab      	uxth	r3, r5
1000260e:	7027      	strb	r7, [r4, #0]
10002610:	b22d      	sxth	r5, r5
10002612:	2b00      	cmp	r3, #0
10002614:	d1f3      	bne.n	100025fe <tft_fillRect+0x6e>
10002616:	4643      	mov	r3, r8
10002618:	3b01      	subs	r3, #1
1000261a:	b29a      	uxth	r2, r3
1000261c:	b21b      	sxth	r3, r3
1000261e:	4698      	mov	r8, r3
10002620:	2a00      	cmp	r2, #0
10002622:	d1eb      	bne.n	100025fc <tft_fillRect+0x6c>
10002624:	23d0      	movs	r3, #208	; 0xd0
10002626:	2280      	movs	r2, #128	; 0x80
10002628:	061b      	lsls	r3, r3, #24
1000262a:	02d2      	lsls	r2, r2, #11
1000262c:	615a      	str	r2, [r3, #20]
1000262e:	bcc0      	pop	{r6, r7}
10002630:	46b9      	mov	r9, r7
10002632:	46b0      	mov	r8, r6
10002634:	bdf8      	pop	{r3, r4, r5, r6, r7, pc}
10002636:	1a64      	subs	r4, r4, r1
10002638:	b2a3      	uxth	r3, r4
1000263a:	b224      	sxth	r4, r4
1000263c:	46a0      	mov	r8, r4
1000263e:	e7c5      	b.n	100025cc <tft_fillRect+0x3c>
10002640:	1a1b      	subs	r3, r3, r0
10002642:	b29a      	uxth	r2, r3
10002644:	b21b      	sxth	r3, r3
10002646:	4699      	mov	r9, r3
10002648:	e7b9      	b.n	100025be <tft_fillRect+0x2e>
1000264a:	46c0      	nop			; (mov r8, r8)
1000264c:	2000072e 	.word	0x2000072e
10002650:	2000072c 	.word	0x2000072c
10002654:	20000198 	.word	0x20000198

10002658 <tft_fillScreen>:
10002658:	b500      	push	{lr}
1000265a:	4b07      	ldr	r3, [pc, #28]	; (10002678 <tft_fillScreen+0x20>)
1000265c:	b083      	sub	sp, #12
1000265e:	2200      	movs	r2, #0
10002660:	5e9b      	ldrsh	r3, [r3, r2]
10002662:	4a06      	ldr	r2, [pc, #24]	; (1000267c <tft_fillScreen+0x24>)
10002664:	2100      	movs	r1, #0
10002666:	5e52      	ldrsh	r2, [r2, r1]
10002668:	9000      	str	r0, [sp, #0]
1000266a:	2100      	movs	r1, #0
1000266c:	2000      	movs	r0, #0
1000266e:	f7ff ff8f 	bl	10002590 <tft_fillRect>
10002672:	b003      	add	sp, #12
10002674:	bd00      	pop	{pc}
10002676:	46c0      	nop			; (mov r8, r8)
10002678:	2000072c 	.word	0x2000072c
1000267c:	2000072e 	.word	0x2000072e

10002680 <tft_setRotation>:
10002680:	23d0      	movs	r3, #208	; 0xd0
10002682:	2280      	movs	r2, #128	; 0x80
10002684:	061b      	lsls	r3, r3, #24
10002686:	0252      	lsls	r2, r2, #9
10002688:	b5f0      	push	{r4, r5, r6, r7, lr}
1000268a:	619a      	str	r2, [r3, #24]
1000268c:	2280      	movs	r2, #128	; 0x80
1000268e:	02d2      	lsls	r2, r2, #11
10002690:	619a      	str	r2, [r3, #24]
10002692:	2201      	movs	r2, #1
10002694:	0006      	movs	r6, r0
10002696:	4840      	ldr	r0, [pc, #256]	; (10002798 <tft_setRotation+0x118>)
10002698:	6843      	ldr	r3, [r0, #4]
1000269a:	6801      	ldr	r1, [r0, #0]
1000269c:	1d1c      	adds	r4, r3, #4
1000269e:	3310      	adds	r3, #16
100026a0:	409a      	lsls	r2, r3
100026a2:	00a4      	lsls	r4, r4, #2
100026a4:	190c      	adds	r4, r1, r4
100026a6:	684b      	ldr	r3, [r1, #4]
100026a8:	421a      	tst	r2, r3
100026aa:	d1fc      	bne.n	100026a6 <tft_setRotation+0x26>
100026ac:	2336      	movs	r3, #54	; 0x36
100026ae:	7023      	strb	r3, [r4, #0]
100026b0:	c822      	ldmia	r0!, {r1, r5}
100026b2:	002b      	movs	r3, r5
100026b4:	2201      	movs	r2, #1
100026b6:	3310      	adds	r3, #16
100026b8:	409a      	lsls	r2, r3
100026ba:	4b38      	ldr	r3, [pc, #224]	; (1000279c <tft_setRotation+0x11c>)
100026bc:	781c      	ldrb	r4, [r3, #0]
100026be:	2c00      	cmp	r4, #0
100026c0:	d1fc      	bne.n	100026bc <tft_setRotation+0x3c>
100026c2:	2001      	movs	r0, #1
100026c4:	24d0      	movs	r4, #208	; 0xd0
100026c6:	2780      	movs	r7, #128	; 0x80
100026c8:	7018      	strb	r0, [r3, #0]
100026ca:	0624      	lsls	r4, r4, #24
100026cc:	02ff      	lsls	r7, r7, #11
100026ce:	3002      	adds	r0, #2
100026d0:	6167      	str	r7, [r4, #20]
100026d2:	4030      	ands	r0, r6
100026d4:	2802      	cmp	r0, #2
100026d6:	d04e      	beq.n	10002776 <tft_setRotation+0xf6>
100026d8:	2803      	cmp	r0, #3
100026da:	d03c      	beq.n	10002756 <tft_setRotation+0xd6>
100026dc:	2801      	cmp	r0, #1
100026de:	d01c      	beq.n	1000271a <tft_setRotation+0x9a>
100026e0:	2080      	movs	r0, #128	; 0x80
100026e2:	3504      	adds	r5, #4
100026e4:	0240      	lsls	r0, r0, #9
100026e6:	00ad      	lsls	r5, r5, #2
100026e8:	6160      	str	r0, [r4, #20]
100026ea:	194d      	adds	r5, r1, r5
100026ec:	61a7      	str	r7, [r4, #24]
100026ee:	6848      	ldr	r0, [r1, #4]
100026f0:	4210      	tst	r0, r2
100026f2:	d1fc      	bne.n	100026ee <tft_setRotation+0x6e>
100026f4:	2248      	movs	r2, #72	; 0x48
100026f6:	702a      	strb	r2, [r5, #0]
100026f8:	781a      	ldrb	r2, [r3, #0]
100026fa:	2a00      	cmp	r2, #0
100026fc:	d1fc      	bne.n	100026f8 <tft_setRotation+0x78>
100026fe:	3201      	adds	r2, #1
10002700:	701a      	strb	r2, [r3, #0]
10002702:	23d0      	movs	r3, #208	; 0xd0
10002704:	2280      	movs	r2, #128	; 0x80
10002706:	061b      	lsls	r3, r3, #24
10002708:	02d2      	lsls	r2, r2, #11
1000270a:	615a      	str	r2, [r3, #20]
1000270c:	22f0      	movs	r2, #240	; 0xf0
1000270e:	4b24      	ldr	r3, [pc, #144]	; (100027a0 <tft_setRotation+0x120>)
10002710:	801a      	strh	r2, [r3, #0]
10002712:	4b24      	ldr	r3, [pc, #144]	; (100027a4 <tft_setRotation+0x124>)
10002714:	3250      	adds	r2, #80	; 0x50
10002716:	801a      	strh	r2, [r3, #0]
10002718:	bdf0      	pop	{r4, r5, r6, r7, pc}
1000271a:	2080      	movs	r0, #128	; 0x80
1000271c:	3504      	adds	r5, #4
1000271e:	0240      	lsls	r0, r0, #9
10002720:	00ad      	lsls	r5, r5, #2
10002722:	6160      	str	r0, [r4, #20]
10002724:	194d      	adds	r5, r1, r5
10002726:	61a7      	str	r7, [r4, #24]
10002728:	6848      	ldr	r0, [r1, #4]
1000272a:	4210      	tst	r0, r2
1000272c:	d1fc      	bne.n	10002728 <tft_setRotation+0xa8>
1000272e:	2228      	movs	r2, #40	; 0x28
10002730:	702a      	strb	r2, [r5, #0]
10002732:	781a      	ldrb	r2, [r3, #0]
10002734:	2a00      	cmp	r2, #0
10002736:	d1fc      	bne.n	10002732 <tft_setRotation+0xb2>
10002738:	3201      	adds	r2, #1
1000273a:	701a      	strb	r2, [r3, #0]
1000273c:	23d0      	movs	r3, #208	; 0xd0
1000273e:	2280      	movs	r2, #128	; 0x80
10002740:	061b      	lsls	r3, r3, #24
10002742:	02d2      	lsls	r2, r2, #11
10002744:	615a      	str	r2, [r3, #20]
10002746:	22a0      	movs	r2, #160	; 0xa0
10002748:	4b15      	ldr	r3, [pc, #84]	; (100027a0 <tft_setRotation+0x120>)
1000274a:	0052      	lsls	r2, r2, #1
1000274c:	801a      	strh	r2, [r3, #0]
1000274e:	4b15      	ldr	r3, [pc, #84]	; (100027a4 <tft_setRotation+0x124>)
10002750:	3a50      	subs	r2, #80	; 0x50
10002752:	801a      	strh	r2, [r3, #0]
10002754:	e7e0      	b.n	10002718 <tft_setRotation+0x98>
10002756:	2080      	movs	r0, #128	; 0x80
10002758:	3504      	adds	r5, #4
1000275a:	0240      	lsls	r0, r0, #9
1000275c:	00ad      	lsls	r5, r5, #2
1000275e:	6160      	str	r0, [r4, #20]
10002760:	194d      	adds	r5, r1, r5
10002762:	61a7      	str	r7, [r4, #24]
10002764:	6848      	ldr	r0, [r1, #4]
10002766:	4210      	tst	r0, r2
10002768:	d1fc      	bne.n	10002764 <tft_setRotation+0xe4>
1000276a:	22e8      	movs	r2, #232	; 0xe8
1000276c:	702a      	strb	r2, [r5, #0]
1000276e:	781a      	ldrb	r2, [r3, #0]
10002770:	2a00      	cmp	r2, #0
10002772:	d1fc      	bne.n	1000276e <tft_setRotation+0xee>
10002774:	e7e0      	b.n	10002738 <tft_setRotation+0xb8>
10002776:	2080      	movs	r0, #128	; 0x80
10002778:	3504      	adds	r5, #4
1000277a:	0240      	lsls	r0, r0, #9
1000277c:	00ad      	lsls	r5, r5, #2
1000277e:	6160      	str	r0, [r4, #20]
10002780:	194d      	adds	r5, r1, r5
10002782:	61a7      	str	r7, [r4, #24]
10002784:	6848      	ldr	r0, [r1, #4]
10002786:	4210      	tst	r0, r2
10002788:	d1fc      	bne.n	10002784 <tft_setRotation+0x104>
1000278a:	2288      	movs	r2, #136	; 0x88
1000278c:	702a      	strb	r2, [r5, #0]
1000278e:	781a      	ldrb	r2, [r3, #0]
10002790:	2a00      	cmp	r2, #0
10002792:	d1fc      	bne.n	1000278e <tft_setRotation+0x10e>
10002794:	e7b3      	b.n	100026fe <tft_setRotation+0x7e>
10002796:	46c0      	nop			; (mov r8, r8)
10002798:	2000019c 	.word	0x2000019c
1000279c:	20000198 	.word	0x20000198
100027a0:	2000072e 	.word	0x2000072e
100027a4:	2000072c 	.word	0x2000072c

100027a8 <tft_drawRoundRect>:
100027a8:	b5f0      	push	{r4, r5, r6, r7, lr}
100027aa:	4657      	mov	r7, sl
100027ac:	464e      	mov	r6, r9
100027ae:	46de      	mov	lr, fp
100027b0:	4645      	mov	r5, r8
100027b2:	b5e0      	push	{r5, r6, r7, lr}
100027b4:	0006      	movs	r6, r0
100027b6:	b08b      	sub	sp, #44	; 0x2c
100027b8:	4699      	mov	r9, r3
100027ba:	ab14      	add	r3, sp, #80	; 0x50
100027bc:	2500      	movs	r5, #0
100027be:	5f5c      	ldrsh	r4, [r3, r5]
100027c0:	9008      	str	r0, [sp, #32]
100027c2:	a815      	add	r0, sp, #84	; 0x54
100027c4:	9405      	str	r4, [sp, #20]
100027c6:	8804      	ldrh	r4, [r0, #0]
100027c8:	b2b0      	uxth	r0, r6
100027ca:	46a3      	mov	fp, r4
100027cc:	881c      	ldrh	r4, [r3, #0]
100027ce:	0003      	movs	r3, r0
100027d0:	46a4      	mov	ip, r4
100027d2:	9002      	str	r0, [sp, #8]
100027d4:	4463      	add	r3, ip
100027d6:	0020      	movs	r0, r4
100027d8:	b29f      	uxth	r7, r3
100027da:	b21b      	sxth	r3, r3
100027dc:	469a      	mov	sl, r3
100027de:	4bc5      	ldr	r3, [pc, #788]	; (10002af4 <tft_drawRoundRect+0x34c>)
100027e0:	9403      	str	r4, [sp, #12]
100027e2:	881b      	ldrh	r3, [r3, #0]
100027e4:	b294      	uxth	r4, r2
100027e6:	0042      	lsls	r2, r0, #1
100027e8:	b290      	uxth	r0, r2
100027ea:	9701      	str	r7, [sp, #4]
100027ec:	001a      	movs	r2, r3
100027ee:	9406      	str	r4, [sp, #24]
100027f0:	9007      	str	r0, [sp, #28]
100027f2:	459a      	cmp	sl, r3
100027f4:	db00      	blt.n	100027f8 <tft_drawRoundRect+0x50>
100027f6:	e264      	b.n	10002cc2 <tft_drawRoundRect+0x51a>
100027f8:	1a20      	subs	r0, r4, r0
100027fa:	b204      	sxth	r4, r0
100027fc:	b285      	uxth	r5, r0
100027fe:	48be      	ldr	r0, [pc, #760]	; (10002af8 <tft_drawRoundRect+0x350>)
10002800:	9404      	str	r4, [sp, #16]
10002802:	8800      	ldrh	r0, [r0, #0]
10002804:	4281      	cmp	r1, r0
10002806:	db00      	blt.n	1000280a <tft_drawRoundRect+0x62>
10002808:	e14f      	b.n	10002aaa <tft_drawRoundRect+0x302>
1000280a:	0022      	movs	r2, r4
1000280c:	4452      	add	r2, sl
1000280e:	002e      	movs	r6, r5
10002810:	4293      	cmp	r3, r2
10002812:	da02      	bge.n	1000281a <tft_drawRoundRect+0x72>
10002814:	1bdb      	subs	r3, r3, r7
10002816:	b29e      	uxth	r6, r3
10002818:	b21c      	sxth	r4, r3
1000281a:	9801      	ldr	r0, [sp, #4]
1000281c:	b28b      	uxth	r3, r1
1000281e:	1e42      	subs	r2, r0, #1
10002820:	18b2      	adds	r2, r6, r2
10002822:	0019      	movs	r1, r3
10002824:	b292      	uxth	r2, r2
10002826:	4698      	mov	r8, r3
10002828:	f7ff fe0c 	bl	10002444 <tft_setAddrWindow>
1000282c:	23d0      	movs	r3, #208	; 0xd0
1000282e:	2280      	movs	r2, #128	; 0x80
10002830:	061b      	lsls	r3, r3, #24
10002832:	0252      	lsls	r2, r2, #9
10002834:	615a      	str	r2, [r3, #20]
10002836:	2280      	movs	r2, #128	; 0x80
10002838:	02d2      	lsls	r2, r2, #11
1000283a:	619a      	str	r2, [r3, #24]
1000283c:	2c00      	cmp	r4, #0
1000283e:	d012      	beq.n	10002866 <tft_drawRoundRect+0xbe>
10002840:	465b      	mov	r3, fp
10002842:	2701      	movs	r7, #1
10002844:	46ab      	mov	fp, r5
10002846:	001d      	movs	r5, r3
10002848:	4cac      	ldr	r4, [pc, #688]	; (10002afc <tft_drawRoundRect+0x354>)
1000284a:	0028      	movs	r0, r5
1000284c:	f7fd ff5e 	bl	1000070c <tft_spiwrite16>
10002850:	7823      	ldrb	r3, [r4, #0]
10002852:	2b00      	cmp	r3, #0
10002854:	d1fc      	bne.n	10002850 <tft_drawRoundRect+0xa8>
10002856:	3e01      	subs	r6, #1
10002858:	b2b6      	uxth	r6, r6
1000285a:	7027      	strb	r7, [r4, #0]
1000285c:	2e00      	cmp	r6, #0
1000285e:	d1f4      	bne.n	1000284a <tft_drawRoundRect+0xa2>
10002860:	002b      	movs	r3, r5
10002862:	465d      	mov	r5, fp
10002864:	469b      	mov	fp, r3
10002866:	23d0      	movs	r3, #208	; 0xd0
10002868:	2280      	movs	r2, #128	; 0x80
1000286a:	061b      	lsls	r3, r3, #24
1000286c:	02d2      	lsls	r2, r2, #11
1000286e:	615a      	str	r2, [r3, #20]
10002870:	464b      	mov	r3, r9
10002872:	b29b      	uxth	r3, r3
10002874:	4699      	mov	r9, r3
10002876:	4443      	add	r3, r8
10002878:	b29b      	uxth	r3, r3
1000287a:	1e5c      	subs	r4, r3, #1
1000287c:	9309      	str	r3, [sp, #36]	; 0x24
1000287e:	4b9d      	ldr	r3, [pc, #628]	; (10002af4 <tft_drawRoundRect+0x34c>)
10002880:	b2a1      	uxth	r1, r4
10002882:	881a      	ldrh	r2, [r3, #0]
10002884:	b224      	sxth	r4, r4
10002886:	0013      	movs	r3, r2
10002888:	4552      	cmp	r2, sl
1000288a:	dd34      	ble.n	100028f6 <tft_drawRoundRect+0x14e>
1000288c:	489a      	ldr	r0, [pc, #616]	; (10002af8 <tft_drawRoundRect+0x350>)
1000288e:	8800      	ldrh	r0, [r0, #0]
10002890:	42a0      	cmp	r0, r4
10002892:	dd30      	ble.n	100028f6 <tft_drawRoundRect+0x14e>
10002894:	9804      	ldr	r0, [sp, #16]
10002896:	4450      	add	r0, sl
10002898:	4283      	cmp	r3, r0
1000289a:	da04      	bge.n	100028a6 <tft_drawRoundRect+0xfe>
1000289c:	9b01      	ldr	r3, [sp, #4]
1000289e:	1ad2      	subs	r2, r2, r3
100028a0:	b213      	sxth	r3, r2
100028a2:	b295      	uxth	r5, r2
100028a4:	9304      	str	r3, [sp, #16]
100028a6:	9801      	ldr	r0, [sp, #4]
100028a8:	000b      	movs	r3, r1
100028aa:	1e42      	subs	r2, r0, #1
100028ac:	18aa      	adds	r2, r5, r2
100028ae:	b292      	uxth	r2, r2
100028b0:	f7ff fdc8 	bl	10002444 <tft_setAddrWindow>
100028b4:	23d0      	movs	r3, #208	; 0xd0
100028b6:	2280      	movs	r2, #128	; 0x80
100028b8:	061b      	lsls	r3, r3, #24
100028ba:	0252      	lsls	r2, r2, #9
100028bc:	615a      	str	r2, [r3, #20]
100028be:	2280      	movs	r2, #128	; 0x80
100028c0:	02d2      	lsls	r2, r2, #11
100028c2:	619a      	str	r2, [r3, #24]
100028c4:	9b04      	ldr	r3, [sp, #16]
100028c6:	2b00      	cmp	r3, #0
100028c8:	d00e      	beq.n	100028e8 <tft_drawRoundRect+0x140>
100028ca:	2601      	movs	r6, #1
100028cc:	465f      	mov	r7, fp
100028ce:	4c8b      	ldr	r4, [pc, #556]	; (10002afc <tft_drawRoundRect+0x354>)
100028d0:	0038      	movs	r0, r7
100028d2:	f7fd ff1b 	bl	1000070c <tft_spiwrite16>
100028d6:	7823      	ldrb	r3, [r4, #0]
100028d8:	2b00      	cmp	r3, #0
100028da:	d1fc      	bne.n	100028d6 <tft_drawRoundRect+0x12e>
100028dc:	3d01      	subs	r5, #1
100028de:	b2ad      	uxth	r5, r5
100028e0:	7026      	strb	r6, [r4, #0]
100028e2:	2d00      	cmp	r5, #0
100028e4:	d1f4      	bne.n	100028d0 <tft_drawRoundRect+0x128>
100028e6:	46bb      	mov	fp, r7
100028e8:	23d0      	movs	r3, #208	; 0xd0
100028ea:	2280      	movs	r2, #128	; 0x80
100028ec:	061b      	lsls	r3, r3, #24
100028ee:	02d2      	lsls	r2, r2, #11
100028f0:	615a      	str	r2, [r3, #20]
100028f2:	4b80      	ldr	r3, [pc, #512]	; (10002af4 <tft_drawRoundRect+0x34c>)
100028f4:	881b      	ldrh	r3, [r3, #0]
100028f6:	464a      	mov	r2, r9
100028f8:	9807      	ldr	r0, [sp, #28]
100028fa:	9f03      	ldr	r7, [sp, #12]
100028fc:	1a12      	subs	r2, r2, r0
100028fe:	b295      	uxth	r5, r2
10002900:	b212      	sxth	r2, r2
10002902:	4447      	add	r7, r8
10002904:	4691      	mov	r9, r2
10002906:	9a08      	ldr	r2, [sp, #32]
10002908:	b2b9      	uxth	r1, r7
1000290a:	9104      	str	r1, [sp, #16]
1000290c:	b23f      	sxth	r7, r7
1000290e:	4293      	cmp	r3, r2
10002910:	dd39      	ble.n	10002986 <tft_drawRoundRect+0x1de>
10002912:	4b79      	ldr	r3, [pc, #484]	; (10002af8 <tft_drawRoundRect+0x350>)
10002914:	881b      	ldrh	r3, [r3, #0]
10002916:	429f      	cmp	r7, r3
10002918:	db00      	blt.n	1000291c <tft_drawRoundRect+0x174>
1000291a:	e1dc      	b.n	10002cd6 <tft_drawRoundRect+0x52e>
1000291c:	464a      	mov	r2, r9
1000291e:	19d2      	adds	r2, r2, r7
10002920:	002e      	movs	r6, r5
10002922:	464c      	mov	r4, r9
10002924:	4293      	cmp	r3, r2
10002926:	da02      	bge.n	1000292e <tft_drawRoundRect+0x186>
10002928:	1a5b      	subs	r3, r3, r1
1000292a:	b29e      	uxth	r6, r3
1000292c:	b21c      	sxth	r4, r3
1000292e:	9904      	ldr	r1, [sp, #16]
10002930:	9a02      	ldr	r2, [sp, #8]
10002932:	1e4b      	subs	r3, r1, #1
10002934:	18f3      	adds	r3, r6, r3
10002936:	0010      	movs	r0, r2
10002938:	b29b      	uxth	r3, r3
1000293a:	f7ff fd83 	bl	10002444 <tft_setAddrWindow>
1000293e:	23d0      	movs	r3, #208	; 0xd0
10002940:	2280      	movs	r2, #128	; 0x80
10002942:	061b      	lsls	r3, r3, #24
10002944:	0252      	lsls	r2, r2, #9
10002946:	615a      	str	r2, [r3, #20]
10002948:	2280      	movs	r2, #128	; 0x80
1000294a:	02d2      	lsls	r2, r2, #11
1000294c:	619a      	str	r2, [r3, #24]
1000294e:	2c00      	cmp	r4, #0
10002950:	d012      	beq.n	10002978 <tft_drawRoundRect+0x1d0>
10002952:	2301      	movs	r3, #1
10002954:	46aa      	mov	sl, r5
10002956:	4698      	mov	r8, r3
10002958:	465d      	mov	r5, fp
1000295a:	4c68      	ldr	r4, [pc, #416]	; (10002afc <tft_drawRoundRect+0x354>)
1000295c:	0028      	movs	r0, r5
1000295e:	f7fd fed5 	bl	1000070c <tft_spiwrite16>
10002962:	7823      	ldrb	r3, [r4, #0]
10002964:	2b00      	cmp	r3, #0
10002966:	d1fc      	bne.n	10002962 <tft_drawRoundRect+0x1ba>
10002968:	4643      	mov	r3, r8
1000296a:	3e01      	subs	r6, #1
1000296c:	b2b6      	uxth	r6, r6
1000296e:	7023      	strb	r3, [r4, #0]
10002970:	2e00      	cmp	r6, #0
10002972:	d1f3      	bne.n	1000295c <tft_drawRoundRect+0x1b4>
10002974:	46ab      	mov	fp, r5
10002976:	4655      	mov	r5, sl
10002978:	23d0      	movs	r3, #208	; 0xd0
1000297a:	2280      	movs	r2, #128	; 0x80
1000297c:	061b      	lsls	r3, r3, #24
1000297e:	02d2      	lsls	r2, r2, #11
10002980:	615a      	str	r2, [r3, #20]
10002982:	4b5c      	ldr	r3, [pc, #368]	; (10002af4 <tft_drawRoundRect+0x34c>)
10002984:	881b      	ldrh	r3, [r3, #0]
10002986:	9906      	ldr	r1, [sp, #24]
10002988:	9a02      	ldr	r2, [sp, #8]
1000298a:	468c      	mov	ip, r1
1000298c:	4462      	add	r2, ip
1000298e:	b292      	uxth	r2, r2
10002990:	1e51      	subs	r1, r2, #1
10002992:	b288      	uxth	r0, r1
10002994:	b209      	sxth	r1, r1
10002996:	9206      	str	r2, [sp, #24]
10002998:	4299      	cmp	r1, r3
1000299a:	da31      	bge.n	10002a00 <tft_drawRoundRect+0x258>
1000299c:	4b56      	ldr	r3, [pc, #344]	; (10002af8 <tft_drawRoundRect+0x350>)
1000299e:	881b      	ldrh	r3, [r3, #0]
100029a0:	429f      	cmp	r7, r3
100029a2:	da2d      	bge.n	10002a00 <tft_drawRoundRect+0x258>
100029a4:	444f      	add	r7, r9
100029a6:	42bb      	cmp	r3, r7
100029a8:	da04      	bge.n	100029b4 <tft_drawRoundRect+0x20c>
100029aa:	9a04      	ldr	r2, [sp, #16]
100029ac:	1a9b      	subs	r3, r3, r2
100029ae:	b29d      	uxth	r5, r3
100029b0:	b21b      	sxth	r3, r3
100029b2:	4699      	mov	r9, r3
100029b4:	9904      	ldr	r1, [sp, #16]
100029b6:	0002      	movs	r2, r0
100029b8:	1e4b      	subs	r3, r1, #1
100029ba:	18eb      	adds	r3, r5, r3
100029bc:	b29b      	uxth	r3, r3
100029be:	f7ff fd41 	bl	10002444 <tft_setAddrWindow>
100029c2:	23d0      	movs	r3, #208	; 0xd0
100029c4:	2280      	movs	r2, #128	; 0x80
100029c6:	061b      	lsls	r3, r3, #24
100029c8:	0252      	lsls	r2, r2, #9
100029ca:	615a      	str	r2, [r3, #20]
100029cc:	2280      	movs	r2, #128	; 0x80
100029ce:	02d2      	lsls	r2, r2, #11
100029d0:	619a      	str	r2, [r3, #24]
100029d2:	464b      	mov	r3, r9
100029d4:	2b00      	cmp	r3, #0
100029d6:	d00e      	beq.n	100029f6 <tft_drawRoundRect+0x24e>
100029d8:	2601      	movs	r6, #1
100029da:	465f      	mov	r7, fp
100029dc:	4c47      	ldr	r4, [pc, #284]	; (10002afc <tft_drawRoundRect+0x354>)
100029de:	0038      	movs	r0, r7
100029e0:	f7fd fe94 	bl	1000070c <tft_spiwrite16>
100029e4:	7823      	ldrb	r3, [r4, #0]
100029e6:	2b00      	cmp	r3, #0
100029e8:	d1fc      	bne.n	100029e4 <tft_drawRoundRect+0x23c>
100029ea:	3d01      	subs	r5, #1
100029ec:	b2ad      	uxth	r5, r5
100029ee:	7026      	strb	r6, [r4, #0]
100029f0:	2d00      	cmp	r5, #0
100029f2:	d1f4      	bne.n	100029de <tft_drawRoundRect+0x236>
100029f4:	46bb      	mov	fp, r7
100029f6:	23d0      	movs	r3, #208	; 0xd0
100029f8:	2280      	movs	r2, #128	; 0x80
100029fa:	061b      	lsls	r3, r3, #24
100029fc:	02d2      	lsls	r2, r2, #11
100029fe:	615a      	str	r2, [r3, #20]
10002a00:	2401      	movs	r4, #1
10002a02:	9a03      	ldr	r2, [sp, #12]
10002a04:	9f05      	ldr	r7, [sp, #20]
10002a06:	03d3      	lsls	r3, r2, #15
10002a08:	1a9b      	subs	r3, r3, r2
10002a0a:	005b      	lsls	r3, r3, #1
10002a0c:	1aa4      	subs	r4, r4, r2
10002a0e:	b21b      	sxth	r3, r3
10002a10:	b224      	sxth	r4, r4
10002a12:	9302      	str	r3, [sp, #8]
10002a14:	2f00      	cmp	r7, #0
10002a16:	dd55      	ble.n	10002ac4 <tft_drawRoundRect+0x31c>
10002a18:	469a      	mov	sl, r3
10002a1a:	2600      	movs	r6, #0
10002a1c:	46a1      	mov	r9, r4
10002a1e:	e03e      	b.n	10002a9e <tft_drawRoundRect+0x2f6>
10002a20:	3f01      	subs	r7, #1
10002a22:	b2bb      	uxth	r3, r7
10002a24:	4698      	mov	r8, r3
10002a26:	4653      	mov	r3, sl
10002a28:	3302      	adds	r3, #2
10002a2a:	b21a      	sxth	r2, r3
10002a2c:	4692      	mov	sl, r2
10002a2e:	191c      	adds	r4, r3, r4
10002a30:	b23f      	sxth	r7, r7
10002a32:	b2a4      	uxth	r4, r4
10002a34:	4642      	mov	r2, r8
10002a36:	3601      	adds	r6, #1
10002a38:	b2b5      	uxth	r5, r6
10002a3a:	006b      	lsls	r3, r5, #1
10002a3c:	3301      	adds	r3, #1
10002a3e:	18e4      	adds	r4, r4, r3
10002a40:	9b01      	ldr	r3, [sp, #4]
10002a42:	b236      	sxth	r6, r6
10002a44:	1a9b      	subs	r3, r3, r2
10002a46:	b224      	sxth	r4, r4
10002a48:	b218      	sxth	r0, r3
10002a4a:	041b      	lsls	r3, r3, #16
10002a4c:	d40f      	bmi.n	10002a6e <tft_drawRoundRect+0x2c6>
10002a4e:	4b29      	ldr	r3, [pc, #164]	; (10002af4 <tft_drawRoundRect+0x34c>)
10002a50:	881b      	ldrh	r3, [r3, #0]
10002a52:	4298      	cmp	r0, r3
10002a54:	da0b      	bge.n	10002a6e <tft_drawRoundRect+0x2c6>
10002a56:	9b04      	ldr	r3, [sp, #16]
10002a58:	1b5b      	subs	r3, r3, r5
10002a5a:	b219      	sxth	r1, r3
10002a5c:	041b      	lsls	r3, r3, #16
10002a5e:	d406      	bmi.n	10002a6e <tft_drawRoundRect+0x2c6>
10002a60:	4b25      	ldr	r3, [pc, #148]	; (10002af8 <tft_drawRoundRect+0x350>)
10002a62:	881b      	ldrh	r3, [r3, #0]
10002a64:	4299      	cmp	r1, r3
10002a66:	da02      	bge.n	10002a6e <tft_drawRoundRect+0x2c6>
10002a68:	465a      	mov	r2, fp
10002a6a:	f7fd fe77 	bl	1000075c <tft_drawPixel.part.0>
10002a6e:	9b01      	ldr	r3, [sp, #4]
10002a70:	1b5d      	subs	r5, r3, r5
10002a72:	b228      	sxth	r0, r5
10002a74:	042b      	lsls	r3, r5, #16
10002a76:	d410      	bmi.n	10002a9a <tft_drawRoundRect+0x2f2>
10002a78:	4b1e      	ldr	r3, [pc, #120]	; (10002af4 <tft_drawRoundRect+0x34c>)
10002a7a:	881b      	ldrh	r3, [r3, #0]
10002a7c:	4298      	cmp	r0, r3
10002a7e:	da0c      	bge.n	10002a9a <tft_drawRoundRect+0x2f2>
10002a80:	4642      	mov	r2, r8
10002a82:	9b04      	ldr	r3, [sp, #16]
10002a84:	1a9b      	subs	r3, r3, r2
10002a86:	b219      	sxth	r1, r3
10002a88:	041b      	lsls	r3, r3, #16
10002a8a:	d406      	bmi.n	10002a9a <tft_drawRoundRect+0x2f2>
10002a8c:	4b1a      	ldr	r3, [pc, #104]	; (10002af8 <tft_drawRoundRect+0x350>)
10002a8e:	881b      	ldrh	r3, [r3, #0]
10002a90:	4299      	cmp	r1, r3
10002a92:	da02      	bge.n	10002a9a <tft_drawRoundRect+0x2f2>
10002a94:	465a      	mov	r2, fp
10002a96:	f7fd fe61 	bl	1000075c <tft_drawPixel.part.0>
10002a9a:	42b7      	cmp	r7, r6
10002a9c:	dd19      	ble.n	10002ad2 <tft_drawRoundRect+0x32a>
10002a9e:	2c00      	cmp	r4, #0
10002aa0:	dabe      	bge.n	10002a20 <tft_drawRoundRect+0x278>
10002aa2:	b2bb      	uxth	r3, r7
10002aa4:	4698      	mov	r8, r3
10002aa6:	b2a4      	uxth	r4, r4
10002aa8:	e7c4      	b.n	10002a34 <tft_drawRoundRect+0x28c>
10002aaa:	b289      	uxth	r1, r1
10002aac:	4688      	mov	r8, r1
10002aae:	4649      	mov	r1, r9
10002ab0:	b289      	uxth	r1, r1
10002ab2:	4689      	mov	r9, r1
10002ab4:	4641      	mov	r1, r8
10002ab6:	4449      	add	r1, r9
10002ab8:	b289      	uxth	r1, r1
10002aba:	1e4c      	subs	r4, r1, #1
10002abc:	9109      	str	r1, [sp, #36]	; 0x24
10002abe:	b2a1      	uxth	r1, r4
10002ac0:	b224      	sxth	r4, r4
10002ac2:	e6e5      	b.n	10002890 <tft_drawRoundRect+0xe8>
10002ac4:	b00b      	add	sp, #44	; 0x2c
10002ac6:	bcf0      	pop	{r4, r5, r6, r7}
10002ac8:	46bb      	mov	fp, r7
10002aca:	46b2      	mov	sl, r6
10002acc:	46a9      	mov	r9, r5
10002ace:	46a0      	mov	r8, r4
10002ad0:	bdf0      	pop	{r4, r5, r6, r7, pc}
10002ad2:	9b03      	ldr	r3, [sp, #12]
10002ad4:	464c      	mov	r4, r9
10002ad6:	43db      	mvns	r3, r3
10002ad8:	b29a      	uxth	r2, r3
10002ada:	4694      	mov	ip, r2
10002adc:	9b06      	ldr	r3, [sp, #24]
10002ade:	2600      	movs	r6, #0
10002ae0:	4463      	add	r3, ip
10002ae2:	b29b      	uxth	r3, r3
10002ae4:	4699      	mov	r9, r3
10002ae6:	9b02      	ldr	r3, [sp, #8]
10002ae8:	46a2      	mov	sl, r4
10002aea:	9f05      	ldr	r7, [sp, #20]
10002aec:	9207      	str	r2, [sp, #28]
10002aee:	9303      	str	r3, [sp, #12]
10002af0:	e044      	b.n	10002b7c <tft_drawRoundRect+0x3d4>
10002af2:	46c0      	nop			; (mov r8, r8)
10002af4:	2000072e 	.word	0x2000072e
10002af8:	2000072c 	.word	0x2000072c
10002afc:	20000198 	.word	0x20000198
10002b00:	3f01      	subs	r7, #1
10002b02:	b2bb      	uxth	r3, r7
10002b04:	4698      	mov	r8, r3
10002b06:	9b03      	ldr	r3, [sp, #12]
10002b08:	b23f      	sxth	r7, r7
10002b0a:	3302      	adds	r3, #2
10002b0c:	b21a      	sxth	r2, r3
10002b0e:	191c      	adds	r4, r3, r4
10002b10:	9203      	str	r2, [sp, #12]
10002b12:	b2a4      	uxth	r4, r4
10002b14:	3601      	adds	r6, #1
10002b16:	b2b5      	uxth	r5, r6
10002b18:	006b      	lsls	r3, r5, #1
10002b1a:	3301      	adds	r3, #1
10002b1c:	18e4      	adds	r4, r4, r3
10002b1e:	464b      	mov	r3, r9
10002b20:	195b      	adds	r3, r3, r5
10002b22:	b236      	sxth	r6, r6
10002b24:	b224      	sxth	r4, r4
10002b26:	b218      	sxth	r0, r3
10002b28:	041b      	lsls	r3, r3, #16
10002b2a:	d410      	bmi.n	10002b4e <tft_drawRoundRect+0x3a6>
10002b2c:	4b6d      	ldr	r3, [pc, #436]	; (10002ce4 <tft_drawRoundRect+0x53c>)
10002b2e:	881b      	ldrh	r3, [r3, #0]
10002b30:	4298      	cmp	r0, r3
10002b32:	da0c      	bge.n	10002b4e <tft_drawRoundRect+0x3a6>
10002b34:	4642      	mov	r2, r8
10002b36:	9b04      	ldr	r3, [sp, #16]
10002b38:	1a9b      	subs	r3, r3, r2
10002b3a:	b219      	sxth	r1, r3
10002b3c:	041b      	lsls	r3, r3, #16
10002b3e:	d406      	bmi.n	10002b4e <tft_drawRoundRect+0x3a6>
10002b40:	4b69      	ldr	r3, [pc, #420]	; (10002ce8 <tft_drawRoundRect+0x540>)
10002b42:	881b      	ldrh	r3, [r3, #0]
10002b44:	4299      	cmp	r1, r3
10002b46:	da02      	bge.n	10002b4e <tft_drawRoundRect+0x3a6>
10002b48:	465a      	mov	r2, fp
10002b4a:	f7fd fe07 	bl	1000075c <tft_drawPixel.part.0>
10002b4e:	4643      	mov	r3, r8
10002b50:	444b      	add	r3, r9
10002b52:	b218      	sxth	r0, r3
10002b54:	041b      	lsls	r3, r3, #16
10002b56:	d40f      	bmi.n	10002b78 <tft_drawRoundRect+0x3d0>
10002b58:	4b62      	ldr	r3, [pc, #392]	; (10002ce4 <tft_drawRoundRect+0x53c>)
10002b5a:	881b      	ldrh	r3, [r3, #0]
10002b5c:	4298      	cmp	r0, r3
10002b5e:	da0b      	bge.n	10002b78 <tft_drawRoundRect+0x3d0>
10002b60:	9b04      	ldr	r3, [sp, #16]
10002b62:	1b5d      	subs	r5, r3, r5
10002b64:	b229      	sxth	r1, r5
10002b66:	042b      	lsls	r3, r5, #16
10002b68:	d406      	bmi.n	10002b78 <tft_drawRoundRect+0x3d0>
10002b6a:	4b5f      	ldr	r3, [pc, #380]	; (10002ce8 <tft_drawRoundRect+0x540>)
10002b6c:	881b      	ldrh	r3, [r3, #0]
10002b6e:	4299      	cmp	r1, r3
10002b70:	da02      	bge.n	10002b78 <tft_drawRoundRect+0x3d0>
10002b72:	465a      	mov	r2, fp
10002b74:	f7fd fdf2 	bl	1000075c <tft_drawPixel.part.0>
10002b78:	42b7      	cmp	r7, r6
10002b7a:	dd05      	ble.n	10002b88 <tft_drawRoundRect+0x3e0>
10002b7c:	2c00      	cmp	r4, #0
10002b7e:	dabf      	bge.n	10002b00 <tft_drawRoundRect+0x358>
10002b80:	b2bb      	uxth	r3, r7
10002b82:	4698      	mov	r8, r3
10002b84:	b2a4      	uxth	r4, r4
10002b86:	e7c5      	b.n	10002b14 <tft_drawRoundRect+0x36c>
10002b88:	9a09      	ldr	r2, [sp, #36]	; 0x24
10002b8a:	9b07      	ldr	r3, [sp, #28]
10002b8c:	4694      	mov	ip, r2
10002b8e:	4463      	add	r3, ip
10002b90:	b29b      	uxth	r3, r3
10002b92:	9304      	str	r3, [sp, #16]
10002b94:	9b02      	ldr	r3, [sp, #8]
10002b96:	4654      	mov	r4, sl
10002b98:	2600      	movs	r6, #0
10002b9a:	9f05      	ldr	r7, [sp, #20]
10002b9c:	9303      	str	r3, [sp, #12]
10002b9e:	e03d      	b.n	10002c1c <tft_drawRoundRect+0x474>
10002ba0:	3f01      	subs	r7, #1
10002ba2:	b2bb      	uxth	r3, r7
10002ba4:	4698      	mov	r8, r3
10002ba6:	9b03      	ldr	r3, [sp, #12]
10002ba8:	b23f      	sxth	r7, r7
10002baa:	3302      	adds	r3, #2
10002bac:	b21a      	sxth	r2, r3
10002bae:	191c      	adds	r4, r3, r4
10002bb0:	9203      	str	r2, [sp, #12]
10002bb2:	b2a4      	uxth	r4, r4
10002bb4:	3601      	adds	r6, #1
10002bb6:	b2b5      	uxth	r5, r6
10002bb8:	006b      	lsls	r3, r5, #1
10002bba:	3301      	adds	r3, #1
10002bbc:	18e4      	adds	r4, r4, r3
10002bbe:	464b      	mov	r3, r9
10002bc0:	195b      	adds	r3, r3, r5
10002bc2:	b236      	sxth	r6, r6
10002bc4:	b224      	sxth	r4, r4
10002bc6:	b218      	sxth	r0, r3
10002bc8:	041b      	lsls	r3, r3, #16
10002bca:	d40f      	bmi.n	10002bec <tft_drawRoundRect+0x444>
10002bcc:	4b45      	ldr	r3, [pc, #276]	; (10002ce4 <tft_drawRoundRect+0x53c>)
10002bce:	881b      	ldrh	r3, [r3, #0]
10002bd0:	4298      	cmp	r0, r3
10002bd2:	da0b      	bge.n	10002bec <tft_drawRoundRect+0x444>
10002bd4:	9b04      	ldr	r3, [sp, #16]
10002bd6:	4443      	add	r3, r8
10002bd8:	b219      	sxth	r1, r3
10002bda:	041b      	lsls	r3, r3, #16
10002bdc:	d406      	bmi.n	10002bec <tft_drawRoundRect+0x444>
10002bde:	4b42      	ldr	r3, [pc, #264]	; (10002ce8 <tft_drawRoundRect+0x540>)
10002be0:	881b      	ldrh	r3, [r3, #0]
10002be2:	4299      	cmp	r1, r3
10002be4:	da02      	bge.n	10002bec <tft_drawRoundRect+0x444>
10002be6:	465a      	mov	r2, fp
10002be8:	f7fd fdb8 	bl	1000075c <tft_drawPixel.part.0>
10002bec:	4643      	mov	r3, r8
10002bee:	444b      	add	r3, r9
10002bf0:	b218      	sxth	r0, r3
10002bf2:	041b      	lsls	r3, r3, #16
10002bf4:	d410      	bmi.n	10002c18 <tft_drawRoundRect+0x470>
10002bf6:	4b3b      	ldr	r3, [pc, #236]	; (10002ce4 <tft_drawRoundRect+0x53c>)
10002bf8:	881b      	ldrh	r3, [r3, #0]
10002bfa:	4298      	cmp	r0, r3
10002bfc:	da0c      	bge.n	10002c18 <tft_drawRoundRect+0x470>
10002bfe:	9b04      	ldr	r3, [sp, #16]
10002c00:	469c      	mov	ip, r3
10002c02:	4465      	add	r5, ip
10002c04:	b229      	sxth	r1, r5
10002c06:	042b      	lsls	r3, r5, #16
10002c08:	d406      	bmi.n	10002c18 <tft_drawRoundRect+0x470>
10002c0a:	4b37      	ldr	r3, [pc, #220]	; (10002ce8 <tft_drawRoundRect+0x540>)
10002c0c:	881b      	ldrh	r3, [r3, #0]
10002c0e:	4299      	cmp	r1, r3
10002c10:	da02      	bge.n	10002c18 <tft_drawRoundRect+0x470>
10002c12:	465a      	mov	r2, fp
10002c14:	f7fd fda2 	bl	1000075c <tft_drawPixel.part.0>
10002c18:	42b7      	cmp	r7, r6
10002c1a:	dd05      	ble.n	10002c28 <tft_drawRoundRect+0x480>
10002c1c:	2c00      	cmp	r4, #0
10002c1e:	dabf      	bge.n	10002ba0 <tft_drawRoundRect+0x3f8>
10002c20:	b2bb      	uxth	r3, r7
10002c22:	4698      	mov	r8, r3
10002c24:	b2a4      	uxth	r4, r4
10002c26:	e7c5      	b.n	10002bb4 <tft_drawRoundRect+0x40c>
10002c28:	4b2f      	ldr	r3, [pc, #188]	; (10002ce8 <tft_drawRoundRect+0x540>)
10002c2a:	4654      	mov	r4, sl
10002c2c:	4698      	mov	r8, r3
10002c2e:	9b01      	ldr	r3, [sp, #4]
10002c30:	2500      	movs	r5, #0
10002c32:	469a      	mov	sl, r3
10002c34:	9e05      	ldr	r6, [sp, #20]
10002c36:	e03e      	b.n	10002cb6 <tft_drawRoundRect+0x50e>
10002c38:	3e01      	subs	r6, #1
10002c3a:	b2b3      	uxth	r3, r6
10002c3c:	4699      	mov	r9, r3
10002c3e:	9b02      	ldr	r3, [sp, #8]
10002c40:	b236      	sxth	r6, r6
10002c42:	3302      	adds	r3, #2
10002c44:	b21a      	sxth	r2, r3
10002c46:	191c      	adds	r4, r3, r4
10002c48:	9202      	str	r2, [sp, #8]
10002c4a:	b2a4      	uxth	r4, r4
10002c4c:	3501      	adds	r5, #1
10002c4e:	b2af      	uxth	r7, r5
10002c50:	007b      	lsls	r3, r7, #1
10002c52:	3301      	adds	r3, #1
10002c54:	18e4      	adds	r4, r4, r3
10002c56:	464a      	mov	r2, r9
10002c58:	4653      	mov	r3, sl
10002c5a:	1a9b      	subs	r3, r3, r2
10002c5c:	b22d      	sxth	r5, r5
10002c5e:	b224      	sxth	r4, r4
10002c60:	b218      	sxth	r0, r3
10002c62:	041b      	lsls	r3, r3, #16
10002c64:	d40f      	bmi.n	10002c86 <tft_drawRoundRect+0x4de>
10002c66:	4b1f      	ldr	r3, [pc, #124]	; (10002ce4 <tft_drawRoundRect+0x53c>)
10002c68:	881b      	ldrh	r3, [r3, #0]
10002c6a:	4298      	cmp	r0, r3
10002c6c:	da0b      	bge.n	10002c86 <tft_drawRoundRect+0x4de>
10002c6e:	9b04      	ldr	r3, [sp, #16]
10002c70:	19db      	adds	r3, r3, r7
10002c72:	b219      	sxth	r1, r3
10002c74:	041b      	lsls	r3, r3, #16
10002c76:	d406      	bmi.n	10002c86 <tft_drawRoundRect+0x4de>
10002c78:	4643      	mov	r3, r8
10002c7a:	881b      	ldrh	r3, [r3, #0]
10002c7c:	4299      	cmp	r1, r3
10002c7e:	da02      	bge.n	10002c86 <tft_drawRoundRect+0x4de>
10002c80:	465a      	mov	r2, fp
10002c82:	f7fd fd6b 	bl	1000075c <tft_drawPixel.part.0>
10002c86:	4653      	mov	r3, sl
10002c88:	1bdf      	subs	r7, r3, r7
10002c8a:	b238      	sxth	r0, r7
10002c8c:	043b      	lsls	r3, r7, #16
10002c8e:	d40f      	bmi.n	10002cb0 <tft_drawRoundRect+0x508>
10002c90:	4b14      	ldr	r3, [pc, #80]	; (10002ce4 <tft_drawRoundRect+0x53c>)
10002c92:	881b      	ldrh	r3, [r3, #0]
10002c94:	4298      	cmp	r0, r3
10002c96:	da0b      	bge.n	10002cb0 <tft_drawRoundRect+0x508>
10002c98:	9b04      	ldr	r3, [sp, #16]
10002c9a:	444b      	add	r3, r9
10002c9c:	b219      	sxth	r1, r3
10002c9e:	041b      	lsls	r3, r3, #16
10002ca0:	d406      	bmi.n	10002cb0 <tft_drawRoundRect+0x508>
10002ca2:	4643      	mov	r3, r8
10002ca4:	881b      	ldrh	r3, [r3, #0]
10002ca6:	4299      	cmp	r1, r3
10002ca8:	da02      	bge.n	10002cb0 <tft_drawRoundRect+0x508>
10002caa:	465a      	mov	r2, fp
10002cac:	f7fd fd56 	bl	1000075c <tft_drawPixel.part.0>
10002cb0:	42ae      	cmp	r6, r5
10002cb2:	dc00      	bgt.n	10002cb6 <tft_drawRoundRect+0x50e>
10002cb4:	e706      	b.n	10002ac4 <tft_drawRoundRect+0x31c>
10002cb6:	2c00      	cmp	r4, #0
10002cb8:	dabe      	bge.n	10002c38 <tft_drawRoundRect+0x490>
10002cba:	b2b3      	uxth	r3, r6
10002cbc:	4699      	mov	r9, r3
10002cbe:	b2a4      	uxth	r4, r4
10002cc0:	e7c4      	b.n	10002c4c <tft_drawRoundRect+0x4a4>
10002cc2:	b28a      	uxth	r2, r1
10002cc4:	4690      	mov	r8, r2
10002cc6:	464a      	mov	r2, r9
10002cc8:	b292      	uxth	r2, r2
10002cca:	4691      	mov	r9, r2
10002ccc:	4642      	mov	r2, r8
10002cce:	444a      	add	r2, r9
10002cd0:	b292      	uxth	r2, r2
10002cd2:	9209      	str	r2, [sp, #36]	; 0x24
10002cd4:	e60f      	b.n	100028f6 <tft_drawRoundRect+0x14e>
10002cd6:	9b06      	ldr	r3, [sp, #24]
10002cd8:	9a02      	ldr	r2, [sp, #8]
10002cda:	469c      	mov	ip, r3
10002cdc:	4462      	add	r2, ip
10002cde:	b293      	uxth	r3, r2
10002ce0:	9306      	str	r3, [sp, #24]
10002ce2:	e68d      	b.n	10002a00 <tft_drawRoundRect+0x258>
10002ce4:	2000072e 	.word	0x2000072e
10002ce8:	2000072c 	.word	0x2000072c

10002cec <tft_fillRoundRect>:
10002cec:	b5f0      	push	{r4, r5, r6, r7, lr}
10002cee:	4645      	mov	r5, r8
10002cf0:	46de      	mov	lr, fp
10002cf2:	4657      	mov	r7, sl
10002cf4:	464e      	mov	r6, r9
10002cf6:	b5e0      	push	{r5, r6, r7, lr}
10002cf8:	b091      	sub	sp, #68	; 0x44
10002cfa:	001c      	movs	r4, r3
10002cfc:	ab1a      	add	r3, sp, #104	; 0x68
10002cfe:	881f      	ldrh	r7, [r3, #0]
10002d00:	4688      	mov	r8, r1
10002d02:	2500      	movs	r5, #0
10002d04:	5f59      	ldrsh	r1, [r3, r5]
10002d06:	b285      	uxth	r5, r0
10002d08:	19e8      	adds	r0, r5, r7
10002d0a:	b283      	uxth	r3, r0
10002d0c:	9306      	str	r3, [sp, #24]
10002d0e:	b293      	uxth	r3, r2
10002d10:	469a      	mov	sl, r3
10002d12:	007b      	lsls	r3, r7, #1
10002d14:	b29b      	uxth	r3, r3
10002d16:	4699      	mov	r9, r3
10002d18:	4653      	mov	r3, sl
10002d1a:	464a      	mov	r2, r9
10002d1c:	9102      	str	r1, [sp, #8]
10002d1e:	a91b      	add	r1, sp, #108	; 0x6c
10002d20:	880e      	ldrh	r6, [r1, #0]
10002d22:	1a9a      	subs	r2, r3, r2
10002d24:	4641      	mov	r1, r8
10002d26:	0023      	movs	r3, r4
10002d28:	b212      	sxth	r2, r2
10002d2a:	b200      	sxth	r0, r0
10002d2c:	9600      	str	r6, [sp, #0]
10002d2e:	f7ff fc2f 	bl	10002590 <tft_fillRect>
10002d32:	4653      	mov	r3, sl
10002d34:	1e5a      	subs	r2, r3, #1
10002d36:	18ad      	adds	r5, r5, r2
10002d38:	1bed      	subs	r5, r5, r7
10002d3a:	b2ab      	uxth	r3, r5
10002d3c:	9307      	str	r3, [sp, #28]
10002d3e:	4643      	mov	r3, r8
10002d40:	2201      	movs	r2, #1
10002d42:	18f9      	adds	r1, r7, r3
10002d44:	464b      	mov	r3, r9
10002d46:	1bd2      	subs	r2, r2, r7
10002d48:	b212      	sxth	r2, r2
10002d4a:	4693      	mov	fp, r2
10002d4c:	03fa      	lsls	r2, r7, #15
10002d4e:	1bd7      	subs	r7, r2, r7
10002d50:	b288      	uxth	r0, r1
10002d52:	3c01      	subs	r4, #1
10002d54:	007f      	lsls	r7, r7, #1
10002d56:	9902      	ldr	r1, [sp, #8]
10002d58:	1ae3      	subs	r3, r4, r3
10002d5a:	b23c      	sxth	r4, r7
10002d5c:	900a      	str	r0, [sp, #40]	; 0x28
10002d5e:	b29b      	uxth	r3, r3
10002d60:	9408      	str	r4, [sp, #32]
10002d62:	2900      	cmp	r1, #0
10002d64:	dc00      	bgt.n	10002d68 <tft_fillRoundRect+0x7c>
10002d66:	e1a5      	b.n	100030b4 <tft_fillRoundRect+0x3c8>
10002d68:	1c5a      	adds	r2, r3, #1
10002d6a:	3303      	adds	r3, #3
10002d6c:	b29b      	uxth	r3, r3
10002d6e:	9304      	str	r3, [sp, #16]
10002d70:	9303      	str	r3, [sp, #12]
10002d72:	2300      	movs	r3, #0
10002d74:	469a      	mov	sl, r3
10002d76:	b292      	uxth	r2, r2
10002d78:	920b      	str	r2, [sp, #44]	; 0x2c
10002d7a:	4ad2      	ldr	r2, [pc, #840]	; (100030c4 <tft_fillRoundRect+0x3d8>)
10002d7c:	1e43      	subs	r3, r0, #1
10002d7e:	8812      	ldrh	r2, [r2, #0]
10002d80:	930d      	str	r3, [sp, #52]	; 0x34
10002d82:	465b      	mov	r3, fp
10002d84:	46d9      	mov	r9, fp
10002d86:	4657      	mov	r7, sl
10002d88:	468b      	mov	fp, r1
10002d8a:	0015      	movs	r5, r2
10002d8c:	46b0      	mov	r8, r6
10002d8e:	9409      	str	r4, [sp, #36]	; 0x24
10002d90:	4ccd      	ldr	r4, [pc, #820]	; (100030c8 <tft_fillRoundRect+0x3dc>)
10002d92:	930f      	str	r3, [sp, #60]	; 0x3c
10002d94:	464b      	mov	r3, r9
10002d96:	2b00      	cmp	r3, #0
10002d98:	da00      	bge.n	10002d9c <tft_fillRoundRect+0xb0>
10002d9a:	e181      	b.n	100030a0 <tft_fillRoundRect+0x3b4>
10002d9c:	465b      	mov	r3, fp
10002d9e:	3b01      	subs	r3, #1
10002da0:	b29a      	uxth	r2, r3
10002da2:	b21b      	sxth	r3, r3
10002da4:	469b      	mov	fp, r3
10002da6:	9b09      	ldr	r3, [sp, #36]	; 0x24
10002da8:	9205      	str	r2, [sp, #20]
10002daa:	3302      	adds	r3, #2
10002dac:	b21a      	sxth	r2, r3
10002dae:	444b      	add	r3, r9
10002db0:	9209      	str	r2, [sp, #36]	; 0x24
10002db2:	b29b      	uxth	r3, r3
10002db4:	b2ba      	uxth	r2, r7
10002db6:	1c57      	adds	r7, r2, #1
10002db8:	b2be      	uxth	r6, r7
10002dba:	4692      	mov	sl, r2
10002dbc:	0072      	lsls	r2, r6, #1
10002dbe:	3201      	adds	r2, #1
10002dc0:	189b      	adds	r3, r3, r2
10002dc2:	b21b      	sxth	r3, r3
10002dc4:	4699      	mov	r9, r3
10002dc6:	9b07      	ldr	r3, [sp, #28]
10002dc8:	b23f      	sxth	r7, r7
10002dca:	199b      	adds	r3, r3, r6
10002dcc:	b298      	uxth	r0, r3
10002dce:	b21b      	sxth	r3, r3
10002dd0:	42ab      	cmp	r3, r5
10002dd2:	da48      	bge.n	10002e66 <tft_fillRoundRect+0x17a>
10002dd4:	9a0a      	ldr	r2, [sp, #40]	; 0x28
10002dd6:	9905      	ldr	r1, [sp, #20]
10002dd8:	1a53      	subs	r3, r2, r1
10002dda:	b29a      	uxth	r2, r3
10002ddc:	920c      	str	r2, [sp, #48]	; 0x30
10002dde:	4abb      	ldr	r2, [pc, #748]	; (100030cc <tft_fillRoundRect+0x3e0>)
10002de0:	b21b      	sxth	r3, r3
10002de2:	8812      	ldrh	r2, [r2, #0]
10002de4:	4293      	cmp	r3, r2
10002de6:	da3e      	bge.n	10002e66 <tft_fillRoundRect+0x17a>
10002de8:	004d      	lsls	r5, r1, #1
10002dea:	990b      	ldr	r1, [sp, #44]	; 0x2c
10002dec:	468c      	mov	ip, r1
10002dee:	44ac      	add	ip, r5
10002df0:	4661      	mov	r1, ip
10002df2:	b28d      	uxth	r5, r1
10002df4:	b209      	sxth	r1, r1
10002df6:	468c      	mov	ip, r1
10002df8:	4463      	add	r3, ip
10002dfa:	910e      	str	r1, [sp, #56]	; 0x38
10002dfc:	429a      	cmp	r2, r3
10002dfe:	da07      	bge.n	10002e10 <tft_fillRoundRect+0x124>
10002e00:	9d05      	ldr	r5, [sp, #20]
10002e02:	9b0a      	ldr	r3, [sp, #40]	; 0x28
10002e04:	46ac      	mov	ip, r5
10002e06:	1ad2      	subs	r2, r2, r3
10002e08:	4462      	add	r2, ip
10002e0a:	b213      	sxth	r3, r2
10002e0c:	b295      	uxth	r5, r2
10002e0e:	930e      	str	r3, [sp, #56]	; 0x38
10002e10:	990c      	ldr	r1, [sp, #48]	; 0x30
10002e12:	0002      	movs	r2, r0
10002e14:	1e4b      	subs	r3, r1, #1
10002e16:	18eb      	adds	r3, r5, r3
10002e18:	b29b      	uxth	r3, r3
10002e1a:	f7ff fb13 	bl	10002444 <tft_setAddrWindow>
10002e1e:	23d0      	movs	r3, #208	; 0xd0
10002e20:	2280      	movs	r2, #128	; 0x80
10002e22:	061b      	lsls	r3, r3, #24
10002e24:	0252      	lsls	r2, r2, #9
10002e26:	615a      	str	r2, [r3, #20]
10002e28:	2280      	movs	r2, #128	; 0x80
10002e2a:	02d2      	lsls	r2, r2, #11
10002e2c:	619a      	str	r2, [r3, #24]
10002e2e:	9b0e      	ldr	r3, [sp, #56]	; 0x38
10002e30:	2b00      	cmp	r3, #0
10002e32:	d011      	beq.n	10002e58 <tft_fillRoundRect+0x16c>
10002e34:	4643      	mov	r3, r8
10002e36:	46b0      	mov	r8, r6
10002e38:	001e      	movs	r6, r3
10002e3a:	0030      	movs	r0, r6
10002e3c:	f7fd fc66 	bl	1000070c <tft_spiwrite16>
10002e40:	7823      	ldrb	r3, [r4, #0]
10002e42:	2b00      	cmp	r3, #0
10002e44:	d1fc      	bne.n	10002e40 <tft_fillRoundRect+0x154>
10002e46:	3d01      	subs	r5, #1
10002e48:	3301      	adds	r3, #1
10002e4a:	b2ad      	uxth	r5, r5
10002e4c:	7023      	strb	r3, [r4, #0]
10002e4e:	2d00      	cmp	r5, #0
10002e50:	d1f3      	bne.n	10002e3a <tft_fillRoundRect+0x14e>
10002e52:	0033      	movs	r3, r6
10002e54:	4646      	mov	r6, r8
10002e56:	4698      	mov	r8, r3
10002e58:	23d0      	movs	r3, #208	; 0xd0
10002e5a:	2280      	movs	r2, #128	; 0x80
10002e5c:	061b      	lsls	r3, r3, #24
10002e5e:	02d2      	lsls	r2, r2, #11
10002e60:	615a      	str	r2, [r3, #20]
10002e62:	4b98      	ldr	r3, [pc, #608]	; (100030c4 <tft_fillRoundRect+0x3d8>)
10002e64:	881d      	ldrh	r5, [r3, #0]
10002e66:	9a07      	ldr	r2, [sp, #28]
10002e68:	9b05      	ldr	r3, [sp, #20]
10002e6a:	4694      	mov	ip, r2
10002e6c:	4463      	add	r3, ip
10002e6e:	b298      	uxth	r0, r3
10002e70:	b21b      	sxth	r3, r3
10002e72:	42ab      	cmp	r3, r5
10002e74:	da47      	bge.n	10002f06 <tft_fillRoundRect+0x21a>
10002e76:	9b0a      	ldr	r3, [sp, #40]	; 0x28
10002e78:	1b9b      	subs	r3, r3, r6
10002e7a:	b29a      	uxth	r2, r3
10002e7c:	9205      	str	r2, [sp, #20]
10002e7e:	4a93      	ldr	r2, [pc, #588]	; (100030cc <tft_fillRoundRect+0x3e0>)
10002e80:	b21b      	sxth	r3, r3
10002e82:	8812      	ldrh	r2, [r2, #0]
10002e84:	4293      	cmp	r3, r2
10002e86:	da3e      	bge.n	10002f06 <tft_fillRoundRect+0x21a>
10002e88:	4669      	mov	r1, sp
10002e8a:	250c      	movs	r5, #12
10002e8c:	5f4d      	ldrsh	r5, [r1, r5]
10002e8e:	46ac      	mov	ip, r5
10002e90:	4463      	add	r3, ip
10002e92:	950c      	str	r5, [sp, #48]	; 0x30
10002e94:	9d03      	ldr	r5, [sp, #12]
10002e96:	429a      	cmp	r2, r3
10002e98:	da06      	bge.n	10002ea8 <tft_fillRoundRect+0x1bc>
10002e9a:	9b0a      	ldr	r3, [sp, #40]	; 0x28
10002e9c:	3201      	adds	r2, #1
10002e9e:	1ad3      	subs	r3, r2, r3
10002ea0:	4453      	add	r3, sl
10002ea2:	b29d      	uxth	r5, r3
10002ea4:	b21b      	sxth	r3, r3
10002ea6:	930c      	str	r3, [sp, #48]	; 0x30
10002ea8:	9b0d      	ldr	r3, [sp, #52]	; 0x34
10002eaa:	0002      	movs	r2, r0
10002eac:	1b9b      	subs	r3, r3, r6
10002eae:	18eb      	adds	r3, r5, r3
10002eb0:	b29b      	uxth	r3, r3
10002eb2:	9905      	ldr	r1, [sp, #20]
10002eb4:	f7ff fac6 	bl	10002444 <tft_setAddrWindow>
10002eb8:	23d0      	movs	r3, #208	; 0xd0
10002eba:	2280      	movs	r2, #128	; 0x80
10002ebc:	061b      	lsls	r3, r3, #24
10002ebe:	0252      	lsls	r2, r2, #9
10002ec0:	615a      	str	r2, [r3, #20]
10002ec2:	2280      	movs	r2, #128	; 0x80
10002ec4:	02d2      	lsls	r2, r2, #11
10002ec6:	619a      	str	r2, [r3, #24]
10002ec8:	9b0c      	ldr	r3, [sp, #48]	; 0x30
10002eca:	2b00      	cmp	r3, #0
10002ecc:	d014      	beq.n	10002ef8 <tft_fillRoundRect+0x20c>
10002ece:	2301      	movs	r3, #1
10002ed0:	469a      	mov	sl, r3
10002ed2:	4643      	mov	r3, r8
10002ed4:	46b8      	mov	r8, r7
10002ed6:	001f      	movs	r7, r3
10002ed8:	4e7b      	ldr	r6, [pc, #492]	; (100030c8 <tft_fillRoundRect+0x3dc>)
10002eda:	0038      	movs	r0, r7
10002edc:	f7fd fc16 	bl	1000070c <tft_spiwrite16>
10002ee0:	7833      	ldrb	r3, [r6, #0]
10002ee2:	2b00      	cmp	r3, #0
10002ee4:	d1fc      	bne.n	10002ee0 <tft_fillRoundRect+0x1f4>
10002ee6:	4653      	mov	r3, sl
10002ee8:	3d01      	subs	r5, #1
10002eea:	b2ad      	uxth	r5, r5
10002eec:	7033      	strb	r3, [r6, #0]
10002eee:	2d00      	cmp	r5, #0
10002ef0:	d1f3      	bne.n	10002eda <tft_fillRoundRect+0x1ee>
10002ef2:	003b      	movs	r3, r7
10002ef4:	4647      	mov	r7, r8
10002ef6:	4698      	mov	r8, r3
10002ef8:	23d0      	movs	r3, #208	; 0xd0
10002efa:	2280      	movs	r2, #128	; 0x80
10002efc:	061b      	lsls	r3, r3, #24
10002efe:	02d2      	lsls	r2, r2, #11
10002f00:	615a      	str	r2, [r3, #20]
10002f02:	4b70      	ldr	r3, [pc, #448]	; (100030c4 <tft_fillRoundRect+0x3d8>)
10002f04:	881d      	ldrh	r5, [r3, #0]
10002f06:	9b03      	ldr	r3, [sp, #12]
10002f08:	3302      	adds	r3, #2
10002f0a:	b29b      	uxth	r3, r3
10002f0c:	9303      	str	r3, [sp, #12]
10002f0e:	45bb      	cmp	fp, r7
10002f10:	dd00      	ble.n	10002f14 <tft_fillRoundRect+0x228>
10002f12:	e73f      	b.n	10002d94 <tft_fillRoundRect+0xa8>
10002f14:	9b0f      	ldr	r3, [sp, #60]	; 0x3c
10002f16:	002a      	movs	r2, r5
10002f18:	469b      	mov	fp, r3
10002f1a:	466b      	mov	r3, sp
10002f1c:	8e9b      	ldrh	r3, [r3, #52]	; 0x34
10002f1e:	2501      	movs	r5, #1
10002f20:	469a      	mov	sl, r3
10002f22:	465b      	mov	r3, fp
10002f24:	0011      	movs	r1, r2
10002f26:	4c68      	ldr	r4, [pc, #416]	; (100030c8 <tft_fillRoundRect+0x3dc>)
10002f28:	2b00      	cmp	r3, #0
10002f2a:	da00      	bge.n	10002f2e <tft_fillRoundRect+0x242>
10002f2c:	e0b4      	b.n	10003098 <tft_fillRoundRect+0x3ac>
10002f2e:	9b02      	ldr	r3, [sp, #8]
10002f30:	3b01      	subs	r3, #1
10002f32:	b29e      	uxth	r6, r3
10002f34:	b21b      	sxth	r3, r3
10002f36:	9302      	str	r3, [sp, #8]
10002f38:	9b08      	ldr	r3, [sp, #32]
10002f3a:	3302      	adds	r3, #2
10002f3c:	b21a      	sxth	r2, r3
10002f3e:	445b      	add	r3, fp
10002f40:	9208      	str	r2, [sp, #32]
10002f42:	b29b      	uxth	r3, r3
10002f44:	006a      	lsls	r2, r5, #1
10002f46:	3201      	adds	r2, #1
10002f48:	189b      	adds	r3, r3, r2
10002f4a:	b21b      	sxth	r3, r3
10002f4c:	469b      	mov	fp, r3
10002f4e:	9b06      	ldr	r3, [sp, #24]
10002f50:	1b5b      	subs	r3, r3, r5
10002f52:	b298      	uxth	r0, r3
10002f54:	b21b      	sxth	r3, r3
10002f56:	428b      	cmp	r3, r1
10002f58:	da47      	bge.n	10002fea <tft_fillRoundRect+0x2fe>
10002f5a:	9b0a      	ldr	r3, [sp, #40]	; 0x28
10002f5c:	1b9b      	subs	r3, r3, r6
10002f5e:	b29a      	uxth	r2, r3
10002f60:	4694      	mov	ip, r2
10002f62:	4a5a      	ldr	r2, [pc, #360]	; (100030cc <tft_fillRoundRect+0x3e0>)
10002f64:	b21b      	sxth	r3, r3
10002f66:	8812      	ldrh	r2, [r2, #0]
10002f68:	4293      	cmp	r3, r2
10002f6a:	da3e      	bge.n	10002fea <tft_fillRoundRect+0x2fe>
10002f6c:	9f0b      	ldr	r7, [sp, #44]	; 0x2c
10002f6e:	0071      	lsls	r1, r6, #1
10002f70:	46b9      	mov	r9, r7
10002f72:	4449      	add	r1, r9
10002f74:	b28f      	uxth	r7, r1
10002f76:	b209      	sxth	r1, r1
10002f78:	4689      	mov	r9, r1
10002f7a:	444b      	add	r3, r9
10002f7c:	9103      	str	r1, [sp, #12]
10002f7e:	429a      	cmp	r2, r3
10002f80:	da05      	bge.n	10002f8e <tft_fillRoundRect+0x2a2>
10002f82:	9b0a      	ldr	r3, [sp, #40]	; 0x28
10002f84:	1ad2      	subs	r2, r2, r3
10002f86:	18b2      	adds	r2, r6, r2
10002f88:	b213      	sxth	r3, r2
10002f8a:	b297      	uxth	r7, r2
10002f8c:	9303      	str	r3, [sp, #12]
10002f8e:	4663      	mov	r3, ip
10002f90:	3b01      	subs	r3, #1
10002f92:	18fb      	adds	r3, r7, r3
10002f94:	0002      	movs	r2, r0
10002f96:	b29b      	uxth	r3, r3
10002f98:	4661      	mov	r1, ip
10002f9a:	f7ff fa53 	bl	10002444 <tft_setAddrWindow>
10002f9e:	23d0      	movs	r3, #208	; 0xd0
10002fa0:	2280      	movs	r2, #128	; 0x80
10002fa2:	061b      	lsls	r3, r3, #24
10002fa4:	0252      	lsls	r2, r2, #9
10002fa6:	615a      	str	r2, [r3, #20]
10002fa8:	2280      	movs	r2, #128	; 0x80
10002faa:	02d2      	lsls	r2, r2, #11
10002fac:	619a      	str	r2, [r3, #24]
10002fae:	2301      	movs	r3, #1
10002fb0:	4699      	mov	r9, r3
10002fb2:	9b03      	ldr	r3, [sp, #12]
10002fb4:	2b00      	cmp	r3, #0
10002fb6:	d011      	beq.n	10002fdc <tft_fillRoundRect+0x2f0>
10002fb8:	4643      	mov	r3, r8
10002fba:	46a8      	mov	r8, r5
10002fbc:	001d      	movs	r5, r3
10002fbe:	0028      	movs	r0, r5
10002fc0:	f7fd fba4 	bl	1000070c <tft_spiwrite16>
10002fc4:	7823      	ldrb	r3, [r4, #0]
10002fc6:	2b00      	cmp	r3, #0
10002fc8:	d1fc      	bne.n	10002fc4 <tft_fillRoundRect+0x2d8>
10002fca:	464b      	mov	r3, r9
10002fcc:	3f01      	subs	r7, #1
10002fce:	b2bf      	uxth	r7, r7
10002fd0:	7023      	strb	r3, [r4, #0]
10002fd2:	2f00      	cmp	r7, #0
10002fd4:	d1f3      	bne.n	10002fbe <tft_fillRoundRect+0x2d2>
10002fd6:	002b      	movs	r3, r5
10002fd8:	4645      	mov	r5, r8
10002fda:	4698      	mov	r8, r3
10002fdc:	23d0      	movs	r3, #208	; 0xd0
10002fde:	2280      	movs	r2, #128	; 0x80
10002fe0:	061b      	lsls	r3, r3, #24
10002fe2:	02d2      	lsls	r2, r2, #11
10002fe4:	615a      	str	r2, [r3, #20]
10002fe6:	4b37      	ldr	r3, [pc, #220]	; (100030c4 <tft_fillRoundRect+0x3d8>)
10002fe8:	8819      	ldrh	r1, [r3, #0]
10002fea:	9b06      	ldr	r3, [sp, #24]
10002fec:	1b9e      	subs	r6, r3, r6
10002fee:	b2b0      	uxth	r0, r6
10002ff0:	b236      	sxth	r6, r6
10002ff2:	428e      	cmp	r6, r1
10002ff4:	da59      	bge.n	100030aa <tft_fillRoundRect+0x3be>
10002ff6:	4653      	mov	r3, sl
10002ff8:	b21a      	sxth	r2, r3
10002ffa:	4b34      	ldr	r3, [pc, #208]	; (100030cc <tft_fillRoundRect+0x3e0>)
10002ffc:	881b      	ldrh	r3, [r3, #0]
10002ffe:	429a      	cmp	r2, r3
10003000:	da53      	bge.n	100030aa <tft_fillRoundRect+0x3be>
10003002:	9f04      	ldr	r7, [sp, #16]
10003004:	b23e      	sxth	r6, r7
10003006:	18b2      	adds	r2, r6, r2
10003008:	4293      	cmp	r3, r2
1000300a:	da04      	bge.n	10003016 <tft_fillRoundRect+0x32a>
1000300c:	9a0a      	ldr	r2, [sp, #40]	; 0x28
1000300e:	1a9b      	subs	r3, r3, r2
10003010:	18eb      	adds	r3, r5, r3
10003012:	b29f      	uxth	r7, r3
10003014:	b21e      	sxth	r6, r3
10003016:	2301      	movs	r3, #1
10003018:	425b      	negs	r3, r3
1000301a:	4453      	add	r3, sl
1000301c:	4699      	mov	r9, r3
1000301e:	18fb      	adds	r3, r7, r3
10003020:	0002      	movs	r2, r0
10003022:	b29b      	uxth	r3, r3
10003024:	4651      	mov	r1, sl
10003026:	f7ff fa0d 	bl	10002444 <tft_setAddrWindow>
1000302a:	23d0      	movs	r3, #208	; 0xd0
1000302c:	2280      	movs	r2, #128	; 0x80
1000302e:	061b      	lsls	r3, r3, #24
10003030:	0252      	lsls	r2, r2, #9
10003032:	615a      	str	r2, [r3, #20]
10003034:	2280      	movs	r2, #128	; 0x80
10003036:	02d2      	lsls	r2, r2, #11
10003038:	619a      	str	r2, [r3, #24]
1000303a:	2e00      	cmp	r6, #0
1000303c:	d014      	beq.n	10003068 <tft_fillRoundRect+0x37c>
1000303e:	2301      	movs	r3, #1
10003040:	469a      	mov	sl, r3
10003042:	4643      	mov	r3, r8
10003044:	46a8      	mov	r8, r5
10003046:	001d      	movs	r5, r3
10003048:	4e1f      	ldr	r6, [pc, #124]	; (100030c8 <tft_fillRoundRect+0x3dc>)
1000304a:	0028      	movs	r0, r5
1000304c:	f7fd fb5e 	bl	1000070c <tft_spiwrite16>
10003050:	7833      	ldrb	r3, [r6, #0]
10003052:	2b00      	cmp	r3, #0
10003054:	d1fc      	bne.n	10003050 <tft_fillRoundRect+0x364>
10003056:	4653      	mov	r3, sl
10003058:	3f01      	subs	r7, #1
1000305a:	b2bf      	uxth	r7, r7
1000305c:	7033      	strb	r3, [r6, #0]
1000305e:	2f00      	cmp	r7, #0
10003060:	d1f3      	bne.n	1000304a <tft_fillRoundRect+0x35e>
10003062:	002b      	movs	r3, r5
10003064:	4645      	mov	r5, r8
10003066:	4698      	mov	r8, r3
10003068:	23d0      	movs	r3, #208	; 0xd0
1000306a:	2280      	movs	r2, #128	; 0x80
1000306c:	061b      	lsls	r3, r3, #24
1000306e:	02d2      	lsls	r2, r2, #11
10003070:	615a      	str	r2, [r3, #20]
10003072:	464b      	mov	r3, r9
10003074:	b29b      	uxth	r3, r3
10003076:	469a      	mov	sl, r3
10003078:	9b04      	ldr	r3, [sp, #16]
1000307a:	9a02      	ldr	r2, [sp, #8]
1000307c:	3302      	adds	r3, #2
1000307e:	b29b      	uxth	r3, r3
10003080:	9304      	str	r3, [sp, #16]
10003082:	b22b      	sxth	r3, r5
10003084:	429a      	cmp	r2, r3
10003086:	dd15      	ble.n	100030b4 <tft_fillRoundRect+0x3c8>
10003088:	4b0e      	ldr	r3, [pc, #56]	; (100030c4 <tft_fillRoundRect+0x3d8>)
1000308a:	3501      	adds	r5, #1
1000308c:	8819      	ldrh	r1, [r3, #0]
1000308e:	465b      	mov	r3, fp
10003090:	b2ad      	uxth	r5, r5
10003092:	2b00      	cmp	r3, #0
10003094:	db00      	blt.n	10003098 <tft_fillRoundRect+0x3ac>
10003096:	e74a      	b.n	10002f2e <tft_fillRoundRect+0x242>
10003098:	466a      	mov	r2, sp
1000309a:	b29b      	uxth	r3, r3
1000309c:	8916      	ldrh	r6, [r2, #8]
1000309e:	e751      	b.n	10002f44 <tft_fillRoundRect+0x258>
100030a0:	465a      	mov	r2, fp
100030a2:	b292      	uxth	r2, r2
100030a4:	b29b      	uxth	r3, r3
100030a6:	9205      	str	r2, [sp, #20]
100030a8:	e684      	b.n	10002db4 <tft_fillRoundRect+0xc8>
100030aa:	2301      	movs	r3, #1
100030ac:	425b      	negs	r3, r3
100030ae:	4453      	add	r3, sl
100030b0:	4699      	mov	r9, r3
100030b2:	e7de      	b.n	10003072 <tft_fillRoundRect+0x386>
100030b4:	b011      	add	sp, #68	; 0x44
100030b6:	bcf0      	pop	{r4, r5, r6, r7}
100030b8:	46bb      	mov	fp, r7
100030ba:	46b2      	mov	sl, r6
100030bc:	46a9      	mov	r9, r5
100030be:	46a0      	mov	r8, r4
100030c0:	bdf0      	pop	{r4, r5, r6, r7, pc}
100030c2:	46c0      	nop			; (mov r8, r8)
100030c4:	2000072e 	.word	0x2000072e
100030c8:	20000198 	.word	0x20000198
100030cc:	2000072c 	.word	0x2000072c

100030d0 <tft_drawChar>:
100030d0:	b5f0      	push	{r4, r5, r6, r7, lr}
100030d2:	4645      	mov	r5, r8
100030d4:	46de      	mov	lr, fp
100030d6:	4657      	mov	r7, sl
100030d8:	464e      	mov	r6, r9
100030da:	b5e0      	push	{r5, r6, r7, lr}
100030dc:	b08d      	sub	sp, #52	; 0x34
100030de:	9304      	str	r3, [sp, #16]
100030e0:	ab16      	add	r3, sp, #88	; 0x58
100030e2:	881b      	ldrh	r3, [r3, #0]
100030e4:	9305      	str	r3, [sp, #20]
100030e6:	ab17      	add	r3, sp, #92	; 0x5c
100030e8:	781b      	ldrb	r3, [r3, #0]
100030ea:	4698      	mov	r8, r3
100030ec:	4b4c      	ldr	r3, [pc, #304]	; (10003220 <tft_drawChar+0x150>)
100030ee:	881b      	ldrh	r3, [r3, #0]
100030f0:	4298      	cmp	r0, r3
100030f2:	da67      	bge.n	100031c4 <tft_drawChar+0xf4>
100030f4:	4b4b      	ldr	r3, [pc, #300]	; (10003224 <tft_drawChar+0x154>)
100030f6:	881b      	ldrh	r3, [r3, #0]
100030f8:	4299      	cmp	r1, r3
100030fa:	da63      	bge.n	100031c4 <tft_drawChar+0xf4>
100030fc:	4643      	mov	r3, r8
100030fe:	005b      	lsls	r3, r3, #1
10003100:	4443      	add	r3, r8
10003102:	005b      	lsls	r3, r3, #1
10003104:	181b      	adds	r3, r3, r0
10003106:	2b00      	cmp	r3, #0
10003108:	dd5c      	ble.n	100031c4 <tft_drawChar+0xf4>
1000310a:	4643      	mov	r3, r8
1000310c:	00db      	lsls	r3, r3, #3
1000310e:	185b      	adds	r3, r3, r1
10003110:	2b00      	cmp	r3, #0
10003112:	dd57      	ble.n	100031c4 <tft_drawChar+0xf4>
10003114:	4643      	mov	r3, r8
10003116:	b29b      	uxth	r3, r3
10003118:	469a      	mov	sl, r3
1000311a:	0093      	lsls	r3, r2, #2
1000311c:	189a      	adds	r2, r3, r2
1000311e:	4b42      	ldr	r3, [pc, #264]	; (10003228 <tft_drawChar+0x158>)
10003120:	b280      	uxth	r0, r0
10003122:	18d3      	adds	r3, r2, r3
10003124:	930a      	str	r3, [sp, #40]	; 0x28
10003126:	2300      	movs	r3, #0
10003128:	9308      	str	r3, [sp, #32]
1000312a:	b28b      	uxth	r3, r1
1000312c:	930b      	str	r3, [sp, #44]	; 0x2c
1000312e:	3308      	adds	r3, #8
10003130:	b29b      	uxth	r3, r3
10003132:	9009      	str	r0, [sp, #36]	; 0x24
10003134:	9007      	str	r0, [sp, #28]
10003136:	9303      	str	r3, [sp, #12]
10003138:	9b08      	ldr	r3, [sp, #32]
1000313a:	2b05      	cmp	r3, #5
1000313c:	d100      	bne.n	10003140 <tft_drawChar+0x70>
1000313e:	e06c      	b.n	1000321a <tft_drawChar+0x14a>
10003140:	9b0a      	ldr	r3, [sp, #40]	; 0x28
10003142:	781e      	ldrb	r6, [r3, #0]
10003144:	466b      	mov	r3, sp
10003146:	221c      	movs	r2, #28
10003148:	5e9b      	ldrsh	r3, [r3, r2]
1000314a:	9d0b      	ldr	r5, [sp, #44]	; 0x2c
1000314c:	469b      	mov	fp, r3
1000314e:	466b      	mov	r3, sp
10003150:	2224      	movs	r2, #36	; 0x24
10003152:	5e9b      	ldrsh	r3, [r3, r2]
10003154:	002c      	movs	r4, r5
10003156:	9306      	str	r3, [sp, #24]
10003158:	2301      	movs	r3, #1
1000315a:	4699      	mov	r9, r3
1000315c:	4643      	mov	r3, r8
1000315e:	b21f      	sxth	r7, r3
10003160:	e012      	b.n	10003188 <tft_drawChar+0xb8>
10003162:	4643      	mov	r3, r8
10003164:	2b01      	cmp	r3, #1
10003166:	d034      	beq.n	100031d2 <tft_drawChar+0x102>
10003168:	9b04      	ldr	r3, [sp, #16]
1000316a:	b229      	sxth	r1, r5
1000316c:	9300      	str	r3, [sp, #0]
1000316e:	003a      	movs	r2, r7
10003170:	003b      	movs	r3, r7
10003172:	4658      	mov	r0, fp
10003174:	f7ff fa0c 	bl	10002590 <tft_fillRect>
10003178:	3401      	adds	r4, #1
1000317a:	9b03      	ldr	r3, [sp, #12]
1000317c:	4455      	add	r5, sl
1000317e:	b2a4      	uxth	r4, r4
10003180:	0876      	lsrs	r6, r6, #1
10003182:	b2ad      	uxth	r5, r5
10003184:	42a3      	cmp	r3, r4
10003186:	d00c      	beq.n	100031a2 <tft_drawChar+0xd2>
10003188:	464b      	mov	r3, r9
1000318a:	4233      	tst	r3, r6
1000318c:	d1e9      	bne.n	10003162 <tft_drawChar+0x92>
1000318e:	9b05      	ldr	r3, [sp, #20]
10003190:	9a04      	ldr	r2, [sp, #16]
10003192:	4293      	cmp	r3, r2
10003194:	d0f0      	beq.n	10003178 <tft_drawChar+0xa8>
10003196:	4643      	mov	r3, r8
10003198:	2b01      	cmp	r3, #1
1000319a:	d02c      	beq.n	100031f6 <tft_drawChar+0x126>
1000319c:	9b05      	ldr	r3, [sp, #20]
1000319e:	b229      	sxth	r1, r5
100031a0:	e7e4      	b.n	1000316c <tft_drawChar+0x9c>
100031a2:	9b08      	ldr	r3, [sp, #32]
100031a4:	3301      	adds	r3, #1
100031a6:	b2da      	uxtb	r2, r3
100031a8:	9b09      	ldr	r3, [sp, #36]	; 0x24
100031aa:	9208      	str	r2, [sp, #32]
100031ac:	3301      	adds	r3, #1
100031ae:	b29b      	uxth	r3, r3
100031b0:	9309      	str	r3, [sp, #36]	; 0x24
100031b2:	9b07      	ldr	r3, [sp, #28]
100031b4:	4453      	add	r3, sl
100031b6:	b29b      	uxth	r3, r3
100031b8:	9307      	str	r3, [sp, #28]
100031ba:	9b0a      	ldr	r3, [sp, #40]	; 0x28
100031bc:	3301      	adds	r3, #1
100031be:	930a      	str	r3, [sp, #40]	; 0x28
100031c0:	2a06      	cmp	r2, #6
100031c2:	d1b9      	bne.n	10003138 <tft_drawChar+0x68>
100031c4:	b00d      	add	sp, #52	; 0x34
100031c6:	bcf0      	pop	{r4, r5, r6, r7}
100031c8:	46bb      	mov	fp, r7
100031ca:	46b2      	mov	sl, r6
100031cc:	46a9      	mov	r9, r5
100031ce:	46a0      	mov	r8, r4
100031d0:	bdf0      	pop	{r4, r5, r6, r7, pc}
100031d2:	9806      	ldr	r0, [sp, #24]
100031d4:	2800      	cmp	r0, #0
100031d6:	dbcf      	blt.n	10003178 <tft_drawChar+0xa8>
100031d8:	4b11      	ldr	r3, [pc, #68]	; (10003220 <tft_drawChar+0x150>)
100031da:	881b      	ldrh	r3, [r3, #0]
100031dc:	4298      	cmp	r0, r3
100031de:	dacb      	bge.n	10003178 <tft_drawChar+0xa8>
100031e0:	b221      	sxth	r1, r4
100031e2:	2900      	cmp	r1, #0
100031e4:	dbc8      	blt.n	10003178 <tft_drawChar+0xa8>
100031e6:	4b0f      	ldr	r3, [pc, #60]	; (10003224 <tft_drawChar+0x154>)
100031e8:	881b      	ldrh	r3, [r3, #0]
100031ea:	4299      	cmp	r1, r3
100031ec:	dac4      	bge.n	10003178 <tft_drawChar+0xa8>
100031ee:	9a04      	ldr	r2, [sp, #16]
100031f0:	f7fd fab4 	bl	1000075c <tft_drawPixel.part.0>
100031f4:	e7c0      	b.n	10003178 <tft_drawChar+0xa8>
100031f6:	9806      	ldr	r0, [sp, #24]
100031f8:	2800      	cmp	r0, #0
100031fa:	dbbd      	blt.n	10003178 <tft_drawChar+0xa8>
100031fc:	4b08      	ldr	r3, [pc, #32]	; (10003220 <tft_drawChar+0x150>)
100031fe:	881b      	ldrh	r3, [r3, #0]
10003200:	4298      	cmp	r0, r3
10003202:	dab9      	bge.n	10003178 <tft_drawChar+0xa8>
10003204:	b221      	sxth	r1, r4
10003206:	2900      	cmp	r1, #0
10003208:	dbb6      	blt.n	10003178 <tft_drawChar+0xa8>
1000320a:	4b06      	ldr	r3, [pc, #24]	; (10003224 <tft_drawChar+0x154>)
1000320c:	881b      	ldrh	r3, [r3, #0]
1000320e:	4299      	cmp	r1, r3
10003210:	dab2      	bge.n	10003178 <tft_drawChar+0xa8>
10003212:	9a05      	ldr	r2, [sp, #20]
10003214:	f7fd faa2 	bl	1000075c <tft_drawPixel.part.0>
10003218:	e7ae      	b.n	10003178 <tft_drawChar+0xa8>
1000321a:	2600      	movs	r6, #0
1000321c:	e792      	b.n	10003144 <tft_drawChar+0x74>
1000321e:	46c0      	nop			; (mov r8, r8)
10003220:	2000072e 	.word	0x2000072e
10003224:	2000072c 	.word	0x2000072c
10003228:	10008968 	.word	0x10008968

1000322c <tft_writeString>:
1000322c:	b5f0      	push	{r4, r5, r6, r7, lr}
1000322e:	46ce      	mov	lr, r9
10003230:	4647      	mov	r7, r8
10003232:	b580      	push	{r7, lr}
10003234:	7802      	ldrb	r2, [r0, #0]
10003236:	0004      	movs	r4, r0
10003238:	b083      	sub	sp, #12
1000323a:	2a00      	cmp	r2, #0
1000323c:	d023      	beq.n	10003286 <tft_writeString+0x5a>
1000323e:	4b2a      	ldr	r3, [pc, #168]	; (100032e8 <tft_writeString+0xbc>)
10003240:	4e2a      	ldr	r6, [pc, #168]	; (100032ec <tft_writeString+0xc0>)
10003242:	4699      	mov	r9, r3
10003244:	4d2a      	ldr	r5, [pc, #168]	; (100032f0 <tft_writeString+0xc4>)
10003246:	e00e      	b.n	10003266 <tft_writeString+0x3a>
10003248:	2a0d      	cmp	r2, #13
1000324a:	d009      	beq.n	10003260 <tft_writeString+0x34>
1000324c:	2a09      	cmp	r2, #9
1000324e:	d11f      	bne.n	10003290 <tft_writeString+0x64>
10003250:	4a27      	ldr	r2, [pc, #156]	; (100032f0 <tft_writeString+0xc4>)
10003252:	4928      	ldr	r1, [pc, #160]	; (100032f4 <tft_writeString+0xc8>)
10003254:	8813      	ldrh	r3, [r2, #0]
10003256:	8809      	ldrh	r1, [r1, #0]
10003258:	3304      	adds	r3, #4
1000325a:	428b      	cmp	r3, r1
1000325c:	da00      	bge.n	10003260 <tft_writeString+0x34>
1000325e:	8013      	strh	r3, [r2, #0]
10003260:	7822      	ldrb	r2, [r4, #0]
10003262:	2a00      	cmp	r2, #0
10003264:	d00f      	beq.n	10003286 <tft_writeString+0x5a>
10003266:	3401      	adds	r4, #1
10003268:	2a0a      	cmp	r2, #10
1000326a:	d1ed      	bne.n	10003248 <tft_writeString+0x1c>
1000326c:	4b22      	ldr	r3, [pc, #136]	; (100032f8 <tft_writeString+0xcc>)
1000326e:	4a1f      	ldr	r2, [pc, #124]	; (100032ec <tft_writeString+0xc0>)
10003270:	881b      	ldrh	r3, [r3, #0]
10003272:	8811      	ldrh	r1, [r2, #0]
10003274:	00db      	lsls	r3, r3, #3
10003276:	185b      	adds	r3, r3, r1
10003278:	8013      	strh	r3, [r2, #0]
1000327a:	2200      	movs	r2, #0
1000327c:	4b1c      	ldr	r3, [pc, #112]	; (100032f0 <tft_writeString+0xc4>)
1000327e:	801a      	strh	r2, [r3, #0]
10003280:	7822      	ldrb	r2, [r4, #0]
10003282:	2a00      	cmp	r2, #0
10003284:	d1ef      	bne.n	10003266 <tft_writeString+0x3a>
10003286:	b003      	add	sp, #12
10003288:	bcc0      	pop	{r6, r7}
1000328a:	46b9      	mov	r9, r7
1000328c:	46b0      	mov	r8, r6
1000328e:	bdf0      	pop	{r4, r5, r6, r7, pc}
10003290:	464b      	mov	r3, r9
10003292:	2000      	movs	r0, #0
10003294:	5e31      	ldrsh	r1, [r6, r0]
10003296:	2700      	movs	r7, #0
10003298:	5fe8      	ldrsh	r0, [r5, r7]
1000329a:	4f17      	ldr	r7, [pc, #92]	; (100032f8 <tft_writeString+0xcc>)
1000329c:	881b      	ldrh	r3, [r3, #0]
1000329e:	46b8      	mov	r8, r7
100032a0:	783f      	ldrb	r7, [r7, #0]
100032a2:	9701      	str	r7, [sp, #4]
100032a4:	4f15      	ldr	r7, [pc, #84]	; (100032fc <tft_writeString+0xd0>)
100032a6:	883f      	ldrh	r7, [r7, #0]
100032a8:	9700      	str	r7, [sp, #0]
100032aa:	f7ff ff11 	bl	100030d0 <tft_drawChar>
100032ae:	4643      	mov	r3, r8
100032b0:	881a      	ldrh	r2, [r3, #0]
100032b2:	8829      	ldrh	r1, [r5, #0]
100032b4:	0053      	lsls	r3, r2, #1
100032b6:	18d3      	adds	r3, r2, r3
100032b8:	005b      	lsls	r3, r3, #1
100032ba:	185b      	adds	r3, r3, r1
100032bc:	4910      	ldr	r1, [pc, #64]	; (10003300 <tft_writeString+0xd4>)
100032be:	b29b      	uxth	r3, r3
100032c0:	8809      	ldrh	r1, [r1, #0]
100032c2:	802b      	strh	r3, [r5, #0]
100032c4:	2900      	cmp	r1, #0
100032c6:	d0cb      	beq.n	10003260 <tft_writeString+0x34>
100032c8:	490a      	ldr	r1, [pc, #40]	; (100032f4 <tft_writeString+0xc8>)
100032ca:	8808      	ldrh	r0, [r1, #0]
100032cc:	0091      	lsls	r1, r2, #2
100032ce:	1a51      	subs	r1, r2, r1
100032d0:	0049      	lsls	r1, r1, #1
100032d2:	1841      	adds	r1, r0, r1
100032d4:	428b      	cmp	r3, r1
100032d6:	ddc3      	ble.n	10003260 <tft_writeString+0x34>
100032d8:	8833      	ldrh	r3, [r6, #0]
100032da:	00d2      	lsls	r2, r2, #3
100032dc:	18d2      	adds	r2, r2, r3
100032de:	2300      	movs	r3, #0
100032e0:	8032      	strh	r2, [r6, #0]
100032e2:	802b      	strh	r3, [r5, #0]
100032e4:	e7bc      	b.n	10003260 <tft_writeString+0x34>
100032e6:	46c0      	nop			; (mov r8, r8)
100032e8:	2000073a 	.word	0x2000073a
100032ec:	20000732 	.word	0x20000732
100032f0:	20000730 	.word	0x20000730
100032f4:	2000072e 	.word	0x2000072e
100032f8:	2000073c 	.word	0x2000073c
100032fc:	20000738 	.word	0x20000738
10003300:	2000073e 	.word	0x2000073e

10003304 <tft_setCursor>:
10003304:	4b02      	ldr	r3, [pc, #8]	; (10003310 <tft_setCursor+0xc>)
10003306:	8018      	strh	r0, [r3, #0]
10003308:	4b02      	ldr	r3, [pc, #8]	; (10003314 <tft_setCursor+0x10>)
1000330a:	8019      	strh	r1, [r3, #0]
1000330c:	4770      	bx	lr
1000330e:	46c0      	nop			; (mov r8, r8)
10003310:	20000730 	.word	0x20000730
10003314:	20000732 	.word	0x20000732

10003318 <tft_setTextSize>:
10003318:	1c03      	adds	r3, r0, #0
1000331a:	2800      	cmp	r0, #0
1000331c:	d100      	bne.n	10003320 <tft_setTextSize+0x8>
1000331e:	2301      	movs	r3, #1
10003320:	4a01      	ldr	r2, [pc, #4]	; (10003328 <tft_setTextSize+0x10>)
10003322:	b2db      	uxtb	r3, r3
10003324:	8013      	strh	r3, [r2, #0]
10003326:	4770      	bx	lr
10003328:	2000073c 	.word	0x2000073c

1000332c <tft_setTextColor>:
1000332c:	4b02      	ldr	r3, [pc, #8]	; (10003338 <tft_setTextColor+0xc>)
1000332e:	8018      	strh	r0, [r3, #0]
10003330:	4b02      	ldr	r3, [pc, #8]	; (1000333c <tft_setTextColor+0x10>)
10003332:	8018      	strh	r0, [r3, #0]
10003334:	4770      	bx	lr
10003336:	46c0      	nop			; (mov r8, r8)
10003338:	20000738 	.word	0x20000738
1000333c:	2000073a 	.word	0x2000073a

10003340 <calculator>:
10003340:	b5f0      	push	{r4, r5, r6, r7, lr}
10003342:	46ce      	mov	lr, r9
10003344:	4647      	mov	r7, r8
10003346:	250a      	movs	r5, #10
10003348:	261f      	movs	r6, #31
1000334a:	b580      	push	{r7, lr}
1000334c:	b093      	sub	sp, #76	; 0x4c
1000334e:	f005 f91f 	bl	10008590 <adc_init>
10003352:	f7fd f93d 	bl	100005d0 <tft_init_hw>
10003356:	f7fd fed9 	bl	1000110c <tft_begin>
1000335a:	2003      	movs	r0, #3
1000335c:	f7ff f990 	bl	10002680 <tft_setRotation>
10003360:	2000      	movs	r0, #0
10003362:	4cfe      	ldr	r4, [pc, #1016]	; (1000375c <calculator+0x41c>)
10003364:	f7ff f978 	bl	10002658 <tft_fillScreen>
10003368:	213c      	movs	r1, #60	; 0x3c
1000336a:	2000      	movs	r0, #0
1000336c:	f7ff ffca 	bl	10003304 <tft_setCursor>
10003370:	232d      	movs	r3, #45	; 0x2d
10003372:	2250      	movs	r2, #80	; 0x50
10003374:	213c      	movs	r1, #60	; 0x3c
10003376:	2000      	movs	r0, #0
10003378:	9601      	str	r6, [sp, #4]
1000337a:	9500      	str	r5, [sp, #0]
1000337c:	f7ff fcb6 	bl	10002cec <tft_fillRoundRect>
10003380:	232d      	movs	r3, #45	; 0x2d
10003382:	2250      	movs	r2, #80	; 0x50
10003384:	213c      	movs	r1, #60	; 0x3c
10003386:	2000      	movs	r0, #0
10003388:	9401      	str	r4, [sp, #4]
1000338a:	9500      	str	r5, [sp, #0]
1000338c:	f7ff fa0c 	bl	100027a8 <tft_drawRoundRect>
10003390:	2002      	movs	r0, #2
10003392:	f7ff ffc1 	bl	10003318 <tft_setTextSize>
10003396:	0020      	movs	r0, r4
10003398:	f7ff ffc8 	bl	1000332c <tft_setTextColor>
1000339c:	2152      	movs	r1, #82	; 0x52
1000339e:	2028      	movs	r0, #40	; 0x28
100033a0:	f7ff ffb0 	bl	10003304 <tft_setCursor>
100033a4:	4fee      	ldr	r7, [pc, #952]	; (10003760 <calculator+0x420>)
100033a6:	2207      	movs	r2, #7
100033a8:	0039      	movs	r1, r7
100033aa:	a802      	add	r0, sp, #8
100033ac:	f003 fe0e 	bl	10006fcc <__wrap_sprintf>
100033b0:	a802      	add	r0, sp, #8
100033b2:	f7ff ff3b 	bl	1000322c <tft_writeString>
100033b6:	213c      	movs	r1, #60	; 0x3c
100033b8:	2050      	movs	r0, #80	; 0x50
100033ba:	f7ff ffa3 	bl	10003304 <tft_setCursor>
100033be:	232d      	movs	r3, #45	; 0x2d
100033c0:	2250      	movs	r2, #80	; 0x50
100033c2:	213c      	movs	r1, #60	; 0x3c
100033c4:	2050      	movs	r0, #80	; 0x50
100033c6:	9601      	str	r6, [sp, #4]
100033c8:	9500      	str	r5, [sp, #0]
100033ca:	f7ff fc8f 	bl	10002cec <tft_fillRoundRect>
100033ce:	232d      	movs	r3, #45	; 0x2d
100033d0:	2250      	movs	r2, #80	; 0x50
100033d2:	213c      	movs	r1, #60	; 0x3c
100033d4:	2050      	movs	r0, #80	; 0x50
100033d6:	9401      	str	r4, [sp, #4]
100033d8:	9500      	str	r5, [sp, #0]
100033da:	f7ff f9e5 	bl	100027a8 <tft_drawRoundRect>
100033de:	2002      	movs	r0, #2
100033e0:	f7ff ff9a 	bl	10003318 <tft_setTextSize>
100033e4:	0020      	movs	r0, r4
100033e6:	f7ff ffa1 	bl	1000332c <tft_setTextColor>
100033ea:	2152      	movs	r1, #82	; 0x52
100033ec:	2078      	movs	r0, #120	; 0x78
100033ee:	f7ff ff89 	bl	10003304 <tft_setCursor>
100033f2:	2208      	movs	r2, #8
100033f4:	0039      	movs	r1, r7
100033f6:	a802      	add	r0, sp, #8
100033f8:	f003 fde8 	bl	10006fcc <__wrap_sprintf>
100033fc:	a802      	add	r0, sp, #8
100033fe:	f7ff ff15 	bl	1000322c <tft_writeString>
10003402:	213c      	movs	r1, #60	; 0x3c
10003404:	20a0      	movs	r0, #160	; 0xa0
10003406:	f7ff ff7d 	bl	10003304 <tft_setCursor>
1000340a:	232d      	movs	r3, #45	; 0x2d
1000340c:	2250      	movs	r2, #80	; 0x50
1000340e:	213c      	movs	r1, #60	; 0x3c
10003410:	20a0      	movs	r0, #160	; 0xa0
10003412:	9601      	str	r6, [sp, #4]
10003414:	9500      	str	r5, [sp, #0]
10003416:	f7ff fc69 	bl	10002cec <tft_fillRoundRect>
1000341a:	232d      	movs	r3, #45	; 0x2d
1000341c:	2250      	movs	r2, #80	; 0x50
1000341e:	213c      	movs	r1, #60	; 0x3c
10003420:	20a0      	movs	r0, #160	; 0xa0
10003422:	9401      	str	r4, [sp, #4]
10003424:	9500      	str	r5, [sp, #0]
10003426:	f7ff f9bf 	bl	100027a8 <tft_drawRoundRect>
1000342a:	2002      	movs	r0, #2
1000342c:	f7ff ff74 	bl	10003318 <tft_setTextSize>
10003430:	0020      	movs	r0, r4
10003432:	f7ff ff7b 	bl	1000332c <tft_setTextColor>
10003436:	2152      	movs	r1, #82	; 0x52
10003438:	20c8      	movs	r0, #200	; 0xc8
1000343a:	f7ff ff63 	bl	10003304 <tft_setCursor>
1000343e:	2209      	movs	r2, #9
10003440:	0039      	movs	r1, r7
10003442:	a802      	add	r0, sp, #8
10003444:	f003 fdc2 	bl	10006fcc <__wrap_sprintf>
10003448:	a802      	add	r0, sp, #8
1000344a:	f7ff feef 	bl	1000322c <tft_writeString>
1000344e:	213c      	movs	r1, #60	; 0x3c
10003450:	20f0      	movs	r0, #240	; 0xf0
10003452:	f7ff ff57 	bl	10003304 <tft_setCursor>
10003456:	232d      	movs	r3, #45	; 0x2d
10003458:	2250      	movs	r2, #80	; 0x50
1000345a:	213c      	movs	r1, #60	; 0x3c
1000345c:	20f0      	movs	r0, #240	; 0xf0
1000345e:	9601      	str	r6, [sp, #4]
10003460:	9500      	str	r5, [sp, #0]
10003462:	f7ff fc43 	bl	10002cec <tft_fillRoundRect>
10003466:	2250      	movs	r2, #80	; 0x50
10003468:	232d      	movs	r3, #45	; 0x2d
1000346a:	213c      	movs	r1, #60	; 0x3c
1000346c:	20f0      	movs	r0, #240	; 0xf0
1000346e:	9401      	str	r4, [sp, #4]
10003470:	9500      	str	r5, [sp, #0]
10003472:	f7ff f999 	bl	100027a8 <tft_drawRoundRect>
10003476:	2002      	movs	r0, #2
10003478:	f7ff ff4e 	bl	10003318 <tft_setTextSize>
1000347c:	0020      	movs	r0, r4
1000347e:	f7ff ff55 	bl	1000332c <tft_setTextColor>
10003482:	238c      	movs	r3, #140	; 0x8c
10003484:	005b      	lsls	r3, r3, #1
10003486:	0018      	movs	r0, r3
10003488:	2152      	movs	r1, #82	; 0x52
1000348a:	4699      	mov	r9, r3
1000348c:	f7ff ff3a 	bl	10003304 <tft_setCursor>
10003490:	4bb4      	ldr	r3, [pc, #720]	; (10003764 <calculator+0x424>)
10003492:	222b      	movs	r2, #43	; 0x2b
10003494:	4698      	mov	r8, r3
10003496:	0019      	movs	r1, r3
10003498:	a80a      	add	r0, sp, #40	; 0x28
1000349a:	f003 fd97 	bl	10006fcc <__wrap_sprintf>
1000349e:	a80a      	add	r0, sp, #40	; 0x28
100034a0:	f7ff fec4 	bl	1000322c <tft_writeString>
100034a4:	2169      	movs	r1, #105	; 0x69
100034a6:	2000      	movs	r0, #0
100034a8:	f7ff ff2c 	bl	10003304 <tft_setCursor>
100034ac:	232d      	movs	r3, #45	; 0x2d
100034ae:	2250      	movs	r2, #80	; 0x50
100034b0:	2169      	movs	r1, #105	; 0x69
100034b2:	2000      	movs	r0, #0
100034b4:	9601      	str	r6, [sp, #4]
100034b6:	9500      	str	r5, [sp, #0]
100034b8:	f7ff fc18 	bl	10002cec <tft_fillRoundRect>
100034bc:	232d      	movs	r3, #45	; 0x2d
100034be:	2250      	movs	r2, #80	; 0x50
100034c0:	2169      	movs	r1, #105	; 0x69
100034c2:	2000      	movs	r0, #0
100034c4:	9401      	str	r4, [sp, #4]
100034c6:	9500      	str	r5, [sp, #0]
100034c8:	f7ff f96e 	bl	100027a8 <tft_drawRoundRect>
100034cc:	2002      	movs	r0, #2
100034ce:	f7ff ff23 	bl	10003318 <tft_setTextSize>
100034d2:	0020      	movs	r0, r4
100034d4:	f7ff ff2a 	bl	1000332c <tft_setTextColor>
100034d8:	217f      	movs	r1, #127	; 0x7f
100034da:	2028      	movs	r0, #40	; 0x28
100034dc:	f7ff ff12 	bl	10003304 <tft_setCursor>
100034e0:	2204      	movs	r2, #4
100034e2:	0039      	movs	r1, r7
100034e4:	a802      	add	r0, sp, #8
100034e6:	f003 fd71 	bl	10006fcc <__wrap_sprintf>
100034ea:	a802      	add	r0, sp, #8
100034ec:	f7ff fe9e 	bl	1000322c <tft_writeString>
100034f0:	2169      	movs	r1, #105	; 0x69
100034f2:	2050      	movs	r0, #80	; 0x50
100034f4:	f7ff ff06 	bl	10003304 <tft_setCursor>
100034f8:	232d      	movs	r3, #45	; 0x2d
100034fa:	2250      	movs	r2, #80	; 0x50
100034fc:	2169      	movs	r1, #105	; 0x69
100034fe:	2050      	movs	r0, #80	; 0x50
10003500:	9601      	str	r6, [sp, #4]
10003502:	9500      	str	r5, [sp, #0]
10003504:	f7ff fbf2 	bl	10002cec <tft_fillRoundRect>
10003508:	232d      	movs	r3, #45	; 0x2d
1000350a:	2250      	movs	r2, #80	; 0x50
1000350c:	2169      	movs	r1, #105	; 0x69
1000350e:	2050      	movs	r0, #80	; 0x50
10003510:	9401      	str	r4, [sp, #4]
10003512:	9500      	str	r5, [sp, #0]
10003514:	f7ff f948 	bl	100027a8 <tft_drawRoundRect>
10003518:	2002      	movs	r0, #2
1000351a:	f7ff fefd 	bl	10003318 <tft_setTextSize>
1000351e:	0020      	movs	r0, r4
10003520:	f7ff ff04 	bl	1000332c <tft_setTextColor>
10003524:	217f      	movs	r1, #127	; 0x7f
10003526:	2078      	movs	r0, #120	; 0x78
10003528:	f7ff feec 	bl	10003304 <tft_setCursor>
1000352c:	2205      	movs	r2, #5
1000352e:	0039      	movs	r1, r7
10003530:	a802      	add	r0, sp, #8
10003532:	f003 fd4b 	bl	10006fcc <__wrap_sprintf>
10003536:	a802      	add	r0, sp, #8
10003538:	f7ff fe78 	bl	1000322c <tft_writeString>
1000353c:	2169      	movs	r1, #105	; 0x69
1000353e:	20a0      	movs	r0, #160	; 0xa0
10003540:	f7ff fee0 	bl	10003304 <tft_setCursor>
10003544:	232d      	movs	r3, #45	; 0x2d
10003546:	2250      	movs	r2, #80	; 0x50
10003548:	2169      	movs	r1, #105	; 0x69
1000354a:	20a0      	movs	r0, #160	; 0xa0
1000354c:	9601      	str	r6, [sp, #4]
1000354e:	9500      	str	r5, [sp, #0]
10003550:	f7ff fbcc 	bl	10002cec <tft_fillRoundRect>
10003554:	232d      	movs	r3, #45	; 0x2d
10003556:	2250      	movs	r2, #80	; 0x50
10003558:	2169      	movs	r1, #105	; 0x69
1000355a:	20a0      	movs	r0, #160	; 0xa0
1000355c:	9401      	str	r4, [sp, #4]
1000355e:	9500      	str	r5, [sp, #0]
10003560:	f7ff f922 	bl	100027a8 <tft_drawRoundRect>
10003564:	2002      	movs	r0, #2
10003566:	f7ff fed7 	bl	10003318 <tft_setTextSize>
1000356a:	0020      	movs	r0, r4
1000356c:	f7ff fede 	bl	1000332c <tft_setTextColor>
10003570:	217f      	movs	r1, #127	; 0x7f
10003572:	20c8      	movs	r0, #200	; 0xc8
10003574:	f7ff fec6 	bl	10003304 <tft_setCursor>
10003578:	2206      	movs	r2, #6
1000357a:	0039      	movs	r1, r7
1000357c:	a802      	add	r0, sp, #8
1000357e:	f003 fd25 	bl	10006fcc <__wrap_sprintf>
10003582:	a802      	add	r0, sp, #8
10003584:	f7ff fe52 	bl	1000322c <tft_writeString>
10003588:	2169      	movs	r1, #105	; 0x69
1000358a:	20f0      	movs	r0, #240	; 0xf0
1000358c:	f7ff feba 	bl	10003304 <tft_setCursor>
10003590:	232d      	movs	r3, #45	; 0x2d
10003592:	2250      	movs	r2, #80	; 0x50
10003594:	2169      	movs	r1, #105	; 0x69
10003596:	20f0      	movs	r0, #240	; 0xf0
10003598:	9601      	str	r6, [sp, #4]
1000359a:	9500      	str	r5, [sp, #0]
1000359c:	f7ff fba6 	bl	10002cec <tft_fillRoundRect>
100035a0:	232d      	movs	r3, #45	; 0x2d
100035a2:	2250      	movs	r2, #80	; 0x50
100035a4:	2169      	movs	r1, #105	; 0x69
100035a6:	20f0      	movs	r0, #240	; 0xf0
100035a8:	9401      	str	r4, [sp, #4]
100035aa:	9500      	str	r5, [sp, #0]
100035ac:	f7ff f8fc 	bl	100027a8 <tft_drawRoundRect>
100035b0:	2002      	movs	r0, #2
100035b2:	f7ff feb1 	bl	10003318 <tft_setTextSize>
100035b6:	0020      	movs	r0, r4
100035b8:	f7ff feb8 	bl	1000332c <tft_setTextColor>
100035bc:	4648      	mov	r0, r9
100035be:	217f      	movs	r1, #127	; 0x7f
100035c0:	f7ff fea0 	bl	10003304 <tft_setCursor>
100035c4:	222d      	movs	r2, #45	; 0x2d
100035c6:	4641      	mov	r1, r8
100035c8:	a802      	add	r0, sp, #8
100035ca:	f003 fcff 	bl	10006fcc <__wrap_sprintf>
100035ce:	a802      	add	r0, sp, #8
100035d0:	f7ff fe2c 	bl	1000322c <tft_writeString>
100035d4:	2196      	movs	r1, #150	; 0x96
100035d6:	2000      	movs	r0, #0
100035d8:	f7ff fe94 	bl	10003304 <tft_setCursor>
100035dc:	232d      	movs	r3, #45	; 0x2d
100035de:	2250      	movs	r2, #80	; 0x50
100035e0:	2196      	movs	r1, #150	; 0x96
100035e2:	2000      	movs	r0, #0
100035e4:	9601      	str	r6, [sp, #4]
100035e6:	9500      	str	r5, [sp, #0]
100035e8:	f7ff fb80 	bl	10002cec <tft_fillRoundRect>
100035ec:	232d      	movs	r3, #45	; 0x2d
100035ee:	2250      	movs	r2, #80	; 0x50
100035f0:	2196      	movs	r1, #150	; 0x96
100035f2:	2000      	movs	r0, #0
100035f4:	9401      	str	r4, [sp, #4]
100035f6:	9500      	str	r5, [sp, #0]
100035f8:	f7ff f8d6 	bl	100027a8 <tft_drawRoundRect>
100035fc:	2002      	movs	r0, #2
100035fe:	f7ff fe8b 	bl	10003318 <tft_setTextSize>
10003602:	0020      	movs	r0, r4
10003604:	f7ff fe92 	bl	1000332c <tft_setTextColor>
10003608:	21ac      	movs	r1, #172	; 0xac
1000360a:	2028      	movs	r0, #40	; 0x28
1000360c:	f7ff fe7a 	bl	10003304 <tft_setCursor>
10003610:	2201      	movs	r2, #1
10003612:	0039      	movs	r1, r7
10003614:	a802      	add	r0, sp, #8
10003616:	f003 fcd9 	bl	10006fcc <__wrap_sprintf>
1000361a:	a802      	add	r0, sp, #8
1000361c:	f7ff fe06 	bl	1000322c <tft_writeString>
10003620:	2196      	movs	r1, #150	; 0x96
10003622:	2050      	movs	r0, #80	; 0x50
10003624:	f7ff fe6e 	bl	10003304 <tft_setCursor>
10003628:	232d      	movs	r3, #45	; 0x2d
1000362a:	2250      	movs	r2, #80	; 0x50
1000362c:	2196      	movs	r1, #150	; 0x96
1000362e:	2050      	movs	r0, #80	; 0x50
10003630:	9601      	str	r6, [sp, #4]
10003632:	9500      	str	r5, [sp, #0]
10003634:	f7ff fb5a 	bl	10002cec <tft_fillRoundRect>
10003638:	232d      	movs	r3, #45	; 0x2d
1000363a:	2250      	movs	r2, #80	; 0x50
1000363c:	2196      	movs	r1, #150	; 0x96
1000363e:	2050      	movs	r0, #80	; 0x50
10003640:	9401      	str	r4, [sp, #4]
10003642:	9500      	str	r5, [sp, #0]
10003644:	f7ff f8b0 	bl	100027a8 <tft_drawRoundRect>
10003648:	2002      	movs	r0, #2
1000364a:	f7ff fe65 	bl	10003318 <tft_setTextSize>
1000364e:	0020      	movs	r0, r4
10003650:	f7ff fe6c 	bl	1000332c <tft_setTextColor>
10003654:	21ac      	movs	r1, #172	; 0xac
10003656:	2078      	movs	r0, #120	; 0x78
10003658:	f7ff fe54 	bl	10003304 <tft_setCursor>
1000365c:	2202      	movs	r2, #2
1000365e:	0039      	movs	r1, r7
10003660:	a802      	add	r0, sp, #8
10003662:	f003 fcb3 	bl	10006fcc <__wrap_sprintf>
10003666:	a802      	add	r0, sp, #8
10003668:	f7ff fde0 	bl	1000322c <tft_writeString>
1000366c:	2196      	movs	r1, #150	; 0x96
1000366e:	20a0      	movs	r0, #160	; 0xa0
10003670:	f7ff fe48 	bl	10003304 <tft_setCursor>
10003674:	232d      	movs	r3, #45	; 0x2d
10003676:	2250      	movs	r2, #80	; 0x50
10003678:	2196      	movs	r1, #150	; 0x96
1000367a:	20a0      	movs	r0, #160	; 0xa0
1000367c:	9601      	str	r6, [sp, #4]
1000367e:	9500      	str	r5, [sp, #0]
10003680:	f7ff fb34 	bl	10002cec <tft_fillRoundRect>
10003684:	232d      	movs	r3, #45	; 0x2d
10003686:	2250      	movs	r2, #80	; 0x50
10003688:	2196      	movs	r1, #150	; 0x96
1000368a:	20a0      	movs	r0, #160	; 0xa0
1000368c:	9401      	str	r4, [sp, #4]
1000368e:	9500      	str	r5, [sp, #0]
10003690:	f7ff f88a 	bl	100027a8 <tft_drawRoundRect>
10003694:	2002      	movs	r0, #2
10003696:	f7ff fe3f 	bl	10003318 <tft_setTextSize>
1000369a:	0020      	movs	r0, r4
1000369c:	f7ff fe46 	bl	1000332c <tft_setTextColor>
100036a0:	21ac      	movs	r1, #172	; 0xac
100036a2:	20c8      	movs	r0, #200	; 0xc8
100036a4:	f7ff fe2e 	bl	10003304 <tft_setCursor>
100036a8:	2203      	movs	r2, #3
100036aa:	0039      	movs	r1, r7
100036ac:	a802      	add	r0, sp, #8
100036ae:	f003 fc8d 	bl	10006fcc <__wrap_sprintf>
100036b2:	a802      	add	r0, sp, #8
100036b4:	f7ff fdba 	bl	1000322c <tft_writeString>
100036b8:	2196      	movs	r1, #150	; 0x96
100036ba:	20f0      	movs	r0, #240	; 0xf0
100036bc:	f7ff fe22 	bl	10003304 <tft_setCursor>
100036c0:	232d      	movs	r3, #45	; 0x2d
100036c2:	2250      	movs	r2, #80	; 0x50
100036c4:	2196      	movs	r1, #150	; 0x96
100036c6:	20f0      	movs	r0, #240	; 0xf0
100036c8:	9601      	str	r6, [sp, #4]
100036ca:	9500      	str	r5, [sp, #0]
100036cc:	f7ff fb0e 	bl	10002cec <tft_fillRoundRect>
100036d0:	232d      	movs	r3, #45	; 0x2d
100036d2:	2250      	movs	r2, #80	; 0x50
100036d4:	2196      	movs	r1, #150	; 0x96
100036d6:	20a0      	movs	r0, #160	; 0xa0
100036d8:	9401      	str	r4, [sp, #4]
100036da:	9500      	str	r5, [sp, #0]
100036dc:	f7ff f864 	bl	100027a8 <tft_drawRoundRect>
100036e0:	2002      	movs	r0, #2
100036e2:	f7ff fe19 	bl	10003318 <tft_setTextSize>
100036e6:	0020      	movs	r0, r4
100036e8:	f7ff fe20 	bl	1000332c <tft_setTextColor>
100036ec:	21ac      	movs	r1, #172	; 0xac
100036ee:	4648      	mov	r0, r9
100036f0:	f7ff fe08 	bl	10003304 <tft_setCursor>
100036f4:	466a      	mov	r2, sp
100036f6:	2378      	movs	r3, #120	; 0x78
100036f8:	a802      	add	r0, sp, #8
100036fa:	8113      	strh	r3, [r2, #8]
100036fc:	f7ff fd96 	bl	1000322c <tft_writeString>
10003700:	21c3      	movs	r1, #195	; 0xc3
10003702:	2000      	movs	r0, #0
10003704:	f7ff fdfe 	bl	10003304 <tft_setCursor>
10003708:	232d      	movs	r3, #45	; 0x2d
1000370a:	2250      	movs	r2, #80	; 0x50
1000370c:	21c3      	movs	r1, #195	; 0xc3
1000370e:	2000      	movs	r0, #0
10003710:	9601      	str	r6, [sp, #4]
10003712:	9500      	str	r5, [sp, #0]
10003714:	f7ff faea 	bl	10002cec <tft_fillRoundRect>
10003718:	232d      	movs	r3, #45	; 0x2d
1000371a:	2250      	movs	r2, #80	; 0x50
1000371c:	21c3      	movs	r1, #195	; 0xc3
1000371e:	2000      	movs	r0, #0
10003720:	9401      	str	r4, [sp, #4]
10003722:	9500      	str	r5, [sp, #0]
10003724:	f7ff f840 	bl	100027a8 <tft_drawRoundRect>
10003728:	2002      	movs	r0, #2
1000372a:	f7ff fdf5 	bl	10003318 <tft_setTextSize>
1000372e:	0020      	movs	r0, r4
10003730:	f7ff fdfc 	bl	1000332c <tft_setTextColor>
10003734:	21d9      	movs	r1, #217	; 0xd9
10003736:	2028      	movs	r0, #40	; 0x28
10003738:	f7ff fde4 	bl	10003304 <tft_setCursor>
1000373c:	2200      	movs	r2, #0
1000373e:	0039      	movs	r1, r7
10003740:	a802      	add	r0, sp, #8
10003742:	f003 fc43 	bl	10006fcc <__wrap_sprintf>
10003746:	a802      	add	r0, sp, #8
10003748:	f7ff fd70 	bl	1000322c <tft_writeString>
1000374c:	21c3      	movs	r1, #195	; 0xc3
1000374e:	2000      	movs	r0, #0
10003750:	f7ff fdd8 	bl	10003304 <tft_setCursor>
10003754:	232d      	movs	r3, #45	; 0x2d
10003756:	2250      	movs	r2, #80	; 0x50
10003758:	21c3      	movs	r1, #195	; 0xc3
1000375a:	e005      	b.n	10003768 <calculator+0x428>
1000375c:	0000ffff 	.word	0x0000ffff
10003760:	10008e78 	.word	0x10008e78
10003764:	10008e7c 	.word	0x10008e7c
10003768:	2050      	movs	r0, #80	; 0x50
1000376a:	9601      	str	r6, [sp, #4]
1000376c:	9500      	str	r5, [sp, #0]
1000376e:	f7ff fabd 	bl	10002cec <tft_fillRoundRect>
10003772:	232d      	movs	r3, #45	; 0x2d
10003774:	2250      	movs	r2, #80	; 0x50
10003776:	21c3      	movs	r1, #195	; 0xc3
10003778:	2050      	movs	r0, #80	; 0x50
1000377a:	9401      	str	r4, [sp, #4]
1000377c:	9500      	str	r5, [sp, #0]
1000377e:	f7ff f813 	bl	100027a8 <tft_drawRoundRect>
10003782:	2002      	movs	r0, #2
10003784:	f7ff fdc8 	bl	10003318 <tft_setTextSize>
10003788:	0020      	movs	r0, r4
1000378a:	f7ff fdcf 	bl	1000332c <tft_setTextColor>
1000378e:	21d9      	movs	r1, #217	; 0xd9
10003790:	2078      	movs	r0, #120	; 0x78
10003792:	f7ff fdb7 	bl	10003304 <tft_setCursor>
10003796:	466a      	mov	r2, sp
10003798:	2343      	movs	r3, #67	; 0x43
1000379a:	a802      	add	r0, sp, #8
1000379c:	8113      	strh	r3, [r2, #8]
1000379e:	f7ff fd45 	bl	1000322c <tft_writeString>
100037a2:	21c3      	movs	r1, #195	; 0xc3
100037a4:	2000      	movs	r0, #0
100037a6:	f7ff fdad 	bl	10003304 <tft_setCursor>
100037aa:	232d      	movs	r3, #45	; 0x2d
100037ac:	2250      	movs	r2, #80	; 0x50
100037ae:	21c3      	movs	r1, #195	; 0xc3
100037b0:	20a0      	movs	r0, #160	; 0xa0
100037b2:	9601      	str	r6, [sp, #4]
100037b4:	9500      	str	r5, [sp, #0]
100037b6:	f7ff fa99 	bl	10002cec <tft_fillRoundRect>
100037ba:	232d      	movs	r3, #45	; 0x2d
100037bc:	2250      	movs	r2, #80	; 0x50
100037be:	21c3      	movs	r1, #195	; 0xc3
100037c0:	20a0      	movs	r0, #160	; 0xa0
100037c2:	9401      	str	r4, [sp, #4]
100037c4:	9500      	str	r5, [sp, #0]
100037c6:	f7fe ffef 	bl	100027a8 <tft_drawRoundRect>
100037ca:	2002      	movs	r0, #2
100037cc:	f7ff fda4 	bl	10003318 <tft_setTextSize>
100037d0:	0020      	movs	r0, r4
100037d2:	f7ff fdab 	bl	1000332c <tft_setTextColor>
100037d6:	21d9      	movs	r1, #217	; 0xd9
100037d8:	20c8      	movs	r0, #200	; 0xc8
100037da:	f7ff fd93 	bl	10003304 <tft_setCursor>
100037de:	223d      	movs	r2, #61	; 0x3d
100037e0:	4641      	mov	r1, r8
100037e2:	a802      	add	r0, sp, #8
100037e4:	f003 fbf2 	bl	10006fcc <__wrap_sprintf>
100037e8:	a802      	add	r0, sp, #8
100037ea:	f7ff fd1f 	bl	1000322c <tft_writeString>
100037ee:	21c3      	movs	r1, #195	; 0xc3
100037f0:	2000      	movs	r0, #0
100037f2:	f7ff fd87 	bl	10003304 <tft_setCursor>
100037f6:	232d      	movs	r3, #45	; 0x2d
100037f8:	2250      	movs	r2, #80	; 0x50
100037fa:	21c3      	movs	r1, #195	; 0xc3
100037fc:	20f0      	movs	r0, #240	; 0xf0
100037fe:	9601      	str	r6, [sp, #4]
10003800:	9500      	str	r5, [sp, #0]
10003802:	f7ff fa73 	bl	10002cec <tft_fillRoundRect>
10003806:	232d      	movs	r3, #45	; 0x2d
10003808:	2250      	movs	r2, #80	; 0x50
1000380a:	21c3      	movs	r1, #195	; 0xc3
1000380c:	20f0      	movs	r0, #240	; 0xf0
1000380e:	9401      	str	r4, [sp, #4]
10003810:	9500      	str	r5, [sp, #0]
10003812:	f7fe ffc9 	bl	100027a8 <tft_drawRoundRect>
10003816:	2002      	movs	r0, #2
10003818:	f7ff fd7e 	bl	10003318 <tft_setTextSize>
1000381c:	0020      	movs	r0, r4
1000381e:	f7ff fd85 	bl	1000332c <tft_setTextColor>
10003822:	4648      	mov	r0, r9
10003824:	21d9      	movs	r1, #217	; 0xd9
10003826:	f7ff fd6d 	bl	10003304 <tft_setCursor>
1000382a:	222f      	movs	r2, #47	; 0x2f
1000382c:	4641      	mov	r1, r8
1000382e:	a802      	add	r0, sp, #8
10003830:	f003 fbcc 	bl	10006fcc <__wrap_sprintf>
10003834:	a802      	add	r0, sp, #8
10003836:	f7ff fcf9 	bl	1000322c <tft_writeString>
1000383a:	b013      	add	sp, #76	; 0x4c
1000383c:	bcc0      	pop	{r6, r7}
1000383e:	46b9      	mov	r9, r7
10003840:	46b0      	mov	r8, r6
10003842:	bdf0      	pop	{r4, r5, r6, r7, pc}

10003844 <operation>:
10003844:	b5f8      	push	{r3, r4, r5, r6, r7, lr}
10003846:	f000 fc6b 	bl	10004120 <debounce_pressed>
1000384a:	4dd2      	ldr	r5, [pc, #840]	; (10003b94 <operation+0x350>)
1000384c:	4ed2      	ldr	r6, [pc, #840]	; (10003b98 <operation+0x354>)
1000384e:	782c      	ldrb	r4, [r5, #0]
10003850:	7030      	strb	r0, [r6, #0]
10003852:	2c02      	cmp	r4, #2
10003854:	d100      	bne.n	10003858 <operation+0x14>
10003856:	e0b8      	b.n	100039ca <operation+0x186>
10003858:	d848      	bhi.n	100038ec <operation+0xa8>
1000385a:	2c00      	cmp	r4, #0
1000385c:	d061      	beq.n	10003922 <operation+0xde>
1000385e:	48cf      	ldr	r0, [pc, #828]	; (10003b9c <operation+0x358>)
10003860:	f004 fcfc 	bl	1000825c <__wrap_puts>
10003864:	4bce      	ldr	r3, [pc, #824]	; (10003ba0 <operation+0x35c>)
10003866:	4acf      	ldr	r2, [pc, #828]	; (10003ba4 <operation+0x360>)
10003868:	681b      	ldr	r3, [r3, #0]
1000386a:	6013      	str	r3, [r2, #0]
1000386c:	7832      	ldrb	r2, [r6, #0]
1000386e:	2a00      	cmp	r2, #0
10003870:	d000      	beq.n	10003874 <operation+0x30>
10003872:	e133      	b.n	10003adc <operation+0x298>
10003874:	2301      	movs	r3, #1
10003876:	4ccc      	ldr	r4, [pc, #816]	; (10003ba8 <operation+0x364>)
10003878:	702b      	strb	r3, [r5, #0]
1000387a:	6823      	ldr	r3, [r4, #0]
1000387c:	2b0f      	cmp	r3, #15
1000387e:	d900      	bls.n	10003882 <operation+0x3e>
10003880:	e17a      	b.n	10003b78 <operation+0x334>
10003882:	2b09      	cmp	r3, #9
10003884:	d84c      	bhi.n	10003920 <operation+0xdc>
10003886:	2000      	movs	r0, #0
10003888:	f7ff fd50 	bl	1000332c <tft_setTextColor>
1000388c:	2118      	movs	r1, #24
1000388e:	2014      	movs	r0, #20
10003890:	f7ff fd38 	bl	10003304 <tft_setCursor>
10003894:	2002      	movs	r0, #2
10003896:	f7ff fd3f 	bl	10003318 <tft_setTextSize>
1000389a:	48c4      	ldr	r0, [pc, #784]	; (10003bac <operation+0x368>)
1000389c:	f7ff fcc6 	bl	1000322c <tft_writeString>
100038a0:	6823      	ldr	r3, [r4, #0]
100038a2:	4ec3      	ldr	r6, [pc, #780]	; (10003bb0 <operation+0x36c>)
100038a4:	48c3      	ldr	r0, [pc, #780]	; (10003bb4 <operation+0x370>)
100038a6:	6033      	str	r3, [r6, #0]
100038a8:	f7ff fd40 	bl	1000332c <tft_setTextColor>
100038ac:	2118      	movs	r1, #24
100038ae:	2014      	movs	r0, #20
100038b0:	f7ff fd28 	bl	10003304 <tft_setCursor>
100038b4:	2002      	movs	r0, #2
100038b6:	f7ff fd2f 	bl	10003318 <tft_setTextSize>
100038ba:	4dbf      	ldr	r5, [pc, #764]	; (10003bb8 <operation+0x374>)
100038bc:	49bf      	ldr	r1, [pc, #764]	; (10003bbc <operation+0x378>)
100038be:	682b      	ldr	r3, [r5, #0]
100038c0:	009a      	lsls	r2, r3, #2
100038c2:	18d2      	adds	r2, r2, r3
100038c4:	6833      	ldr	r3, [r6, #0]
100038c6:	4ebe      	ldr	r6, [pc, #760]	; (10003bc0 <operation+0x37c>)
100038c8:	0052      	lsls	r2, r2, #1
100038ca:	18d2      	adds	r2, r2, r3
100038cc:	0030      	movs	r0, r6
100038ce:	602a      	str	r2, [r5, #0]
100038d0:	f003 fb7c 	bl	10006fcc <__wrap_sprintf>
100038d4:	0030      	movs	r0, r6
100038d6:	f7ff fca9 	bl	1000322c <tft_writeString>
100038da:	682a      	ldr	r2, [r5, #0]
100038dc:	4bb9      	ldr	r3, [pc, #740]	; (10003bc4 <operation+0x380>)
100038de:	601a      	str	r2, [r3, #0]
100038e0:	2310      	movs	r3, #16
100038e2:	2200      	movs	r2, #0
100038e4:	6023      	str	r3, [r4, #0]
100038e6:	4bb8      	ldr	r3, [pc, #736]	; (10003bc8 <operation+0x384>)
100038e8:	601a      	str	r2, [r3, #0]
100038ea:	e019      	b.n	10003920 <operation+0xdc>
100038ec:	2c03      	cmp	r4, #3
100038ee:	d126      	bne.n	1000393e <operation+0xfa>
100038f0:	48b6      	ldr	r0, [pc, #728]	; (10003bcc <operation+0x388>)
100038f2:	f004 fcb3 	bl	1000825c <__wrap_puts>
100038f6:	4baa      	ldr	r3, [pc, #680]	; (10003ba0 <operation+0x35c>)
100038f8:	4caa      	ldr	r4, [pc, #680]	; (10003ba4 <operation+0x360>)
100038fa:	6819      	ldr	r1, [r3, #0]
100038fc:	7833      	ldrb	r3, [r6, #0]
100038fe:	6021      	str	r1, [r4, #0]
10003900:	2b00      	cmp	r3, #0
10003902:	d000      	beq.n	10003906 <operation+0xc2>
10003904:	e0fd      	b.n	10003b02 <operation+0x2be>
10003906:	782b      	ldrb	r3, [r5, #0]
10003908:	2b03      	cmp	r3, #3
1000390a:	d100      	bne.n	1000390e <operation+0xca>
1000390c:	e119      	b.n	10003b42 <operation+0x2fe>
1000390e:	d807      	bhi.n	10003920 <operation+0xdc>
10003910:	2b01      	cmp	r3, #1
10003912:	d100      	bne.n	10003916 <operation+0xd2>
10003914:	e1b4      	b.n	10003c80 <operation+0x43c>
10003916:	2b02      	cmp	r3, #2
10003918:	d100      	bne.n	1000391c <operation+0xd8>
1000391a:	e211      	b.n	10003d40 <operation+0x4fc>
1000391c:	2b00      	cmp	r3, #0
1000391e:	d010      	beq.n	10003942 <operation+0xfe>
10003920:	bdf8      	pop	{r3, r4, r5, r6, r7, pc}
10003922:	48ab      	ldr	r0, [pc, #684]	; (10003bd0 <operation+0x38c>)
10003924:	f004 fc9a 	bl	1000825c <__wrap_puts>
10003928:	4b9d      	ldr	r3, [pc, #628]	; (10003ba0 <operation+0x35c>)
1000392a:	4c9e      	ldr	r4, [pc, #632]	; (10003ba4 <operation+0x360>)
1000392c:	6819      	ldr	r1, [r3, #0]
1000392e:	48a9      	ldr	r0, [pc, #676]	; (10003bd4 <operation+0x390>)
10003930:	6021      	str	r1, [r4, #0]
10003932:	f004 fd35 	bl	100083a0 <__wrap_printf>
10003936:	7833      	ldrb	r3, [r6, #0]
10003938:	2b00      	cmp	r3, #0
1000393a:	d000      	beq.n	1000393e <operation+0xfa>
1000393c:	e0c2      	b.n	10003ac4 <operation+0x280>
1000393e:	2300      	movs	r3, #0
10003940:	702b      	strb	r3, [r5, #0]
10003942:	2200      	movs	r2, #0
10003944:	4ba4      	ldr	r3, [pc, #656]	; (10003bd8 <operation+0x394>)
10003946:	2000      	movs	r0, #0
10003948:	601a      	str	r2, [r3, #0]
1000394a:	f7ff fcef 	bl	1000332c <tft_setTextColor>
1000394e:	2118      	movs	r1, #24
10003950:	2014      	movs	r0, #20
10003952:	f7ff fcd7 	bl	10003304 <tft_setCursor>
10003956:	2002      	movs	r0, #2
10003958:	f7ff fcde 	bl	10003318 <tft_setTextSize>
1000395c:	4c9f      	ldr	r4, [pc, #636]	; (10003bdc <operation+0x398>)
1000395e:	0020      	movs	r0, r4
10003960:	f7ff fc64 	bl	1000322c <tft_writeString>
10003964:	2118      	movs	r1, #24
10003966:	2014      	movs	r0, #20
10003968:	f7ff fccc 	bl	10003304 <tft_setCursor>
1000396c:	2002      	movs	r0, #2
1000396e:	f7ff fcd3 	bl	10003318 <tft_setTextSize>
10003972:	4e93      	ldr	r6, [pc, #588]	; (10003bc0 <operation+0x37c>)
10003974:	0030      	movs	r0, r6
10003976:	f7ff fc59 	bl	1000322c <tft_writeString>
1000397a:	2118      	movs	r1, #24
1000397c:	2014      	movs	r0, #20
1000397e:	f7ff fcc1 	bl	10003304 <tft_setCursor>
10003982:	2002      	movs	r0, #2
10003984:	f7ff fcc8 	bl	10003318 <tft_setTextSize>
10003988:	4d95      	ldr	r5, [pc, #596]	; (10003be0 <operation+0x39c>)
1000398a:	0028      	movs	r0, r5
1000398c:	f7ff fc4e 	bl	1000322c <tft_writeString>
10003990:	0030      	movs	r0, r6
10003992:	f000 fbe1 	bl	10004158 <arrayClear>
10003996:	0028      	movs	r0, r5
10003998:	f000 fbde 	bl	10004158 <arrayClear>
1000399c:	0020      	movs	r0, r4
1000399e:	f000 fbdb 	bl	10004158 <arrayClear>
100039a2:	4884      	ldr	r0, [pc, #528]	; (10003bb4 <operation+0x370>)
100039a4:	f7ff fcc2 	bl	1000332c <tft_setTextColor>
100039a8:	2118      	movs	r1, #24
100039aa:	2014      	movs	r0, #20
100039ac:	f7ff fcaa 	bl	10003304 <tft_setCursor>
100039b0:	2002      	movs	r0, #2
100039b2:	f7ff fcb1 	bl	10003318 <tft_setTextSize>
100039b6:	4c7d      	ldr	r4, [pc, #500]	; (10003bac <operation+0x368>)
100039b8:	2200      	movs	r2, #0
100039ba:	0020      	movs	r0, r4
100039bc:	497f      	ldr	r1, [pc, #508]	; (10003bbc <operation+0x378>)
100039be:	f003 fb05 	bl	10006fcc <__wrap_sprintf>
100039c2:	0020      	movs	r0, r4
100039c4:	f7ff fc32 	bl	1000322c <tft_writeString>
100039c8:	e7aa      	b.n	10003920 <operation+0xdc>
100039ca:	4886      	ldr	r0, [pc, #536]	; (10003be4 <operation+0x3a0>)
100039cc:	f004 fc46 	bl	1000825c <__wrap_puts>
100039d0:	4b73      	ldr	r3, [pc, #460]	; (10003ba0 <operation+0x35c>)
100039d2:	6819      	ldr	r1, [r3, #0]
100039d4:	4b73      	ldr	r3, [pc, #460]	; (10003ba4 <operation+0x360>)
100039d6:	6019      	str	r1, [r3, #0]
100039d8:	7833      	ldrb	r3, [r6, #0]
100039da:	2b00      	cmp	r3, #0
100039dc:	d15b      	bne.n	10003a96 <operation+0x252>
100039de:	2302      	movs	r3, #2
100039e0:	4c81      	ldr	r4, [pc, #516]	; (10003be8 <operation+0x3a4>)
100039e2:	702b      	strb	r3, [r5, #0]
100039e4:	6021      	str	r1, [r4, #0]
100039e6:	4881      	ldr	r0, [pc, #516]	; (10003bec <operation+0x3a8>)
100039e8:	f004 fcda 	bl	100083a0 <__wrap_printf>
100039ec:	6823      	ldr	r3, [r4, #0]
100039ee:	2b0f      	cmp	r3, #15
100039f0:	d900      	bls.n	100039f4 <operation+0x1b0>
100039f2:	e0c1      	b.n	10003b78 <operation+0x334>
100039f4:	4d74      	ldr	r5, [pc, #464]	; (10003bc8 <operation+0x384>)
100039f6:	682a      	ldr	r2, [r5, #0]
100039f8:	2a00      	cmp	r2, #0
100039fa:	dc00      	bgt.n	100039fe <operation+0x1ba>
100039fc:	e790      	b.n	10003920 <operation+0xdc>
100039fe:	2b09      	cmp	r3, #9
10003a00:	d900      	bls.n	10003a04 <operation+0x1c0>
10003a02:	e78d      	b.n	10003920 <operation+0xdc>
10003a04:	2000      	movs	r0, #0
10003a06:	f7ff fc91 	bl	1000332c <tft_setTextColor>
10003a0a:	2118      	movs	r1, #24
10003a0c:	2014      	movs	r0, #20
10003a0e:	f7ff fc79 	bl	10003304 <tft_setCursor>
10003a12:	2002      	movs	r0, #2
10003a14:	f7ff fc80 	bl	10003318 <tft_setTextSize>
10003a18:	4f70      	ldr	r7, [pc, #448]	; (10003bdc <operation+0x398>)
10003a1a:	0038      	movs	r0, r7
10003a1c:	f7ff fc06 	bl	1000322c <tft_writeString>
10003a20:	2118      	movs	r1, #24
10003a22:	2014      	movs	r0, #20
10003a24:	f7ff fc6e 	bl	10003304 <tft_setCursor>
10003a28:	4865      	ldr	r0, [pc, #404]	; (10003bc0 <operation+0x37c>)
10003a2a:	f7ff fbff 	bl	1000322c <tft_writeString>
10003a2e:	2118      	movs	r1, #24
10003a30:	2014      	movs	r0, #20
10003a32:	f7ff fc67 	bl	10003304 <tft_setCursor>
10003a36:	4e6a      	ldr	r6, [pc, #424]	; (10003be0 <operation+0x39c>)
10003a38:	0030      	movs	r0, r6
10003a3a:	f7ff fbf7 	bl	1000322c <tft_writeString>
10003a3e:	2118      	movs	r1, #24
10003a40:	2014      	movs	r0, #20
10003a42:	f7ff fc5f 	bl	10003304 <tft_setCursor>
10003a46:	0038      	movs	r0, r7
10003a48:	f7ff fbf0 	bl	1000322c <tft_writeString>
10003a4c:	4868      	ldr	r0, [pc, #416]	; (10003bf0 <operation+0x3ac>)
10003a4e:	f004 fca7 	bl	100083a0 <__wrap_printf>
10003a52:	6823      	ldr	r3, [r4, #0]
10003a54:	4f56      	ldr	r7, [pc, #344]	; (10003bb0 <operation+0x36c>)
10003a56:	4857      	ldr	r0, [pc, #348]	; (10003bb4 <operation+0x370>)
10003a58:	603b      	str	r3, [r7, #0]
10003a5a:	f7ff fc67 	bl	1000332c <tft_setTextColor>
10003a5e:	2118      	movs	r1, #24
10003a60:	2014      	movs	r0, #20
10003a62:	f7ff fc4f 	bl	10003304 <tft_setCursor>
10003a66:	2002      	movs	r0, #2
10003a68:	f7ff fc56 	bl	10003318 <tft_setTextSize>
10003a6c:	4c61      	ldr	r4, [pc, #388]	; (10003bf4 <operation+0x3b0>)
10003a6e:	4953      	ldr	r1, [pc, #332]	; (10003bbc <operation+0x378>)
10003a70:	6823      	ldr	r3, [r4, #0]
10003a72:	0030      	movs	r0, r6
10003a74:	009a      	lsls	r2, r3, #2
10003a76:	18d2      	adds	r2, r2, r3
10003a78:	683b      	ldr	r3, [r7, #0]
10003a7a:	0052      	lsls	r2, r2, #1
10003a7c:	18d2      	adds	r2, r2, r3
10003a7e:	6022      	str	r2, [r4, #0]
10003a80:	f003 faa4 	bl	10006fcc <__wrap_sprintf>
10003a84:	0030      	movs	r0, r6
10003a86:	f7ff fbd1 	bl	1000322c <tft_writeString>
10003a8a:	4b4e      	ldr	r3, [pc, #312]	; (10003bc4 <operation+0x380>)
10003a8c:	6822      	ldr	r2, [r4, #0]
10003a8e:	601a      	str	r2, [r3, #0]
10003a90:	2300      	movs	r3, #0
10003a92:	602b      	str	r3, [r5, #0]
10003a94:	e744      	b.n	10003920 <operation+0xdc>
10003a96:	290f      	cmp	r1, #15
10003a98:	d8a1      	bhi.n	100039de <operation+0x19a>
10003a9a:	000b      	movs	r3, r1
10003a9c:	3b0a      	subs	r3, #10
10003a9e:	2b03      	cmp	r3, #3
10003aa0:	d96e      	bls.n	10003b80 <operation+0x33c>
10003aa2:	290e      	cmp	r1, #14
10003aa4:	d100      	bne.n	10003aa8 <operation+0x264>
10003aa6:	e120      	b.n	10003cea <operation+0x4a6>
10003aa8:	290f      	cmp	r1, #15
10003aaa:	d100      	bne.n	10003aae <operation+0x26a>
10003aac:	e13a      	b.n	10003d24 <operation+0x4e0>
10003aae:	2909      	cmp	r1, #9
10003ab0:	d900      	bls.n	10003ab4 <operation+0x270>
10003ab2:	e140      	b.n	10003d36 <operation+0x4f2>
10003ab4:	4a44      	ldr	r2, [pc, #272]	; (10003bc8 <operation+0x384>)
10003ab6:	702c      	strb	r4, [r5, #0]
10003ab8:	6813      	ldr	r3, [r2, #0]
10003aba:	4c4b      	ldr	r4, [pc, #300]	; (10003be8 <operation+0x3a4>)
10003abc:	3301      	adds	r3, #1
10003abe:	6021      	str	r1, [r4, #0]
10003ac0:	6013      	str	r3, [r2, #0]
10003ac2:	e790      	b.n	100039e6 <operation+0x1a2>
10003ac4:	6821      	ldr	r1, [r4, #0]
10003ac6:	2909      	cmp	r1, #9
10003ac8:	d900      	bls.n	10003acc <operation+0x288>
10003aca:	e738      	b.n	1000393e <operation+0xfa>
10003acc:	2301      	movs	r3, #1
10003ace:	702b      	strb	r3, [r5, #0]
10003ad0:	4b35      	ldr	r3, [pc, #212]	; (10003ba8 <operation+0x364>)
10003ad2:	4849      	ldr	r0, [pc, #292]	; (10003bf8 <operation+0x3b4>)
10003ad4:	6019      	str	r1, [r3, #0]
10003ad6:	f004 fc63 	bl	100083a0 <__wrap_printf>
10003ada:	e714      	b.n	10003906 <operation+0xc2>
10003adc:	2b0f      	cmp	r3, #15
10003ade:	d900      	bls.n	10003ae2 <operation+0x29e>
10003ae0:	e6c8      	b.n	10003874 <operation+0x30>
10003ae2:	001a      	movs	r2, r3
10003ae4:	3a0a      	subs	r2, #10
10003ae6:	2a03      	cmp	r2, #3
10003ae8:	d800      	bhi.n	10003aec <operation+0x2a8>
10003aea:	e093      	b.n	10003c14 <operation+0x3d0>
10003aec:	2b0e      	cmp	r3, #14
10003aee:	d100      	bne.n	10003af2 <operation+0x2ae>
10003af0:	e0fb      	b.n	10003cea <operation+0x4a6>
10003af2:	2b09      	cmp	r3, #9
10003af4:	d900      	bls.n	10003af8 <operation+0x2b4>
10003af6:	e112      	b.n	10003d1e <operation+0x4da>
10003af8:	2201      	movs	r2, #1
10003afa:	4c2b      	ldr	r4, [pc, #172]	; (10003ba8 <operation+0x364>)
10003afc:	702a      	strb	r2, [r5, #0]
10003afe:	6023      	str	r3, [r4, #0]
10003b00:	e6c1      	b.n	10003886 <operation+0x42>
10003b02:	290f      	cmp	r1, #15
10003b04:	d900      	bls.n	10003b08 <operation+0x2c4>
10003b06:	e6fe      	b.n	10003906 <operation+0xc2>
10003b08:	483c      	ldr	r0, [pc, #240]	; (10003bfc <operation+0x3b8>)
10003b0a:	f004 fc49 	bl	100083a0 <__wrap_printf>
10003b0e:	6823      	ldr	r3, [r4, #0]
10003b10:	2b0f      	cmp	r3, #15
10003b12:	d100      	bne.n	10003b16 <operation+0x2d2>
10003b14:	e106      	b.n	10003d24 <operation+0x4e0>
10003b16:	001a      	movs	r2, r3
10003b18:	3a0a      	subs	r2, #10
10003b1a:	2a03      	cmp	r2, #3
10003b1c:	d900      	bls.n	10003b20 <operation+0x2dc>
10003b1e:	e0e4      	b.n	10003cea <operation+0x4a6>
10003b20:	2202      	movs	r2, #2
10003b22:	702a      	strb	r2, [r5, #0]
10003b24:	4a27      	ldr	r2, [pc, #156]	; (10003bc4 <operation+0x380>)
10003b26:	4c30      	ldr	r4, [pc, #192]	; (10003be8 <operation+0x3a4>)
10003b28:	6811      	ldr	r1, [r2, #0]
10003b2a:	4a23      	ldr	r2, [pc, #140]	; (10003bb8 <operation+0x374>)
10003b2c:	6011      	str	r1, [r2, #0]
10003b2e:	2100      	movs	r1, #0
10003b30:	4a30      	ldr	r2, [pc, #192]	; (10003bf4 <operation+0x3b0>)
10003b32:	6011      	str	r1, [r2, #0]
10003b34:	4a32      	ldr	r2, [pc, #200]	; (10003c00 <operation+0x3bc>)
10003b36:	6821      	ldr	r1, [r4, #0]
10003b38:	6013      	str	r3, [r2, #0]
10003b3a:	2201      	movs	r2, #1
10003b3c:	4b26      	ldr	r3, [pc, #152]	; (10003bd8 <operation+0x394>)
10003b3e:	601a      	str	r2, [r3, #0]
10003b40:	e751      	b.n	100039e6 <operation+0x1a2>
10003b42:	4c2f      	ldr	r4, [pc, #188]	; (10003c00 <operation+0x3bc>)
10003b44:	482f      	ldr	r0, [pc, #188]	; (10003c04 <operation+0x3c0>)
10003b46:	f004 fc2b 	bl	100083a0 <__wrap_printf>
10003b4a:	6821      	ldr	r1, [r4, #0]
10003b4c:	482e      	ldr	r0, [pc, #184]	; (10003c08 <operation+0x3c4>)
10003b4e:	f004 fc27 	bl	100083a0 <__wrap_printf>
10003b52:	6823      	ldr	r3, [r4, #0]
10003b54:	2b0a      	cmp	r3, #10
10003b56:	d064      	beq.n	10003c22 <operation+0x3de>
10003b58:	2b0b      	cmp	r3, #11
10003b5a:	d100      	bne.n	10003b5e <operation+0x31a>
10003b5c:	e0af      	b.n	10003cbe <operation+0x47a>
10003b5e:	2b0c      	cmp	r3, #12
10003b60:	d100      	bne.n	10003b64 <operation+0x320>
10003b62:	e0c6      	b.n	10003cf2 <operation+0x4ae>
10003b64:	2b0d      	cmp	r3, #13
10003b66:	d100      	bne.n	10003b6a <operation+0x326>
10003b68:	e08d      	b.n	10003c86 <operation+0x442>
10003b6a:	4828      	ldr	r0, [pc, #160]	; (10003c0c <operation+0x3c8>)
10003b6c:	f004 fc18 	bl	100083a0 <__wrap_printf>
10003b70:	2200      	movs	r2, #0
10003b72:	4b19      	ldr	r3, [pc, #100]	; (10003bd8 <operation+0x394>)
10003b74:	601a      	str	r2, [r3, #0]
10003b76:	e6d3      	b.n	10003920 <operation+0xdc>
10003b78:	4825      	ldr	r0, [pc, #148]	; (10003c10 <operation+0x3cc>)
10003b7a:	f004 fc11 	bl	100083a0 <__wrap_printf>
10003b7e:	e6cf      	b.n	10003920 <operation+0xdc>
10003b80:	4b11      	ldr	r3, [pc, #68]	; (10003bc8 <operation+0x384>)
10003b82:	681b      	ldr	r3, [r3, #0]
10003b84:	2b00      	cmp	r3, #0
10003b86:	dc00      	bgt.n	10003b8a <operation+0x346>
10003b88:	e0d5      	b.n	10003d36 <operation+0x4f2>
10003b8a:	2303      	movs	r3, #3
10003b8c:	4c1c      	ldr	r4, [pc, #112]	; (10003c00 <operation+0x3bc>)
10003b8e:	702b      	strb	r3, [r5, #0]
10003b90:	6021      	str	r1, [r4, #0]
10003b92:	e7d7      	b.n	10003b44 <operation+0x300>
10003b94:	20000741 	.word	0x20000741
10003b98:	20000745 	.word	0x20000745
10003b9c:	10008ea0 	.word	0x10008ea0
10003ba0:	200006ec 	.word	0x200006ec
10003ba4:	200006f8 	.word	0x200006f8
10003ba8:	200006fc 	.word	0x200006fc
10003bac:	20000638 	.word	0x20000638
10003bb0:	200006a4 	.word	0x200006a4
10003bb4:	0000ffff 	.word	0x0000ffff
10003bb8:	2000069c 	.word	0x2000069c
10003bbc:	10008e78 	.word	0x10008e78
10003bc0:	2000065c 	.word	0x2000065c
10003bc4:	200006c4 	.word	0x200006c4
10003bc8:	200005bc 	.word	0x200005bc
10003bcc:	10008eb8 	.word	0x10008eb8
10003bd0:	10008e80 	.word	0x10008e80
10003bd4:	10008edc 	.word	0x10008edc
10003bd8:	200006b0 	.word	0x200006b0
10003bdc:	200006c8 	.word	0x200006c8
10003be0:	2000067c 	.word	0x2000067c
10003be4:	10008ea8 	.word	0x10008ea8
10003be8:	20000700 	.word	0x20000700
10003bec:	10008ef4 	.word	0x10008ef4
10003bf0:	10008efc 	.word	0x10008efc
10003bf4:	200006a0 	.word	0x200006a0
10003bf8:	10008e8c 	.word	0x10008e8c
10003bfc:	10008ed0 	.word	0x10008ed0
10003c00:	200006ac 	.word	0x200006ac
10003c04:	10008f04 	.word	0x10008f04
10003c08:	10008f18 	.word	0x10008f18
10003c0c:	10008f6c 	.word	0x10008f6c
10003c10:	10008ee0 	.word	0x10008ee0
10003c14:	2202      	movs	r2, #2
10003c16:	4c4c      	ldr	r4, [pc, #304]	; (10003d48 <operation+0x504>)
10003c18:	702a      	strb	r2, [r5, #0]
10003c1a:	4a4c      	ldr	r2, [pc, #304]	; (10003d4c <operation+0x508>)
10003c1c:	6821      	ldr	r1, [r4, #0]
10003c1e:	6013      	str	r3, [r2, #0]
10003c20:	e6e1      	b.n	100039e6 <operation+0x1a2>
10003c22:	484b      	ldr	r0, [pc, #300]	; (10003d50 <operation+0x50c>)
10003c24:	f004 fb1a 	bl	1000825c <__wrap_puts>
10003c28:	2000      	movs	r0, #0
10003c2a:	f7ff fb7f 	bl	1000332c <tft_setTextColor>
10003c2e:	2118      	movs	r1, #24
10003c30:	2014      	movs	r0, #20
10003c32:	f7ff fb67 	bl	10003304 <tft_setCursor>
10003c36:	2002      	movs	r0, #2
10003c38:	f7ff fb6e 	bl	10003318 <tft_setTextSize>
10003c3c:	4845      	ldr	r0, [pc, #276]	; (10003d54 <operation+0x510>)
10003c3e:	f7ff faf5 	bl	1000322c <tft_writeString>
10003c42:	4b45      	ldr	r3, [pc, #276]	; (10003d58 <operation+0x514>)
10003c44:	4d45      	ldr	r5, [pc, #276]	; (10003d5c <operation+0x518>)
10003c46:	6819      	ldr	r1, [r3, #0]
10003c48:	4b45      	ldr	r3, [pc, #276]	; (10003d60 <operation+0x51c>)
10003c4a:	4c46      	ldr	r4, [pc, #280]	; (10003d64 <operation+0x520>)
10003c4c:	681b      	ldr	r3, [r3, #0]
10003c4e:	0028      	movs	r0, r5
10003c50:	18c9      	adds	r1, r1, r3
10003c52:	6021      	str	r1, [r4, #0]
10003c54:	f004 fba4 	bl	100083a0 <__wrap_printf>
10003c58:	0029      	movs	r1, r5
10003c5a:	6822      	ldr	r2, [r4, #0]
10003c5c:	4c42      	ldr	r4, [pc, #264]	; (10003d68 <operation+0x524>)
10003c5e:	0020      	movs	r0, r4
10003c60:	f003 f9b4 	bl	10006fcc <__wrap_sprintf>
10003c64:	4841      	ldr	r0, [pc, #260]	; (10003d6c <operation+0x528>)
10003c66:	f7ff fb61 	bl	1000332c <tft_setTextColor>
10003c6a:	2118      	movs	r1, #24
10003c6c:	2014      	movs	r0, #20
10003c6e:	f7ff fb49 	bl	10003304 <tft_setCursor>
10003c72:	2002      	movs	r0, #2
10003c74:	f7ff fb50 	bl	10003318 <tft_setTextSize>
10003c78:	0020      	movs	r0, r4
10003c7a:	f7ff fad7 	bl	1000322c <tft_writeString>
10003c7e:	e777      	b.n	10003b70 <operation+0x32c>
10003c80:	4c3b      	ldr	r4, [pc, #236]	; (10003d70 <operation+0x52c>)
10003c82:	6823      	ldr	r3, [r4, #0]
10003c84:	e5fa      	b.n	1000387c <operation+0x38>
10003c86:	483b      	ldr	r0, [pc, #236]	; (10003d74 <operation+0x530>)
10003c88:	f004 fae8 	bl	1000825c <__wrap_puts>
10003c8c:	2000      	movs	r0, #0
10003c8e:	f7ff fb4d 	bl	1000332c <tft_setTextColor>
10003c92:	2118      	movs	r1, #24
10003c94:	2014      	movs	r0, #20
10003c96:	f7ff fb35 	bl	10003304 <tft_setCursor>
10003c9a:	2002      	movs	r0, #2
10003c9c:	f7ff fb3c 	bl	10003318 <tft_setTextSize>
10003ca0:	482c      	ldr	r0, [pc, #176]	; (10003d54 <operation+0x510>)
10003ca2:	f7ff fac3 	bl	1000322c <tft_writeString>
10003ca6:	4b2e      	ldr	r3, [pc, #184]	; (10003d60 <operation+0x51c>)
10003ca8:	6819      	ldr	r1, [r3, #0]
10003caa:	4b2b      	ldr	r3, [pc, #172]	; (10003d58 <operation+0x514>)
10003cac:	6818      	ldr	r0, [r3, #0]
10003cae:	f003 fa09 	bl	100070c4 <__wrap___aeabi_idiv>
10003cb2:	0002      	movs	r2, r0
10003cb4:	4b2b      	ldr	r3, [pc, #172]	; (10003d64 <operation+0x520>)
10003cb6:	4c2c      	ldr	r4, [pc, #176]	; (10003d68 <operation+0x524>)
10003cb8:	4928      	ldr	r1, [pc, #160]	; (10003d5c <operation+0x518>)
10003cba:	601a      	str	r2, [r3, #0]
10003cbc:	e7cf      	b.n	10003c5e <operation+0x41a>
10003cbe:	482e      	ldr	r0, [pc, #184]	; (10003d78 <operation+0x534>)
10003cc0:	f004 facc 	bl	1000825c <__wrap_puts>
10003cc4:	2000      	movs	r0, #0
10003cc6:	f7ff fb31 	bl	1000332c <tft_setTextColor>
10003cca:	2118      	movs	r1, #24
10003ccc:	2014      	movs	r0, #20
10003cce:	f7ff fb19 	bl	10003304 <tft_setCursor>
10003cd2:	2002      	movs	r0, #2
10003cd4:	f7ff fb20 	bl	10003318 <tft_setTextSize>
10003cd8:	481e      	ldr	r0, [pc, #120]	; (10003d54 <operation+0x510>)
10003cda:	f7ff faa7 	bl	1000322c <tft_writeString>
10003cde:	4b1e      	ldr	r3, [pc, #120]	; (10003d58 <operation+0x514>)
10003ce0:	681a      	ldr	r2, [r3, #0]
10003ce2:	4b1f      	ldr	r3, [pc, #124]	; (10003d60 <operation+0x51c>)
10003ce4:	681b      	ldr	r3, [r3, #0]
10003ce6:	1ad2      	subs	r2, r2, r3
10003ce8:	e7e4      	b.n	10003cb4 <operation+0x470>
10003cea:	2303      	movs	r3, #3
10003cec:	4c17      	ldr	r4, [pc, #92]	; (10003d4c <operation+0x508>)
10003cee:	702b      	strb	r3, [r5, #0]
10003cf0:	e728      	b.n	10003b44 <operation+0x300>
10003cf2:	4822      	ldr	r0, [pc, #136]	; (10003d7c <operation+0x538>)
10003cf4:	f004 fab2 	bl	1000825c <__wrap_puts>
10003cf8:	2000      	movs	r0, #0
10003cfa:	f7ff fb17 	bl	1000332c <tft_setTextColor>
10003cfe:	2118      	movs	r1, #24
10003d00:	2014      	movs	r0, #20
10003d02:	f7ff faff 	bl	10003304 <tft_setCursor>
10003d06:	2002      	movs	r0, #2
10003d08:	f7ff fb06 	bl	10003318 <tft_setTextSize>
10003d0c:	4811      	ldr	r0, [pc, #68]	; (10003d54 <operation+0x510>)
10003d0e:	f7ff fa8d 	bl	1000322c <tft_writeString>
10003d12:	4b11      	ldr	r3, [pc, #68]	; (10003d58 <operation+0x514>)
10003d14:	4a12      	ldr	r2, [pc, #72]	; (10003d60 <operation+0x51c>)
10003d16:	681b      	ldr	r3, [r3, #0]
10003d18:	6812      	ldr	r2, [r2, #0]
10003d1a:	435a      	muls	r2, r3
10003d1c:	e7ca      	b.n	10003cb4 <operation+0x470>
10003d1e:	2b0f      	cmp	r3, #15
10003d20:	d000      	beq.n	10003d24 <operation+0x4e0>
10003d22:	e5a7      	b.n	10003874 <operation+0x30>
10003d24:	2300      	movs	r3, #0
10003d26:	4a0f      	ldr	r2, [pc, #60]	; (10003d64 <operation+0x520>)
10003d28:	702b      	strb	r3, [r5, #0]
10003d2a:	6013      	str	r3, [r2, #0]
10003d2c:	4a0a      	ldr	r2, [pc, #40]	; (10003d58 <operation+0x514>)
10003d2e:	6013      	str	r3, [r2, #0]
10003d30:	4a0b      	ldr	r2, [pc, #44]	; (10003d60 <operation+0x51c>)
10003d32:	6013      	str	r3, [r2, #0]
10003d34:	e605      	b.n	10003942 <operation+0xfe>
10003d36:	2302      	movs	r3, #2
10003d38:	4c03      	ldr	r4, [pc, #12]	; (10003d48 <operation+0x504>)
10003d3a:	702b      	strb	r3, [r5, #0]
10003d3c:	6821      	ldr	r1, [r4, #0]
10003d3e:	e652      	b.n	100039e6 <operation+0x1a2>
10003d40:	4c01      	ldr	r4, [pc, #4]	; (10003d48 <operation+0x504>)
10003d42:	6821      	ldr	r1, [r4, #0]
10003d44:	e64f      	b.n	100039e6 <operation+0x1a2>
10003d46:	46c0      	nop			; (mov r8, r8)
10003d48:	20000700 	.word	0x20000700
10003d4c:	200006ac 	.word	0x200006ac
10003d50:	10008f20 	.word	0x10008f20
10003d54:	2000067c 	.word	0x2000067c
10003d58:	2000069c 	.word	0x2000069c
10003d5c:	10008e78 	.word	0x10008e78
10003d60:	200006a0 	.word	0x200006a0
10003d64:	200006c4 	.word	0x200006c4
10003d68:	200006c8 	.word	0x200006c8
10003d6c:	0000ffff 	.word	0x0000ffff
10003d70:	200006fc 	.word	0x200006fc
10003d74:	10008f5c 	.word	0x10008f5c
10003d78:	10008f30 	.word	0x10008f30
10003d7c:	10008f44 	.word	0x10008f44

10003d80 <get_ts_lcd>:
10003d80:	b570      	push	{r4, r5, r6, lr}
10003d82:	b082      	sub	sp, #8
10003d84:	0005      	movs	r5, r0
10003d86:	4668      	mov	r0, sp
10003d88:	000c      	movs	r4, r1
10003d8a:	f7fc fabb 	bl	10000304 <getPoint>
10003d8e:	466b      	mov	r3, sp
10003d90:	2000      	movs	r0, #0
10003d92:	5e18      	ldrsh	r0, [r3, r0]
10003d94:	4b13      	ldr	r3, [pc, #76]	; (10003de4 <get_ts_lcd+0x64>)
10003d96:	4914      	ldr	r1, [pc, #80]	; (10003de8 <get_ts_lcd+0x68>)
10003d98:	469c      	mov	ip, r3
10003d9a:	4460      	add	r0, ip
10003d9c:	0103      	lsls	r3, r0, #4
10003d9e:	1a18      	subs	r0, r3, r0
10003da0:	0100      	lsls	r0, r0, #4
10003da2:	f003 f98f 	bl	100070c4 <__wrap___aeabi_idiv>
10003da6:	466b      	mov	r3, sp
10003da8:	0006      	movs	r6, r0
10003daa:	2002      	movs	r0, #2
10003dac:	5e18      	ldrsh	r0, [r3, r0]
10003dae:	4b0f      	ldr	r3, [pc, #60]	; (10003dec <get_ts_lcd+0x6c>)
10003db0:	490f      	ldr	r1, [pc, #60]	; (10003df0 <get_ts_lcd+0x70>)
10003db2:	469c      	mov	ip, r3
10003db4:	4460      	add	r0, ip
10003db6:	0083      	lsls	r3, r0, #2
10003db8:	1818      	adds	r0, r3, r0
10003dba:	0180      	lsls	r0, r0, #6
10003dbc:	f003 f982 	bl	100070c4 <__wrap___aeabi_idiv>
10003dc0:	466a      	mov	r2, sp
10003dc2:	23af      	movs	r3, #175	; 0xaf
10003dc4:	8028      	strh	r0, [r5, #0]
10003dc6:	8026      	strh	r6, [r4, #0]
10003dc8:	2104      	movs	r1, #4
10003dca:	5e52      	ldrsh	r2, [r2, r1]
10003dcc:	2000      	movs	r0, #0
10003dce:	00db      	lsls	r3, r3, #3
10003dd0:	429a      	cmp	r2, r3
10003dd2:	db01      	blt.n	10003dd8 <get_ts_lcd+0x58>
10003dd4:	b002      	add	sp, #8
10003dd6:	bd70      	pop	{r4, r5, r6, pc}
10003dd8:	4806      	ldr	r0, [pc, #24]	; (10003df4 <get_ts_lcd+0x74>)
10003dda:	f004 fa3f 	bl	1000825c <__wrap_puts>
10003dde:	2001      	movs	r0, #1
10003de0:	e7f8      	b.n	10003dd4 <get_ts_lcd+0x54>
10003de2:	46c0      	nop			; (mov r8, r8)
10003de4:	fffffcea 	.word	0xfffffcea
10003de8:	00000bb8 	.word	0x00000bb8
10003dec:	fffff1f0 	.word	0xfffff1f0
10003df0:	fffff4ac 	.word	0xfffff4ac
10003df4:	10008f74 	.word	0x10008f74

10003df8 <main>:
10003df8:	b5f8      	push	{r3, r4, r5, r6, r7, lr}
10003dfa:	f7ff faa1 	bl	10003340 <calculator>
10003dfe:	f004 fadb 	bl	100083b8 <stdio_init_all>
10003e02:	f000 f99b 	bl	1000413c <timer_read>
10003e06:	4e15      	ldr	r6, [pc, #84]	; (10003e5c <main+0x64>)
10003e08:	4d15      	ldr	r5, [pc, #84]	; (10003e60 <main+0x68>)
10003e0a:	4c16      	ldr	r4, [pc, #88]	; (10003e64 <main+0x6c>)
10003e0c:	4f16      	ldr	r7, [pc, #88]	; (10003e68 <main+0x70>)
10003e0e:	6030      	str	r0, [r6, #0]
10003e10:	6028      	str	r0, [r5, #0]
10003e12:	f000 f993 	bl	1000413c <timer_read>
10003e16:	0001      	movs	r1, r0
10003e18:	6020      	str	r0, [r4, #0]
10003e1a:	6038      	str	r0, [r7, #0]
10003e1c:	6828      	ldr	r0, [r5, #0]
10003e1e:	f000 f993 	bl	10004148 <timer_elapsed_ms>
10003e22:	2863      	cmp	r0, #99	; 0x63
10003e24:	d80a      	bhi.n	10003e3c <main+0x44>
10003e26:	6821      	ldr	r1, [r4, #0]
10003e28:	6830      	ldr	r0, [r6, #0]
10003e2a:	f000 f98d 	bl	10004148 <timer_elapsed_ms>
10003e2e:	28c7      	cmp	r0, #199	; 0xc7
10003e30:	d9ef      	bls.n	10003e12 <main+0x1a>
10003e32:	f7ff fd07 	bl	10003844 <operation>
10003e36:	6823      	ldr	r3, [r4, #0]
10003e38:	6033      	str	r3, [r6, #0]
10003e3a:	e7ea      	b.n	10003e12 <main+0x1a>
10003e3c:	f000 f8ec 	bl	10004018 <debouncer>
10003e40:	683b      	ldr	r3, [r7, #0]
10003e42:	6821      	ldr	r1, [r4, #0]
10003e44:	6830      	ldr	r0, [r6, #0]
10003e46:	602b      	str	r3, [r5, #0]
10003e48:	f000 f97e 	bl	10004148 <timer_elapsed_ms>
10003e4c:	28c7      	cmp	r0, #199	; 0xc7
10003e4e:	d9e0      	bls.n	10003e12 <main+0x1a>
10003e50:	f7ff fcf8 	bl	10003844 <operation>
10003e54:	6823      	ldr	r3, [r4, #0]
10003e56:	6033      	str	r3, [r6, #0]
10003e58:	e7db      	b.n	10003e12 <main+0x1a>
10003e5a:	46c0      	nop			; (mov r8, r8)
10003e5c:	2000070c 	.word	0x2000070c
10003e60:	20000704 	.word	0x20000704
10003e64:	20000710 	.word	0x20000710
10003e68:	20000708 	.word	0x20000708

10003e6c <read_input>:
10003e6c:	b570      	push	{r4, r5, r6, lr}
10003e6e:	1e44      	subs	r4, r0, #1
10003e70:	b2a4      	uxth	r4, r4
10003e72:	0003      	movs	r3, r0
10003e74:	2c4e      	cmp	r4, #78	; 0x4e
10003e76:	d835      	bhi.n	10003ee4 <read_input+0x78>
10003e78:	000a      	movs	r2, r1
10003e7a:	3a3d      	subs	r2, #61	; 0x3d
10003e7c:	2007      	movs	r0, #7
10003e7e:	2a2b      	cmp	r2, #43	; 0x2b
10003e80:	d92f      	bls.n	10003ee2 <read_input+0x76>
10003e82:	001a      	movs	r2, r3
10003e84:	001d      	movs	r5, r3
10003e86:	3a51      	subs	r2, #81	; 0x51
10003e88:	3da1      	subs	r5, #161	; 0xa1
10003e8a:	b292      	uxth	r2, r2
10003e8c:	b2ad      	uxth	r5, r5
10003e8e:	3bf1      	subs	r3, #241	; 0xf1
10003e90:	b29b      	uxth	r3, r3
10003e92:	2b4e      	cmp	r3, #78	; 0x4e
10003e94:	d804      	bhi.n	10003ea0 <read_input+0x34>
10003e96:	293c      	cmp	r1, #60	; 0x3c
10003e98:	d902      	bls.n	10003ea0 <read_input+0x34>
10003e9a:	2968      	cmp	r1, #104	; 0x68
10003e9c:	d800      	bhi.n	10003ea0 <read_input+0x34>
10003e9e:	e0ae      	b.n	10003ffe <read_input+0x192>
10003ea0:	2c4e      	cmp	r4, #78	; 0x4e
10003ea2:	d84c      	bhi.n	10003f3e <read_input+0xd2>
10003ea4:	2969      	cmp	r1, #105	; 0x69
10003ea6:	d800      	bhi.n	10003eaa <read_input+0x3e>
10003ea8:	e06d      	b.n	10003f86 <read_input+0x11a>
10003eaa:	2995      	cmp	r1, #149	; 0x95
10003eac:	d800      	bhi.n	10003eb0 <read_input+0x44>
10003eae:	e0ac      	b.n	1000400a <read_input+0x19e>
10003eb0:	2a4e      	cmp	r2, #78	; 0x4e
10003eb2:	d807      	bhi.n	10003ec4 <read_input+0x58>
10003eb4:	2996      	cmp	r1, #150	; 0x96
10003eb6:	d80a      	bhi.n	10003ece <read_input+0x62>
10003eb8:	2000      	movs	r0, #0
10003eba:	2d4e      	cmp	r5, #78	; 0x4e
10003ebc:	d911      	bls.n	10003ee2 <read_input+0x76>
10003ebe:	2b4e      	cmp	r3, #78	; 0x4e
10003ec0:	d958      	bls.n	10003f74 <read_input+0x108>
10003ec2:	e032      	b.n	10003f2a <read_input+0xbe>
10003ec4:	2d4e      	cmp	r5, #78	; 0x4e
10003ec6:	d900      	bls.n	10003eca <read_input+0x5e>
10003ec8:	e09b      	b.n	10004002 <read_input+0x196>
10003eca:	2996      	cmp	r1, #150	; 0x96
10003ecc:	d944      	bls.n	10003f58 <read_input+0xec>
10003ece:	29c2      	cmp	r1, #194	; 0xc2
10003ed0:	d800      	bhi.n	10003ed4 <read_input+0x68>
10003ed2:	e08b      	b.n	10003fec <read_input+0x180>
10003ed4:	2a4e      	cmp	r2, #78	; 0x4e
10003ed6:	d900      	bls.n	10003eda <read_input+0x6e>
10003ed8:	e08a      	b.n	10003ff0 <read_input+0x184>
10003eda:	29c3      	cmp	r1, #195	; 0xc3
10003edc:	d800      	bhi.n	10003ee0 <read_input+0x74>
10003ede:	e081      	b.n	10003fe4 <read_input+0x178>
10003ee0:	2000      	movs	r0, #0
10003ee2:	bd70      	pop	{r4, r5, r6, pc}
10003ee4:	0002      	movs	r2, r0
10003ee6:	3a51      	subs	r2, #81	; 0x51
10003ee8:	b292      	uxth	r2, r2
10003eea:	2a4e      	cmp	r2, #78	; 0x4e
10003eec:	d90a      	bls.n	10003f04 <read_input+0x98>
10003eee:	0005      	movs	r5, r0
10003ef0:	3da1      	subs	r5, #161	; 0xa1
10003ef2:	b2ad      	uxth	r5, r5
10003ef4:	2d4e      	cmp	r5, #78	; 0x4e
10003ef6:	d8ca      	bhi.n	10003e8e <read_input+0x22>
10003ef8:	293c      	cmp	r1, #60	; 0x3c
10003efa:	d91e      	bls.n	10003f3a <read_input+0xce>
10003efc:	2968      	cmp	r1, #104	; 0x68
10003efe:	d808      	bhi.n	10003f12 <read_input+0xa6>
10003f00:	2009      	movs	r0, #9
10003f02:	e7ee      	b.n	10003ee2 <read_input+0x76>
10003f04:	293c      	cmp	r1, #60	; 0x3c
10003f06:	d901      	bls.n	10003f0c <read_input+0xa0>
10003f08:	2968      	cmp	r1, #104	; 0x68
10003f0a:	d95f      	bls.n	10003fcc <read_input+0x160>
10003f0c:	001d      	movs	r5, r3
10003f0e:	3da1      	subs	r5, #161	; 0xa1
10003f10:	b2ad      	uxth	r5, r5
10003f12:	3bf1      	subs	r3, #241	; 0xf1
10003f14:	b29b      	uxth	r3, r3
10003f16:	2a4e      	cmp	r2, #78	; 0x4e
10003f18:	d811      	bhi.n	10003f3e <read_input+0xd2>
10003f1a:	2969      	cmp	r1, #105	; 0x69
10003f1c:	d935      	bls.n	10003f8a <read_input+0x11e>
10003f1e:	2995      	cmp	r1, #149	; 0x95
10003f20:	d975      	bls.n	1000400e <read_input+0x1a2>
10003f22:	2996      	cmp	r1, #150	; 0x96
10003f24:	d954      	bls.n	10003fd0 <read_input+0x164>
10003f26:	29c2      	cmp	r1, #194	; 0xc2
10003f28:	d973      	bls.n	10004012 <read_input+0x1a6>
10003f2a:	2c4e      	cmp	r4, #78	; 0x4e
10003f2c:	d954      	bls.n	10003fd8 <read_input+0x16c>
10003f2e:	29c3      	cmp	r1, #195	; 0xc3
10003f30:	d958      	bls.n	10003fe4 <read_input+0x178>
10003f32:	29ef      	cmp	r1, #239	; 0xef
10003f34:	d8d4      	bhi.n	10003ee0 <read_input+0x74>
10003f36:	200f      	movs	r0, #15
10003f38:	e7d3      	b.n	10003ee2 <read_input+0x76>
10003f3a:	3bf1      	subs	r3, #241	; 0xf1
10003f3c:	b29b      	uxth	r3, r3
10003f3e:	2d4e      	cmp	r5, #78	; 0x4e
10003f40:	d826      	bhi.n	10003f90 <read_input+0x124>
10003f42:	000e      	movs	r6, r1
10003f44:	3e6a      	subs	r6, #106	; 0x6a
10003f46:	2006      	movs	r0, #6
10003f48:	2e2b      	cmp	r6, #43	; 0x2b
10003f4a:	d9ca      	bls.n	10003ee2 <read_input+0x76>
10003f4c:	2c4e      	cmp	r4, #78	; 0x4e
10003f4e:	d825      	bhi.n	10003f9c <read_input+0x130>
10003f50:	2996      	cmp	r1, #150	; 0x96
10003f52:	d8bc      	bhi.n	10003ece <read_input+0x62>
10003f54:	2a4e      	cmp	r2, #78	; 0x4e
10003f56:	d9af      	bls.n	10003eb8 <read_input+0x4c>
10003f58:	2000      	movs	r0, #0
10003f5a:	2d4e      	cmp	r5, #78	; 0x4e
10003f5c:	d9c1      	bls.n	10003ee2 <read_input+0x76>
10003f5e:	2b4e      	cmp	r3, #78	; 0x4e
10003f60:	d804      	bhi.n	10003f6c <read_input+0x100>
10003f62:	000e      	movs	r6, r1
10003f64:	3e97      	subs	r6, #151	; 0x97
10003f66:	200c      	movs	r0, #12
10003f68:	2e2b      	cmp	r6, #43	; 0x2b
10003f6a:	d9ba      	bls.n	10003ee2 <read_input+0x76>
10003f6c:	2c4e      	cmp	r4, #78	; 0x4e
10003f6e:	d933      	bls.n	10003fd8 <read_input+0x16c>
10003f70:	2b4e      	cmp	r3, #78	; 0x4e
10003f72:	d8b5      	bhi.n	10003ee0 <read_input+0x74>
10003f74:	202b      	movs	r0, #43	; 0x2b
10003f76:	39c4      	subs	r1, #196	; 0xc4
10003f78:	b289      	uxth	r1, r1
10003f7a:	4288      	cmp	r0, r1
10003f7c:	4180      	sbcs	r0, r0
10003f7e:	230c      	movs	r3, #12
10003f80:	4398      	bics	r0, r3
10003f82:	300d      	adds	r0, #13
10003f84:	e7ad      	b.n	10003ee2 <read_input+0x76>
10003f86:	2a4e      	cmp	r2, #78	; 0x4e
10003f88:	d8d9      	bhi.n	10003f3e <read_input+0xd2>
10003f8a:	2000      	movs	r0, #0
10003f8c:	2d4e      	cmp	r5, #78	; 0x4e
10003f8e:	d9a8      	bls.n	10003ee2 <read_input+0x76>
10003f90:	2b4e      	cmp	r3, #78	; 0x4e
10003f92:	d914      	bls.n	10003fbe <read_input+0x152>
10003f94:	2c4e      	cmp	r4, #78	; 0x4e
10003f96:	d9db      	bls.n	10003f50 <read_input+0xe4>
10003f98:	2a4e      	cmp	r2, #78	; 0x4e
10003f9a:	d9c2      	bls.n	10003f22 <read_input+0xb6>
10003f9c:	2d4e      	cmp	r5, #78	; 0x4e
10003f9e:	d8de      	bhi.n	10003f5e <read_input+0xf2>
10003fa0:	000b      	movs	r3, r1
10003fa2:	3b97      	subs	r3, #151	; 0x97
10003fa4:	2003      	movs	r0, #3
10003fa6:	2b2b      	cmp	r3, #43	; 0x2b
10003fa8:	d99b      	bls.n	10003ee2 <read_input+0x76>
10003faa:	29c3      	cmp	r1, #195	; 0xc3
10003fac:	d998      	bls.n	10003ee0 <read_input+0x74>
10003fae:	2300      	movs	r3, #0
10003fb0:	22ef      	movs	r2, #239	; 0xef
10003fb2:	428a      	cmp	r2, r1
10003fb4:	415b      	adcs	r3, r3
10003fb6:	200e      	movs	r0, #14
10003fb8:	425b      	negs	r3, r3
10003fba:	4018      	ands	r0, r3
10003fbc:	e791      	b.n	10003ee2 <read_input+0x76>
10003fbe:	000e      	movs	r6, r1
10003fc0:	3e6a      	subs	r6, #106	; 0x6a
10003fc2:	200b      	movs	r0, #11
10003fc4:	2e2b      	cmp	r6, #43	; 0x2b
10003fc6:	d800      	bhi.n	10003fca <read_input+0x15e>
10003fc8:	e78b      	b.n	10003ee2 <read_input+0x76>
10003fca:	e7e3      	b.n	10003f94 <read_input+0x128>
10003fcc:	2008      	movs	r0, #8
10003fce:	e788      	b.n	10003ee2 <read_input+0x76>
10003fd0:	2000      	movs	r0, #0
10003fd2:	2d4e      	cmp	r5, #78	; 0x4e
10003fd4:	d8a9      	bhi.n	10003f2a <read_input+0xbe>
10003fd6:	e784      	b.n	10003ee2 <read_input+0x76>
10003fd8:	29c3      	cmp	r1, #195	; 0xc3
10003fda:	d900      	bls.n	10003fde <read_input+0x172>
10003fdc:	e780      	b.n	10003ee0 <read_input+0x74>
10003fde:	2a4e      	cmp	r2, #78	; 0x4e
10003fe0:	d900      	bls.n	10003fe4 <read_input+0x178>
10003fe2:	e77d      	b.n	10003ee0 <read_input+0x74>
10003fe4:	2d4e      	cmp	r5, #78	; 0x4e
10003fe6:	d8c3      	bhi.n	10003f70 <read_input+0x104>
10003fe8:	2000      	movs	r0, #0
10003fea:	e77a      	b.n	10003ee2 <read_input+0x76>
10003fec:	2001      	movs	r0, #1
10003fee:	e778      	b.n	10003ee2 <read_input+0x76>
10003ff0:	2d4e      	cmp	r5, #78	; 0x4e
10003ff2:	d800      	bhi.n	10003ff6 <read_input+0x18a>
10003ff4:	e774      	b.n	10003ee0 <read_input+0x74>
10003ff6:	2b4e      	cmp	r3, #78	; 0x4e
10003ff8:	d9b3      	bls.n	10003f62 <read_input+0xf6>
10003ffa:	2000      	movs	r0, #0
10003ffc:	e771      	b.n	10003ee2 <read_input+0x76>
10003ffe:	200a      	movs	r0, #10
10004000:	e76f      	b.n	10003ee2 <read_input+0x76>
10004002:	2b4e      	cmp	r3, #78	; 0x4e
10004004:	d800      	bhi.n	10004008 <read_input+0x19c>
10004006:	e760      	b.n	10003eca <read_input+0x5e>
10004008:	e7a2      	b.n	10003f50 <read_input+0xe4>
1000400a:	2004      	movs	r0, #4
1000400c:	e769      	b.n	10003ee2 <read_input+0x76>
1000400e:	2005      	movs	r0, #5
10004010:	e767      	b.n	10003ee2 <read_input+0x76>
10004012:	2002      	movs	r0, #2
10004014:	e765      	b.n	10003ee2 <read_input+0x76>
10004016:	46c0      	nop			; (mov r8, r8)

10004018 <debouncer>:
10004018:	b5f8      	push	{r3, r4, r5, r6, r7, lr}
1000401a:	4d36      	ldr	r5, [pc, #216]	; (100040f4 <debouncer+0xdc>)
1000401c:	782c      	ldrb	r4, [r5, #0]
1000401e:	2c02      	cmp	r4, #2
10004020:	d04a      	beq.n	100040b8 <debouncer+0xa0>
10004022:	d81a      	bhi.n	1000405a <debouncer+0x42>
10004024:	2c00      	cmp	r4, #0
10004026:	d032      	beq.n	1000408e <debouncer+0x76>
10004028:	4833      	ldr	r0, [pc, #204]	; (100040f8 <debouncer+0xe0>)
1000402a:	f004 f9b9 	bl	100083a0 <__wrap_printf>
1000402e:	2310      	movs	r3, #16
10004030:	4a32      	ldr	r2, [pc, #200]	; (100040fc <debouncer+0xe4>)
10004032:	4c33      	ldr	r4, [pc, #204]	; (10004100 <debouncer+0xe8>)
10004034:	4933      	ldr	r1, [pc, #204]	; (10004104 <debouncer+0xec>)
10004036:	4834      	ldr	r0, [pc, #208]	; (10004108 <debouncer+0xf0>)
10004038:	6013      	str	r3, [r2, #0]
1000403a:	6023      	str	r3, [r4, #0]
1000403c:	f7ff fea0 	bl	10003d80 <get_ts_lcd>
10004040:	2300      	movs	r3, #0
10004042:	2800      	cmp	r0, #0
10004044:	d003      	beq.n	1000404e <debouncer+0x36>
10004046:	2201      	movs	r2, #1
10004048:	4b30      	ldr	r3, [pc, #192]	; (1000410c <debouncer+0xf4>)
1000404a:	701a      	strb	r2, [r3, #0]
1000404c:	2302      	movs	r3, #2
1000404e:	6821      	ldr	r1, [r4, #0]
10004050:	482f      	ldr	r0, [pc, #188]	; (10004110 <debouncer+0xf8>)
10004052:	702b      	strb	r3, [r5, #0]
10004054:	f004 f9a4 	bl	100083a0 <__wrap_printf>
10004058:	e015      	b.n	10004086 <debouncer+0x6e>
1000405a:	2c03      	cmp	r4, #3
1000405c:	d114      	bne.n	10004088 <debouncer+0x70>
1000405e:	482d      	ldr	r0, [pc, #180]	; (10004114 <debouncer+0xfc>)
10004060:	f004 f99e 	bl	100083a0 <__wrap_printf>
10004064:	2310      	movs	r3, #16
10004066:	4c26      	ldr	r4, [pc, #152]	; (10004100 <debouncer+0xe8>)
10004068:	4a24      	ldr	r2, [pc, #144]	; (100040fc <debouncer+0xe4>)
1000406a:	4926      	ldr	r1, [pc, #152]	; (10004104 <debouncer+0xec>)
1000406c:	4826      	ldr	r0, [pc, #152]	; (10004108 <debouncer+0xf0>)
1000406e:	6013      	str	r3, [r2, #0]
10004070:	6023      	str	r3, [r4, #0]
10004072:	f7ff fe85 	bl	10003d80 <get_ts_lcd>
10004076:	1e43      	subs	r3, r0, #1
10004078:	4198      	sbcs	r0, r3
1000407a:	6821      	ldr	r1, [r4, #0]
1000407c:	0040      	lsls	r0, r0, #1
1000407e:	7028      	strb	r0, [r5, #0]
10004080:	4823      	ldr	r0, [pc, #140]	; (10004110 <debouncer+0xf8>)
10004082:	f004 f98d 	bl	100083a0 <__wrap_printf>
10004086:	bdf8      	pop	{r3, r4, r5, r6, r7, pc}
10004088:	2300      	movs	r3, #0
1000408a:	702b      	strb	r3, [r5, #0]
1000408c:	e7fb      	b.n	10004086 <debouncer+0x6e>
1000408e:	4822      	ldr	r0, [pc, #136]	; (10004118 <debouncer+0x100>)
10004090:	f004 f986 	bl	100083a0 <__wrap_printf>
10004094:	4c1a      	ldr	r4, [pc, #104]	; (10004100 <debouncer+0xe8>)
10004096:	481e      	ldr	r0, [pc, #120]	; (10004110 <debouncer+0xf8>)
10004098:	6821      	ldr	r1, [r4, #0]
1000409a:	f004 f981 	bl	100083a0 <__wrap_printf>
1000409e:	2310      	movs	r3, #16
100040a0:	4a16      	ldr	r2, [pc, #88]	; (100040fc <debouncer+0xe4>)
100040a2:	4918      	ldr	r1, [pc, #96]	; (10004104 <debouncer+0xec>)
100040a4:	4818      	ldr	r0, [pc, #96]	; (10004108 <debouncer+0xf0>)
100040a6:	6013      	str	r3, [r2, #0]
100040a8:	6023      	str	r3, [r4, #0]
100040aa:	f7ff fe69 	bl	10003d80 <get_ts_lcd>
100040ae:	2800      	cmp	r0, #0
100040b0:	d012      	beq.n	100040d8 <debouncer+0xc0>
100040b2:	2301      	movs	r3, #1
100040b4:	702b      	strb	r3, [r5, #0]
100040b6:	e7e6      	b.n	10004086 <debouncer+0x6e>
100040b8:	4818      	ldr	r0, [pc, #96]	; (1000411c <debouncer+0x104>)
100040ba:	f004 f971 	bl	100083a0 <__wrap_printf>
100040be:	4f11      	ldr	r7, [pc, #68]	; (10004104 <debouncer+0xec>)
100040c0:	4e11      	ldr	r6, [pc, #68]	; (10004108 <debouncer+0xf0>)
100040c2:	0039      	movs	r1, r7
100040c4:	0030      	movs	r0, r6
100040c6:	f7ff fe5b 	bl	10003d80 <get_ts_lcd>
100040ca:	2800      	cmp	r0, #0
100040cc:	d106      	bne.n	100040dc <debouncer+0xc4>
100040ce:	2303      	movs	r3, #3
100040d0:	702b      	strb	r3, [r5, #0]
100040d2:	4b0b      	ldr	r3, [pc, #44]	; (10004100 <debouncer+0xe8>)
100040d4:	6819      	ldr	r1, [r3, #0]
100040d6:	e7d3      	b.n	10004080 <debouncer+0x68>
100040d8:	7028      	strb	r0, [r5, #0]
100040da:	e7d4      	b.n	10004086 <debouncer+0x6e>
100040dc:	8839      	ldrh	r1, [r7, #0]
100040de:	8830      	ldrh	r0, [r6, #0]
100040e0:	f7ff fec4 	bl	10003e6c <read_input>
100040e4:	4b05      	ldr	r3, [pc, #20]	; (100040fc <debouncer+0xe4>)
100040e6:	0001      	movs	r1, r0
100040e8:	6018      	str	r0, [r3, #0]
100040ea:	4b05      	ldr	r3, [pc, #20]	; (10004100 <debouncer+0xe8>)
100040ec:	702c      	strb	r4, [r5, #0]
100040ee:	6018      	str	r0, [r3, #0]
100040f0:	e7c6      	b.n	10004080 <debouncer+0x68>
100040f2:	46c0      	nop			; (mov r8, r8)
100040f4:	20000740 	.word	0x20000740
100040f8:	10008f88 	.word	0x10008f88
100040fc:	200006e8 	.word	0x200006e8
10004100:	200006ec 	.word	0x200006ec
10004104:	20000736 	.word	0x20000736
10004108:	20000734 	.word	0x20000734
1000410c:	20000744 	.word	0x20000744
10004110:	10008e78 	.word	0x10008e78
10004114:	10008f9c 	.word	0x10008f9c
10004118:	10008f80 	.word	0x10008f80
1000411c:	10008f94 	.word	0x10008f94

10004120 <debounce_pressed>:
10004120:	4b04      	ldr	r3, [pc, #16]	; (10004134 <debounce_pressed+0x14>)
10004122:	7818      	ldrb	r0, [r3, #0]
10004124:	2800      	cmp	r0, #0
10004126:	d004      	beq.n	10004132 <debounce_pressed+0x12>
10004128:	4b03      	ldr	r3, [pc, #12]	; (10004138 <debounce_pressed+0x18>)
1000412a:	6818      	ldr	r0, [r3, #0]
1000412c:	1e43      	subs	r3, r0, #1
1000412e:	4198      	sbcs	r0, r3
10004130:	b2c0      	uxtb	r0, r0
10004132:	4770      	bx	lr
10004134:	20000744 	.word	0x20000744
10004138:	200006ec 	.word	0x200006ec

1000413c <timer_read>:
1000413c:	4b01      	ldr	r3, [pc, #4]	; (10004144 <timer_read+0x8>)
1000413e:	6a98      	ldr	r0, [r3, #40]	; 0x28
10004140:	4770      	bx	lr
10004142:	46c0      	nop			; (mov r8, r8)
10004144:	40054000 	.word	0x40054000

10004148 <timer_elapsed_ms>:
10004148:	1a08      	subs	r0, r1, r0
1000414a:	21fa      	movs	r1, #250	; 0xfa
1000414c:	b510      	push	{r4, lr}
1000414e:	0089      	lsls	r1, r1, #2
10004150:	f002 ffe0 	bl	10007114 <__wrap___aeabi_uidiv>
10004154:	bd10      	pop	{r4, pc}
10004156:	46c0      	nop			; (mov r8, r8)

10004158 <arrayClear>:
10004158:	7803      	ldrb	r3, [r0, #0]
1000415a:	2b00      	cmp	r3, #0
1000415c:	d005      	beq.n	1000416a <arrayClear+0x12>
1000415e:	2220      	movs	r2, #32
10004160:	7002      	strb	r2, [r0, #0]
10004162:	7843      	ldrb	r3, [r0, #1]
10004164:	3001      	adds	r0, #1
10004166:	2b00      	cmp	r3, #0
10004168:	d1fa      	bne.n	10004160 <arrayClear+0x8>
1000416a:	4770      	bx	lr

1000416c <gpio_set_function>:
1000416c:	4a09      	ldr	r2, [pc, #36]	; (10004194 <gpio_set_function+0x28>)
1000416e:	0083      	lsls	r3, r0, #2
10004170:	4694      	mov	ip, r2
10004172:	2240      	movs	r2, #64	; 0x40
10004174:	4463      	add	r3, ip
10004176:	b510      	push	{r4, lr}
10004178:	681c      	ldr	r4, [r3, #0]
1000417a:	00c0      	lsls	r0, r0, #3
1000417c:	4062      	eors	r2, r4
1000417e:	24c0      	movs	r4, #192	; 0xc0
10004180:	4014      	ands	r4, r2
10004182:	2280      	movs	r2, #128	; 0x80
10004184:	0152      	lsls	r2, r2, #5
10004186:	4313      	orrs	r3, r2
10004188:	601c      	str	r4, [r3, #0]
1000418a:	4b03      	ldr	r3, [pc, #12]	; (10004198 <gpio_set_function+0x2c>)
1000418c:	469c      	mov	ip, r3
1000418e:	4460      	add	r0, ip
10004190:	6041      	str	r1, [r0, #4]
10004192:	bd10      	pop	{r4, pc}
10004194:	4001c004 	.word	0x4001c004
10004198:	40014000 	.word	0x40014000

1000419c <gpio_set_pulls>:
1000419c:	4b0a      	ldr	r3, [pc, #40]	; (100041c8 <gpio_set_pulls+0x2c>)
1000419e:	0080      	lsls	r0, r0, #2
100041a0:	469c      	mov	ip, r3
100041a2:	2304      	movs	r3, #4
100041a4:	4460      	add	r0, ip
100041a6:	2900      	cmp	r1, #0
100041a8:	d001      	beq.n	100041ae <gpio_set_pulls+0x12>
100041aa:	230c      	movs	r3, #12
100041ac:	2108      	movs	r1, #8
100041ae:	2a00      	cmp	r2, #0
100041b0:	d100      	bne.n	100041b4 <gpio_set_pulls+0x18>
100041b2:	000b      	movs	r3, r1
100041b4:	6802      	ldr	r2, [r0, #0]
100041b6:	4053      	eors	r3, r2
100041b8:	220c      	movs	r2, #12
100041ba:	401a      	ands	r2, r3
100041bc:	2380      	movs	r3, #128	; 0x80
100041be:	015b      	lsls	r3, r3, #5
100041c0:	4318      	orrs	r0, r3
100041c2:	6002      	str	r2, [r0, #0]
100041c4:	4770      	bx	lr
100041c6:	46c0      	nop			; (mov r8, r8)
100041c8:	4001c004 	.word	0x4001c004

100041cc <gpio_set_outover>:
100041cc:	4b07      	ldr	r3, [pc, #28]	; (100041ec <gpio_set_outover+0x20>)
100041ce:	00c0      	lsls	r0, r0, #3
100041d0:	469c      	mov	ip, r3
100041d2:	4460      	add	r0, ip
100041d4:	6803      	ldr	r3, [r0, #0]
100041d6:	0209      	lsls	r1, r1, #8
100041d8:	4059      	eors	r1, r3
100041da:	23c0      	movs	r3, #192	; 0xc0
100041dc:	009b      	lsls	r3, r3, #2
100041de:	4019      	ands	r1, r3
100041e0:	2380      	movs	r3, #128	; 0x80
100041e2:	015b      	lsls	r3, r3, #5
100041e4:	4318      	orrs	r0, r3
100041e6:	6001      	str	r1, [r0, #0]
100041e8:	4770      	bx	lr
100041ea:	46c0      	nop			; (mov r8, r8)
100041ec:	40014004 	.word	0x40014004

100041f0 <gpio_set_input_enabled>:
100041f0:	4b08      	ldr	r3, [pc, #32]	; (10004214 <gpio_set_input_enabled+0x24>)
100041f2:	0080      	lsls	r0, r0, #2
100041f4:	469c      	mov	ip, r3
100041f6:	4460      	add	r0, ip
100041f8:	2900      	cmp	r1, #0
100041fa:	d005      	beq.n	10004208 <gpio_set_input_enabled+0x18>
100041fc:	2380      	movs	r3, #128	; 0x80
100041fe:	019b      	lsls	r3, r3, #6
10004200:	4318      	orrs	r0, r3
10004202:	2340      	movs	r3, #64	; 0x40
10004204:	6003      	str	r3, [r0, #0]
10004206:	4770      	bx	lr
10004208:	23c0      	movs	r3, #192	; 0xc0
1000420a:	019b      	lsls	r3, r3, #6
1000420c:	4318      	orrs	r0, r3
1000420e:	2340      	movs	r3, #64	; 0x40
10004210:	6003      	str	r3, [r0, #0]
10004212:	e7f8      	b.n	10004206 <gpio_set_input_enabled+0x16>
10004214:	4001c004 	.word	0x4001c004

10004218 <gpio_init>:
10004218:	2301      	movs	r3, #1
1000421a:	22d0      	movs	r2, #208	; 0xd0
1000421c:	4083      	lsls	r3, r0
1000421e:	0612      	lsls	r2, r2, #24
10004220:	6293      	str	r3, [r2, #40]	; 0x28
10004222:	6193      	str	r3, [r2, #24]
10004224:	4a09      	ldr	r2, [pc, #36]	; (1000424c <gpio_init+0x34>)
10004226:	0083      	lsls	r3, r0, #2
10004228:	4694      	mov	ip, r2
1000422a:	2240      	movs	r2, #64	; 0x40
1000422c:	4463      	add	r3, ip
1000422e:	6819      	ldr	r1, [r3, #0]
10004230:	00c0      	lsls	r0, r0, #3
10004232:	404a      	eors	r2, r1
10004234:	21c0      	movs	r1, #192	; 0xc0
10004236:	4011      	ands	r1, r2
10004238:	2280      	movs	r2, #128	; 0x80
1000423a:	0152      	lsls	r2, r2, #5
1000423c:	4313      	orrs	r3, r2
1000423e:	6019      	str	r1, [r3, #0]
10004240:	4b03      	ldr	r3, [pc, #12]	; (10004250 <gpio_init+0x38>)
10004242:	469c      	mov	ip, r3
10004244:	2305      	movs	r3, #5
10004246:	4460      	add	r0, ip
10004248:	6043      	str	r3, [r0, #4]
1000424a:	4770      	bx	lr
1000424c:	4001c004 	.word	0x4001c004
10004250:	40014000 	.word	0x40014000

10004254 <running_on_fpga>:
10004254:	4b02      	ldr	r3, [pc, #8]	; (10004260 <running_on_fpga+0xc>)
10004256:	6818      	ldr	r0, [r3, #0]
10004258:	0780      	lsls	r0, r0, #30
1000425a:	0fc0      	lsrs	r0, r0, #31
1000425c:	4770      	bx	lr
1000425e:	46c0      	nop			; (mov r8, r8)
10004260:	4006c000 	.word	0x4006c000

10004264 <hw_claim_lock>:
10004264:	f3ef 8010 	mrs	r0, PRIMASK
10004268:	b672      	cpsid	i
1000426a:	4a03      	ldr	r2, [pc, #12]	; (10004278 <hw_claim_lock+0x14>)
1000426c:	6813      	ldr	r3, [r2, #0]
1000426e:	2b00      	cmp	r3, #0
10004270:	d0fc      	beq.n	1000426c <hw_claim_lock+0x8>
10004272:	f3bf 8f5f 	dmb	sy
10004276:	4770      	bx	lr
10004278:	d000012c 	.word	0xd000012c

1000427c <hw_claim_unlock>:
1000427c:	f3bf 8f5f 	dmb	sy
10004280:	2200      	movs	r2, #0
10004282:	4b02      	ldr	r3, [pc, #8]	; (1000428c <hw_claim_unlock+0x10>)
10004284:	601a      	str	r2, [r3, #0]
10004286:	f380 8810 	msr	PRIMASK, r0
1000428a:	4770      	bx	lr
1000428c:	d000012c 	.word	0xd000012c

10004290 <hw_claim_or_assert>:
10004290:	b570      	push	{r4, r5, r6, lr}
10004292:	f3ef 8c10 	mrs	ip, PRIMASK
10004296:	b672      	cpsid	i
10004298:	4d0d      	ldr	r5, [pc, #52]	; (100042d0 <hw_claim_or_assert+0x40>)
1000429a:	682b      	ldr	r3, [r5, #0]
1000429c:	2b00      	cmp	r3, #0
1000429e:	d0fc      	beq.n	1000429a <hw_claim_or_assert+0xa>
100042a0:	f3bf 8f5f 	dmb	sy
100042a4:	2407      	movs	r4, #7
100042a6:	08cb      	lsrs	r3, r1, #3
100042a8:	18c6      	adds	r6, r0, r3
100042aa:	5cc0      	ldrb	r0, [r0, r3]
100042ac:	2301      	movs	r3, #1
100042ae:	400c      	ands	r4, r1
100042b0:	40a3      	lsls	r3, r4
100042b2:	001c      	movs	r4, r3
100042b4:	4004      	ands	r4, r0
100042b6:	4203      	tst	r3, r0
100042b8:	d107      	bne.n	100042ca <hw_claim_or_assert+0x3a>
100042ba:	4303      	orrs	r3, r0
100042bc:	7033      	strb	r3, [r6, #0]
100042be:	f3bf 8f5f 	dmb	sy
100042c2:	602c      	str	r4, [r5, #0]
100042c4:	f38c 8810 	msr	PRIMASK, ip
100042c8:	bd70      	pop	{r4, r5, r6, pc}
100042ca:	0010      	movs	r0, r2
100042cc:	f001 fba2 	bl	10005a14 <panic>
100042d0:	d000012c 	.word	0xd000012c

100042d4 <spin_locks_reset>:
100042d4:	2100      	movs	r1, #0
100042d6:	4b04      	ldr	r3, [pc, #16]	; (100042e8 <spin_locks_reset+0x14>)
100042d8:	4a04      	ldr	r2, [pc, #16]	; (100042ec <spin_locks_reset+0x18>)
100042da:	f3bf 8f5f 	dmb	sy
100042de:	c302      	stmia	r3!, {r1}
100042e0:	4293      	cmp	r3, r2
100042e2:	d1fa      	bne.n	100042da <spin_locks_reset+0x6>
100042e4:	4770      	bx	lr
100042e6:	46c0      	nop			; (mov r8, r8)
100042e8:	d0000100 	.word	0xd0000100
100042ec:	d0000180 	.word	0xd0000180

100042f0 <next_striped_spin_lock_num>:
100042f0:	4a04      	ldr	r2, [pc, #16]	; (10004304 <next_striped_spin_lock_num+0x14>)
100042f2:	7810      	ldrb	r0, [r2, #0]
100042f4:	1c43      	adds	r3, r0, #1
100042f6:	b2db      	uxtb	r3, r3
100042f8:	2b17      	cmp	r3, #23
100042fa:	d900      	bls.n	100042fe <next_striped_spin_lock_num+0xe>
100042fc:	2310      	movs	r3, #16
100042fe:	7013      	strb	r3, [r2, #0]
10004300:	4770      	bx	lr
10004302:	46c0      	nop			; (mov r8, r8)
10004304:	200001a8 	.word	0x200001a8

10004308 <irq_set_enabled>:
10004308:	2301      	movs	r3, #1
1000430a:	4083      	lsls	r3, r0
1000430c:	2900      	cmp	r1, #0
1000430e:	d004      	beq.n	1000431a <irq_set_enabled+0x12>
10004310:	4a03      	ldr	r2, [pc, #12]	; (10004320 <irq_set_enabled+0x18>)
10004312:	6013      	str	r3, [r2, #0]
10004314:	4a03      	ldr	r2, [pc, #12]	; (10004324 <irq_set_enabled+0x1c>)
10004316:	6013      	str	r3, [r2, #0]
10004318:	4770      	bx	lr
1000431a:	4a03      	ldr	r2, [pc, #12]	; (10004328 <irq_set_enabled+0x20>)
1000431c:	6013      	str	r3, [r2, #0]
1000431e:	e7fb      	b.n	10004318 <irq_set_enabled+0x10>
10004320:	e000e280 	.word	0xe000e280
10004324:	e000e100 	.word	0xe000e100
10004328:	e000e180 	.word	0xe000e180

1000432c <irq_get_vtable_handler>:
1000432c:	4b02      	ldr	r3, [pc, #8]	; (10004338 <irq_get_vtable_handler+0xc>)
1000432e:	3010      	adds	r0, #16
10004330:	689b      	ldr	r3, [r3, #8]
10004332:	0080      	lsls	r0, r0, #2
10004334:	58c0      	ldr	r0, [r0, r3]
10004336:	4770      	bx	lr
10004338:	e000ed00 	.word	0xe000ed00

1000433c <irq_set_exclusive_handler>:
1000433c:	b570      	push	{r4, r5, r6, lr}
1000433e:	000d      	movs	r5, r1
10004340:	f3ef 8610 	mrs	r6, PRIMASK
10004344:	b672      	cpsid	i
10004346:	4a0f      	ldr	r2, [pc, #60]	; (10004384 <irq_set_exclusive_handler+0x48>)
10004348:	6813      	ldr	r3, [r2, #0]
1000434a:	2b00      	cmp	r3, #0
1000434c:	d0fc      	beq.n	10004348 <irq_set_exclusive_handler+0xc>
1000434e:	f3bf 8f5f 	dmb	sy
10004352:	4b0d      	ldr	r3, [pc, #52]	; (10004388 <irq_set_exclusive_handler+0x4c>)
10004354:	3010      	adds	r0, #16
10004356:	689b      	ldr	r3, [r3, #8]
10004358:	0084      	lsls	r4, r0, #2
1000435a:	591b      	ldr	r3, [r3, r4]
1000435c:	4a0b      	ldr	r2, [pc, #44]	; (1000438c <irq_set_exclusive_handler+0x50>)
1000435e:	4293      	cmp	r3, r2
10004360:	d003      	beq.n	1000436a <irq_set_exclusive_handler+0x2e>
10004362:	429d      	cmp	r5, r3
10004364:	d001      	beq.n	1000436a <irq_set_exclusive_handler+0x2e>
10004366:	f001 fb6d 	bl	10005a44 <hard_assertion_failure>
1000436a:	4b07      	ldr	r3, [pc, #28]	; (10004388 <irq_set_exclusive_handler+0x4c>)
1000436c:	689b      	ldr	r3, [r3, #8]
1000436e:	511d      	str	r5, [r3, r4]
10004370:	f3bf 8f5f 	dmb	sy
10004374:	f3bf 8f5f 	dmb	sy
10004378:	2200      	movs	r2, #0
1000437a:	4b02      	ldr	r3, [pc, #8]	; (10004384 <irq_set_exclusive_handler+0x48>)
1000437c:	601a      	str	r2, [r3, #0]
1000437e:	f386 8810 	msr	PRIMASK, r6
10004382:	bd70      	pop	{r4, r5, r6, pc}
10004384:	d0000124 	.word	0xd0000124
10004388:	e000ed00 	.word	0xe000ed00
1000438c:	100001cd 	.word	0x100001cd

10004390 <irq_remove_handler>:
10004390:	b5f0      	push	{r4, r5, r6, r7, lr}
10004392:	46de      	mov	lr, fp
10004394:	4657      	mov	r7, sl
10004396:	464e      	mov	r6, r9
10004398:	4645      	mov	r5, r8
1000439a:	b5e0      	push	{r5, r6, r7, lr}
1000439c:	000c      	movs	r4, r1
1000439e:	b083      	sub	sp, #12
100043a0:	f3ef 8910 	mrs	r9, PRIMASK
100043a4:	b672      	cpsid	i
100043a6:	4a58      	ldr	r2, [pc, #352]	; (10004508 <irq_remove_handler+0x178>)
100043a8:	6813      	ldr	r3, [r2, #0]
100043aa:	2b00      	cmp	r3, #0
100043ac:	d0fc      	beq.n	100043a8 <irq_remove_handler+0x18>
100043ae:	f3bf 8f5f 	dmb	sy
100043b2:	4b56      	ldr	r3, [pc, #344]	; (1000450c <irq_remove_handler+0x17c>)
100043b4:	689a      	ldr	r2, [r3, #8]
100043b6:	0003      	movs	r3, r0
100043b8:	3310      	adds	r3, #16
100043ba:	009f      	lsls	r7, r3, #2
100043bc:	59d5      	ldr	r5, [r2, r7]
100043be:	4a54      	ldr	r2, [pc, #336]	; (10004510 <irq_remove_handler+0x180>)
100043c0:	4690      	mov	r8, r2
100043c2:	4295      	cmp	r5, r2
100043c4:	d032      	beq.n	1000442c <irq_remove_handler+0x9c>
100043c6:	42a5      	cmp	r5, r4
100043c8:	d043      	beq.n	10004452 <irq_remove_handler+0xc2>
100043ca:	4e52      	ldr	r6, [pc, #328]	; (10004514 <irq_remove_handler+0x184>)
100043cc:	1baa      	subs	r2, r5, r6
100043ce:	2a2f      	cmp	r2, #47	; 0x2f
100043d0:	d82c      	bhi.n	1000442c <irq_remove_handler+0x9c>
100043d2:	2201      	movs	r2, #1
100043d4:	4082      	lsls	r2, r0
100043d6:	4692      	mov	sl, r2
100043d8:	4651      	mov	r1, sl
100043da:	4a4f      	ldr	r2, [pc, #316]	; (10004518 <irq_remove_handler+0x188>)
100043dc:	6812      	ldr	r2, [r2, #0]
100043de:	4011      	ands	r1, r2
100043e0:	9101      	str	r1, [sp, #4]
100043e2:	4651      	mov	r1, sl
100043e4:	4a4d      	ldr	r2, [pc, #308]	; (1000451c <irq_remove_handler+0x18c>)
100043e6:	6011      	str	r1, [r2, #0]
100043e8:	f3bf 8f5f 	dmb	sy
100043ec:	f3ef 8205 	mrs	r2, IPSR
100043f0:	4693      	mov	fp, r2
100043f2:	2a00      	cmp	r2, #0
100043f4:	d133      	bne.n	1000445e <irq_remove_handler+0xce>
100043f6:	2301      	movs	r3, #1
100043f8:	002a      	movs	r2, r5
100043fa:	439a      	bics	r2, r3
100043fc:	6893      	ldr	r3, [r2, #8]
100043fe:	429c      	cmp	r4, r3
10004400:	d108      	bne.n	10004414 <irq_remove_handler+0x84>
10004402:	e077      	b.n	100044f4 <irq_remove_handler+0x164>
10004404:	004b      	lsls	r3, r1, #1
10004406:	185b      	adds	r3, r3, r1
10004408:	009b      	lsls	r3, r3, #2
1000440a:	18f3      	adds	r3, r6, r3
1000440c:	6899      	ldr	r1, [r3, #8]
1000440e:	42a1      	cmp	r1, r4
10004410:	d02a      	beq.n	10004468 <irq_remove_handler+0xd8>
10004412:	001a      	movs	r2, r3
10004414:	2106      	movs	r1, #6
10004416:	5651      	ldrsb	r1, [r2, r1]
10004418:	2900      	cmp	r1, #0
1000441a:	daf3      	bge.n	10004404 <irq_remove_handler+0x74>
1000441c:	9b01      	ldr	r3, [sp, #4]
1000441e:	2b00      	cmp	r3, #0
10004420:	d019      	beq.n	10004456 <irq_remove_handler+0xc6>
10004422:	4652      	mov	r2, sl
10004424:	4b3e      	ldr	r3, [pc, #248]	; (10004520 <irq_remove_handler+0x190>)
10004426:	601a      	str	r2, [r3, #0]
10004428:	4b3b      	ldr	r3, [pc, #236]	; (10004518 <irq_remove_handler+0x188>)
1000442a:	601a      	str	r2, [r3, #0]
1000442c:	4b37      	ldr	r3, [pc, #220]	; (1000450c <irq_remove_handler+0x17c>)
1000442e:	689b      	ldr	r3, [r3, #8]
10004430:	51dd      	str	r5, [r3, r7]
10004432:	f3bf 8f5f 	dmb	sy
10004436:	f3bf 8f5f 	dmb	sy
1000443a:	2200      	movs	r2, #0
1000443c:	4b32      	ldr	r3, [pc, #200]	; (10004508 <irq_remove_handler+0x178>)
1000443e:	601a      	str	r2, [r3, #0]
10004440:	f389 8810 	msr	PRIMASK, r9
10004444:	b003      	add	sp, #12
10004446:	bcf0      	pop	{r4, r5, r6, r7}
10004448:	46bb      	mov	fp, r7
1000444a:	46b2      	mov	sl, r6
1000444c:	46a9      	mov	r9, r5
1000444e:	46a0      	mov	r8, r4
10004450:	bdf0      	pop	{r4, r5, r6, r7, pc}
10004452:	0015      	movs	r5, r2
10004454:	e7ea      	b.n	1000442c <irq_remove_handler+0x9c>
10004456:	4652      	mov	r2, sl
10004458:	4b30      	ldr	r3, [pc, #192]	; (1000451c <irq_remove_handler+0x18c>)
1000445a:	601a      	str	r2, [r3, #0]
1000445c:	e7e6      	b.n	1000442c <irq_remove_handler+0x9c>
1000445e:	4293      	cmp	r3, r2
10004460:	d0c9      	beq.n	100043f6 <irq_remove_handler+0x66>
10004462:	f001 faef 	bl	10005a44 <hard_assertion_failure>
10004466:	e7c6      	b.n	100043f6 <irq_remove_handler+0x66>
10004468:	2106      	movs	r1, #6
1000446a:	5659      	ldrsb	r1, [r3, r1]
1000446c:	2900      	cmp	r1, #0
1000446e:	db21      	blt.n	100044b4 <irq_remove_handler+0x124>
10004470:	004a      	lsls	r2, r1, #1
10004472:	1850      	adds	r0, r2, r1
10004474:	0080      	lsls	r0, r0, #2
10004476:	1834      	adds	r4, r6, r0
10004478:	4680      	mov	r8, r0
1000447a:	68a0      	ldr	r0, [r4, #8]
1000447c:	6098      	str	r0, [r3, #8]
1000447e:	79e0      	ldrb	r0, [r4, #7]
10004480:	71d8      	strb	r0, [r3, #7]
10004482:	2006      	movs	r0, #6
10004484:	5620      	ldrsb	r0, [r4, r0]
10004486:	7198      	strb	r0, [r3, #6]
10004488:	2800      	cmp	r0, #0
1000448a:	db24      	blt.n	100044d6 <irq_remove_handler+0x146>
1000448c:	88a4      	ldrh	r4, [r4, #4]
1000448e:	1af0      	subs	r0, r6, r3
10004490:	0564      	lsls	r4, r4, #21
10004492:	1524      	asrs	r4, r4, #20
10004494:	4444      	add	r4, r8
10004496:	1900      	adds	r0, r0, r4
10004498:	24e0      	movs	r4, #224	; 0xe0
1000449a:	0500      	lsls	r0, r0, #20
1000449c:	0d40      	lsrs	r0, r0, #21
1000449e:	0224      	lsls	r4, r4, #8
100044a0:	4320      	orrs	r0, r4
100044a2:	8098      	strh	r0, [r3, #4]
100044a4:	1852      	adds	r2, r2, r1
100044a6:	4b1f      	ldr	r3, [pc, #124]	; (10004524 <irq_remove_handler+0x194>)
100044a8:	0092      	lsls	r2, r2, #2
100044aa:	18b6      	adds	r6, r6, r2
100044ac:	781a      	ldrb	r2, [r3, #0]
100044ae:	7019      	strb	r1, [r3, #0]
100044b0:	71b2      	strb	r2, [r6, #6]
100044b2:	e7b3      	b.n	1000441c <irq_remove_handler+0x8c>
100044b4:	4659      	mov	r1, fp
100044b6:	2900      	cmp	r1, #0
100044b8:	d10f      	bne.n	100044da <irq_remove_handler+0x14a>
100044ba:	31ff      	adds	r1, #255	; 0xff
100044bc:	7191      	strb	r1, [r2, #6]
100044be:	491a      	ldr	r1, [pc, #104]	; (10004528 <irq_remove_handler+0x198>)
100044c0:	8091      	strh	r1, [r2, #4]
100044c2:	4918      	ldr	r1, [pc, #96]	; (10004524 <irq_remove_handler+0x194>)
100044c4:	780a      	ldrb	r2, [r1, #0]
100044c6:	719a      	strb	r2, [r3, #6]
100044c8:	4a18      	ldr	r2, [pc, #96]	; (1000452c <irq_remove_handler+0x19c>)
100044ca:	1b9b      	subs	r3, r3, r6
100044cc:	415b      	adcs	r3, r3
100044ce:	435a      	muls	r2, r3
100044d0:	0d12      	lsrs	r2, r2, #20
100044d2:	700a      	strb	r2, [r1, #0]
100044d4:	e7a2      	b.n	1000441c <irq_remove_handler+0x8c>
100044d6:	4816      	ldr	r0, [pc, #88]	; (10004530 <irq_remove_handler+0x1a0>)
100044d8:	e7e3      	b.n	100044a2 <irq_remove_handler+0x112>
100044da:	4a16      	ldr	r2, [pc, #88]	; (10004534 <irq_remove_handler+0x1a4>)
100044dc:	4916      	ldr	r1, [pc, #88]	; (10004538 <irq_remove_handler+0x1a8>)
100044de:	1ad2      	subs	r2, r2, r3
100044e0:	3a08      	subs	r2, #8
100044e2:	0250      	lsls	r0, r2, #9
100044e4:	0d40      	lsrs	r0, r0, #21
100044e6:	4301      	orrs	r1, r0
100044e8:	8099      	strh	r1, [r3, #4]
100044ea:	4914      	ldr	r1, [pc, #80]	; (1000453c <irq_remove_handler+0x1ac>)
100044ec:	0852      	lsrs	r2, r2, #1
100044ee:	430a      	orrs	r2, r1
100044f0:	80da      	strh	r2, [r3, #6]
100044f2:	e793      	b.n	1000441c <irq_remove_handler+0x8c>
100044f4:	2106      	movs	r1, #6
100044f6:	5651      	ldrsb	r1, [r2, r1]
100044f8:	0013      	movs	r3, r2
100044fa:	2900      	cmp	r1, #0
100044fc:	dab8      	bge.n	10004470 <irq_remove_handler+0xe0>
100044fe:	465a      	mov	r2, fp
10004500:	2a00      	cmp	r2, #0
10004502:	d1ea      	bne.n	100044da <irq_remove_handler+0x14a>
10004504:	4645      	mov	r5, r8
10004506:	e7dc      	b.n	100044c2 <irq_remove_handler+0x132>
10004508:	d0000124 	.word	0xd0000124
1000450c:	e000ed00 	.word	0xe000ed00
10004510:	100001cd 	.word	0x100001cd
10004514:	200001ac 	.word	0x200001ac
10004518:	e000e100 	.word	0xe000e100
1000451c:	e000e180 	.word	0xe000e180
10004520:	e000e280 	.word	0xe000e280
10004524:	20000743 	.word	0x20000743
10004528:	ffffbd01 	.word	0xffffbd01
1000452c:	0000aaaa 	.word	0x0000aaaa
10004530:	0000bd01 	.word	0x0000bd01
10004534:	200001e6 	.word	0x200001e6
10004538:	fffff000 	.word	0xfffff000
1000453c:	fffff800 	.word	0xfffff800

10004540 <irq_add_tail_to_free_list>:
10004540:	b570      	push	{r4, r5, r6, lr}
10004542:	f3ef 8105 	mrs	r1, IPSR
10004546:	2401      	movs	r4, #1
10004548:	4304      	orrs	r4, r0
1000454a:	f3ef 8c10 	mrs	ip, PRIMASK
1000454e:	b672      	cpsid	i
10004550:	4a21      	ldr	r2, [pc, #132]	; (100045d8 <irq_add_tail_to_free_list+0x98>)
10004552:	6813      	ldr	r3, [r2, #0]
10004554:	2b00      	cmp	r3, #0
10004556:	d0fc      	beq.n	10004552 <irq_add_tail_to_free_list+0x12>
10004558:	f3bf 8f5f 	dmb	sy
1000455c:	4b1f      	ldr	r3, [pc, #124]	; (100045dc <irq_add_tail_to_free_list+0x9c>)
1000455e:	0005      	movs	r5, r0
10004560:	4a1f      	ldr	r2, [pc, #124]	; (100045e0 <irq_add_tail_to_free_list+0xa0>)
10004562:	1aed      	subs	r5, r5, r3
10004564:	416d      	adcs	r5, r5
10004566:	436a      	muls	r2, r5
10004568:	0d12      	lsrs	r2, r2, #20
1000456a:	4d1e      	ldr	r5, [pc, #120]	; (100045e4 <irq_add_tail_to_free_list+0xa4>)
1000456c:	0089      	lsls	r1, r1, #2
1000456e:	68ae      	ldr	r6, [r5, #8]
10004570:	b252      	sxtb	r2, r2
10004572:	5876      	ldr	r6, [r6, r1]
10004574:	42a6      	cmp	r6, r4
10004576:	d01c      	beq.n	100045b2 <irq_add_tail_to_free_list+0x72>
10004578:	2106      	movs	r1, #6
1000457a:	5659      	ldrsb	r1, [r3, r1]
1000457c:	4291      	cmp	r1, r2
1000457e:	d01c      	beq.n	100045ba <irq_add_tail_to_free_list+0x7a>
10004580:	2112      	movs	r1, #18
10004582:	5659      	ldrsb	r1, [r3, r1]
10004584:	4291      	cmp	r1, r2
10004586:	d022      	beq.n	100045ce <irq_add_tail_to_free_list+0x8e>
10004588:	211e      	movs	r1, #30
1000458a:	5659      	ldrsb	r1, [r3, r1]
1000458c:	4291      	cmp	r1, r2
1000458e:	d020      	beq.n	100045d2 <irq_add_tail_to_free_list+0x92>
10004590:	212a      	movs	r1, #42	; 0x2a
10004592:	5659      	ldrsb	r1, [r3, r1]
10004594:	2403      	movs	r4, #3
10004596:	4291      	cmp	r1, r2
10004598:	d010      	beq.n	100045bc <irq_add_tail_to_free_list+0x7c>
1000459a:	4b13      	ldr	r3, [pc, #76]	; (100045e8 <irq_add_tail_to_free_list+0xa8>)
1000459c:	7819      	ldrb	r1, [r3, #0]
1000459e:	701a      	strb	r2, [r3, #0]
100045a0:	7181      	strb	r1, [r0, #6]
100045a2:	f3bf 8f5f 	dmb	sy
100045a6:	2200      	movs	r2, #0
100045a8:	4b0b      	ldr	r3, [pc, #44]	; (100045d8 <irq_add_tail_to_free_list+0x98>)
100045aa:	601a      	str	r2, [r3, #0]
100045ac:	f38c 8810 	msr	PRIMASK, ip
100045b0:	bd70      	pop	{r4, r5, r6, pc}
100045b2:	68ab      	ldr	r3, [r5, #8]
100045b4:	4c0d      	ldr	r4, [pc, #52]	; (100045ec <irq_add_tail_to_free_list+0xac>)
100045b6:	505c      	str	r4, [r3, r1]
100045b8:	e7ef      	b.n	1000459a <irq_add_tail_to_free_list+0x5a>
100045ba:	2400      	movs	r4, #0
100045bc:	0061      	lsls	r1, r4, #1
100045be:	1909      	adds	r1, r1, r4
100045c0:	0089      	lsls	r1, r1, #2
100045c2:	185b      	adds	r3, r3, r1
100045c4:	21ff      	movs	r1, #255	; 0xff
100045c6:	7199      	strb	r1, [r3, #6]
100045c8:	4909      	ldr	r1, [pc, #36]	; (100045f0 <irq_add_tail_to_free_list+0xb0>)
100045ca:	8099      	strh	r1, [r3, #4]
100045cc:	e7e5      	b.n	1000459a <irq_add_tail_to_free_list+0x5a>
100045ce:	2401      	movs	r4, #1
100045d0:	e7f4      	b.n	100045bc <irq_add_tail_to_free_list+0x7c>
100045d2:	2402      	movs	r4, #2
100045d4:	e7f2      	b.n	100045bc <irq_add_tail_to_free_list+0x7c>
100045d6:	46c0      	nop			; (mov r8, r8)
100045d8:	d0000124 	.word	0xd0000124
100045dc:	200001ac 	.word	0x200001ac
100045e0:	0000aaaa 	.word	0x0000aaaa
100045e4:	e000ed00 	.word	0xe000ed00
100045e8:	20000743 	.word	0x20000743
100045ec:	100001cd 	.word	0x100001cd
100045f0:	ffffbd01 	.word	0xffffbd01

100045f4 <irq_init_priorities>:
100045f4:	4b05      	ldr	r3, [pc, #20]	; (1000460c <irq_init_priorities+0x18>)
100045f6:	4a06      	ldr	r2, [pc, #24]	; (10004610 <irq_init_priorities+0x1c>)
100045f8:	6013      	str	r3, [r2, #0]
100045fa:	4a06      	ldr	r2, [pc, #24]	; (10004614 <irq_init_priorities+0x20>)
100045fc:	6013      	str	r3, [r2, #0]
100045fe:	6053      	str	r3, [r2, #4]
10004600:	6093      	str	r3, [r2, #8]
10004602:	60d3      	str	r3, [r2, #12]
10004604:	6113      	str	r3, [r2, #16]
10004606:	6153      	str	r3, [r2, #20]
10004608:	6193      	str	r3, [r2, #24]
1000460a:	4770      	bx	lr
1000460c:	80808080 	.word	0x80808080
10004610:	e000e400 	.word	0xe000e400
10004614:	e000e404 	.word	0xe000e404

10004618 <lock_init>:
10004618:	4b02      	ldr	r3, [pc, #8]	; (10004624 <lock_init+0xc>)
1000461a:	469c      	mov	ip, r3
1000461c:	4461      	add	r1, ip
1000461e:	0089      	lsls	r1, r1, #2
10004620:	6001      	str	r1, [r0, #0]
10004622:	4770      	bx	lr
10004624:	34000040 	.word	0x34000040

10004628 <mutex_init>:
10004628:	b510      	push	{r4, lr}
1000462a:	0004      	movs	r4, r0
1000462c:	f7ff fe60 	bl	100042f0 <next_striped_spin_lock_num>
10004630:	0001      	movs	r1, r0
10004632:	0020      	movs	r0, r4
10004634:	f7ff fff0 	bl	10004618 <lock_init>
10004638:	23ff      	movs	r3, #255	; 0xff
1000463a:	7123      	strb	r3, [r4, #4]
1000463c:	f3bf 8f5f 	dmb	sy
10004640:	bd10      	pop	{r4, pc}
10004642:	46c0      	nop			; (mov r8, r8)

10004644 <recursive_mutex_init>:
10004644:	b510      	push	{r4, lr}
10004646:	0004      	movs	r4, r0
10004648:	f7ff fe52 	bl	100042f0 <next_striped_spin_lock_num>
1000464c:	0001      	movs	r1, r0
1000464e:	0020      	movs	r0, r4
10004650:	f7ff ffe2 	bl	10004618 <lock_init>
10004654:	23ff      	movs	r3, #255	; 0xff
10004656:	80a3      	strh	r3, [r4, #4]
10004658:	f3bf 8f5f 	dmb	sy
1000465c:	bd10      	pop	{r4, pc}
1000465e:	46c0      	nop			; (mov r8, r8)

10004660 <timer_pool_entry_comparator>:
10004660:	6883      	ldr	r3, [r0, #8]
10004662:	480b      	ldr	r0, [pc, #44]	; (10004690 <timer_pool_entry_comparator+0x30>)
10004664:	b510      	push	{r4, lr}
10004666:	4684      	mov	ip, r0
10004668:	4461      	add	r1, ip
1000466a:	4462      	add	r2, ip
1000466c:	0109      	lsls	r1, r1, #4
1000466e:	0112      	lsls	r2, r2, #4
10004670:	189a      	adds	r2, r3, r2
10004672:	1859      	adds	r1, r3, r1
10004674:	6854      	ldr	r4, [r2, #4]
10004676:	684b      	ldr	r3, [r1, #4]
10004678:	2001      	movs	r0, #1
1000467a:	429c      	cmp	r4, r3
1000467c:	d801      	bhi.n	10004682 <timer_pool_entry_comparator+0x22>
1000467e:	d002      	beq.n	10004686 <timer_pool_entry_comparator+0x26>
10004680:	2000      	movs	r0, #0
10004682:	b2c0      	uxtb	r0, r0
10004684:	bd10      	pop	{r4, pc}
10004686:	6812      	ldr	r2, [r2, #0]
10004688:	680b      	ldr	r3, [r1, #0]
1000468a:	429a      	cmp	r2, r3
1000468c:	d8f9      	bhi.n	10004682 <timer_pool_entry_comparator+0x22>
1000468e:	e7f7      	b.n	10004680 <timer_pool_entry_comparator+0x20>
10004690:	0fffffff 	.word	0x0fffffff

10004694 <sleep_until_callback>:
10004694:	4b0a      	ldr	r3, [pc, #40]	; (100046c0 <sleep_until_callback+0x2c>)
10004696:	6819      	ldr	r1, [r3, #0]
10004698:	f3ef 8010 	mrs	r0, PRIMASK
1000469c:	b672      	cpsid	i
1000469e:	680a      	ldr	r2, [r1, #0]
100046a0:	2a00      	cmp	r2, #0
100046a2:	d0fc      	beq.n	1000469e <sleep_until_callback+0xa>
100046a4:	f3bf 8f5f 	dmb	sy
100046a8:	681b      	ldr	r3, [r3, #0]
100046aa:	f3bf 8f5f 	dmb	sy
100046ae:	2200      	movs	r2, #0
100046b0:	601a      	str	r2, [r3, #0]
100046b2:	f380 8810 	msr	PRIMASK, r0
100046b6:	bf40      	sev
100046b8:	2000      	movs	r0, #0
100046ba:	2100      	movs	r1, #0
100046bc:	4770      	bx	lr
100046be:	46c0      	nop			; (mov r8, r8)
100046c0:	200006f4 	.word	0x200006f4

100046c4 <add_alarm_under_lock.isra.0>:
100046c4:	b5f8      	push	{r3, r4, r5, r6, r7, lr}
100046c6:	4657      	mov	r7, sl
100046c8:	464e      	mov	r6, r9
100046ca:	4645      	mov	r5, r8
100046cc:	46de      	mov	lr, fp
100046ce:	b5e0      	push	{r5, r6, r7, lr}
100046d0:	4699      	mov	r9, r3
100046d2:	ab0c      	add	r3, sp, #48	; 0x30
100046d4:	781c      	ldrb	r4, [r3, #0]
100046d6:	ab0d      	add	r3, sp, #52	; 0x34
100046d8:	781b      	ldrb	r3, [r3, #0]
100046da:	0006      	movs	r6, r0
100046dc:	4690      	mov	r8, r2
100046de:	469a      	mov	sl, r3
100046e0:	6807      	ldr	r7, [r0, #0]
100046e2:	2c00      	cmp	r4, #0
100046e4:	d111      	bne.n	1000470a <add_alarm_under_lock.isra.0+0x46>
100046e6:	7bbc      	ldrb	r4, [r7, #14]
100046e8:	2c00      	cmp	r4, #0
100046ea:	d042      	beq.n	10004772 <add_alarm_under_lock.isra.0+0xae>
100046ec:	0065      	lsls	r5, r4, #1
100046ee:	683b      	ldr	r3, [r7, #0]
100046f0:	192d      	adds	r5, r5, r4
100046f2:	3d03      	subs	r5, #3
100046f4:	1959      	adds	r1, r3, r5
100046f6:	784b      	ldrb	r3, [r1, #1]
100046f8:	73bb      	strb	r3, [r7, #14]
100046fa:	2b00      	cmp	r3, #0
100046fc:	d100      	bne.n	10004700 <add_alarm_under_lock.isra.0+0x3c>
100046fe:	73fb      	strb	r3, [r7, #15]
10004700:	2300      	movs	r3, #0
10004702:	708b      	strb	r3, [r1, #2]
10004704:	704b      	strb	r3, [r1, #1]
10004706:	700b      	strb	r3, [r1, #0]
10004708:	e004      	b.n	10004714 <add_alarm_under_lock.isra.0+0x50>
1000470a:	0065      	lsls	r5, r4, #1
1000470c:	683b      	ldr	r3, [r7, #0]
1000470e:	192d      	adds	r5, r5, r4
10004710:	3d03      	subs	r5, #3
10004712:	1959      	adds	r1, r3, r5
10004714:	68b2      	ldr	r2, [r6, #8]
10004716:	4b2a      	ldr	r3, [pc, #168]	; (100047c0 <add_alarm_under_lock.isra.0+0xfc>)
10004718:	4694      	mov	ip, r2
1000471a:	4642      	mov	r2, r8
1000471c:	18e3      	adds	r3, r4, r3
1000471e:	011b      	lsls	r3, r3, #4
10004720:	4463      	add	r3, ip
10004722:	601a      	str	r2, [r3, #0]
10004724:	464a      	mov	r2, r9
10004726:	605a      	str	r2, [r3, #4]
10004728:	9a0a      	ldr	r2, [sp, #40]	; 0x28
1000472a:	609a      	str	r2, [r3, #8]
1000472c:	9a0b      	ldr	r2, [sp, #44]	; 0x2c
1000472e:	60da      	str	r2, [r3, #12]
10004730:	2300      	movs	r3, #0
10004732:	708b      	strb	r3, [r1, #2]
10004734:	704b      	strb	r3, [r1, #1]
10004736:	700b      	strb	r3, [r1, #0]
10004738:	7b7b      	ldrb	r3, [r7, #13]
1000473a:	469b      	mov	fp, r3
1000473c:	2b00      	cmp	r3, #0
1000473e:	d02b      	beq.n	10004798 <add_alarm_under_lock.isra.0+0xd4>
10004740:	0022      	movs	r2, r4
10004742:	4659      	mov	r1, fp
10004744:	68b8      	ldr	r0, [r7, #8]
10004746:	687b      	ldr	r3, [r7, #4]
10004748:	4798      	blx	r3
1000474a:	683a      	ldr	r2, [r7, #0]
1000474c:	2800      	cmp	r0, #0
1000474e:	d016      	beq.n	1000477e <add_alarm_under_lock.isra.0+0xba>
10004750:	465b      	mov	r3, fp
10004752:	4658      	mov	r0, fp
10004754:	005b      	lsls	r3, r3, #1
10004756:	445b      	add	r3, fp
10004758:	1955      	adds	r5, r2, r5
1000475a:	3b03      	subs	r3, #3
1000475c:	70a8      	strb	r0, [r5, #2]
1000475e:	18d1      	adds	r1, r2, r3
10004760:	5cd3      	ldrb	r3, [r2, r3]
10004762:	2b00      	cmp	r3, #0
10004764:	d000      	beq.n	10004768 <add_alarm_under_lock.isra.0+0xa4>
10004766:	706b      	strb	r3, [r5, #1]
10004768:	465b      	mov	r3, fp
1000476a:	700c      	strb	r4, [r1, #0]
1000476c:	737b      	strb	r3, [r7, #13]
1000476e:	45a3      	cmp	fp, r4
10004770:	d013      	beq.n	1000479a <add_alarm_under_lock.isra.0+0xd6>
10004772:	bcf0      	pop	{r4, r5, r6, r7}
10004774:	46bb      	mov	fp, r7
10004776:	46b2      	mov	sl, r6
10004778:	46a9      	mov	r9, r5
1000477a:	46a0      	mov	r8, r4
1000477c:	bdf8      	pop	{r3, r4, r5, r6, r7, pc}
1000477e:	465b      	mov	r3, fp
10004780:	005b      	lsls	r3, r3, #1
10004782:	445b      	add	r3, fp
10004784:	3b03      	subs	r3, #3
10004786:	18d3      	adds	r3, r2, r3
10004788:	709c      	strb	r4, [r3, #2]
1000478a:	1951      	adds	r1, r2, r5
1000478c:	5d52      	ldrb	r2, [r2, r5]
1000478e:	2a00      	cmp	r2, #0
10004790:	d000      	beq.n	10004794 <add_alarm_under_lock.isra.0+0xd0>
10004792:	705a      	strb	r2, [r3, #1]
10004794:	465b      	mov	r3, fp
10004796:	700b      	strb	r3, [r1, #0]
10004798:	737c      	strb	r4, [r7, #13]
1000479a:	4642      	mov	r2, r8
1000479c:	464b      	mov	r3, r9
1000479e:	7d30      	ldrb	r0, [r6, #20]
100047a0:	f000 fbba 	bl	10004f18 <hardware_alarm_set_target>
100047a4:	1e05      	subs	r5, r0, #0
100047a6:	d006      	beq.n	100047b6 <add_alarm_under_lock.isra.0+0xf2>
100047a8:	4653      	mov	r3, sl
100047aa:	2b00      	cmp	r3, #0
100047ac:	d103      	bne.n	100047b6 <add_alarm_under_lock.isra.0+0xf2>
100047ae:	0021      	movs	r1, r4
100047b0:	6830      	ldr	r0, [r6, #0]
100047b2:	f000 fdd5 	bl	10005360 <ph_remove_and_free_node>
100047b6:	9b0e      	ldr	r3, [sp, #56]	; 0x38
100047b8:	2b00      	cmp	r3, #0
100047ba:	d0da      	beq.n	10004772 <add_alarm_under_lock.isra.0+0xae>
100047bc:	701d      	strb	r5, [r3, #0]
100047be:	e7d8      	b.n	10004772 <add_alarm_under_lock.isra.0+0xae>
100047c0:	0fffffff 	.word	0x0fffffff

100047c4 <alarm_pool_alarm_callback>:
100047c4:	b5f0      	push	{r4, r5, r6, r7, lr}
100047c6:	46de      	mov	lr, fp
100047c8:	4657      	mov	r7, sl
100047ca:	464e      	mov	r6, r9
100047cc:	4645      	mov	r5, r8
100047ce:	2300      	movs	r3, #0
100047d0:	b5e0      	push	{r5, r6, r7, lr}
100047d2:	b08b      	sub	sp, #44	; 0x2c
100047d4:	9308      	str	r3, [sp, #32]
100047d6:	4b67      	ldr	r3, [pc, #412]	; (10004974 <alarm_pool_alarm_callback+0x1b0>)
100047d8:	0082      	lsls	r2, r0, #2
100047da:	58d4      	ldr	r4, [r2, r3]
100047dc:	2300      	movs	r3, #0
100047de:	469b      	mov	fp, r3
100047e0:	9009      	str	r0, [sp, #36]	; 0x24
100047e2:	f000 fb0f 	bl	10004e04 <time_us_64>
100047e6:	6862      	ldr	r2, [r4, #4]
100047e8:	0006      	movs	r6, r0
100047ea:	000f      	movs	r7, r1
100047ec:	f3ef 8510 	mrs	r5, PRIMASK
100047f0:	b672      	cpsid	i
100047f2:	6813      	ldr	r3, [r2, #0]
100047f4:	2b00      	cmp	r3, #0
100047f6:	d0fc      	beq.n	100047f2 <alarm_pool_alarm_callback+0x2e>
100047f8:	f3bf 8f5f 	dmb	sy
100047fc:	6823      	ldr	r3, [r4, #0]
100047fe:	469c      	mov	ip, r3
10004800:	7b5b      	ldrb	r3, [r3, #13]
10004802:	4699      	mov	r9, r3
10004804:	2b00      	cmp	r3, #0
10004806:	d100      	bne.n	1000480a <alarm_pool_alarm_callback+0x46>
10004808:	e069      	b.n	100048de <alarm_pool_alarm_callback+0x11a>
1000480a:	68a2      	ldr	r2, [r4, #8]
1000480c:	4b5a      	ldr	r3, [pc, #360]	; (10004978 <alarm_pool_alarm_callback+0x1b4>)
1000480e:	4690      	mov	r8, r2
10004810:	444b      	add	r3, r9
10004812:	011b      	lsls	r3, r3, #4
10004814:	4498      	add	r8, r3
10004816:	4643      	mov	r3, r8
10004818:	681a      	ldr	r2, [r3, #0]
1000481a:	685b      	ldr	r3, [r3, #4]
1000481c:	0010      	movs	r0, r2
1000481e:	0019      	movs	r1, r3
10004820:	1b80      	subs	r0, r0, r6
10004822:	41b9      	sbcs	r1, r7
10004824:	2900      	cmp	r1, #0
10004826:	dc00      	bgt.n	1000482a <alarm_pool_alarm_callback+0x66>
10004828:	e063      	b.n	100048f2 <alarm_pool_alarm_callback+0x12e>
1000482a:	9809      	ldr	r0, [sp, #36]	; 0x24
1000482c:	f000 fb74 	bl	10004f18 <hardware_alarm_set_target>
10004830:	2300      	movs	r3, #0
10004832:	2200      	movs	r2, #0
10004834:	4698      	mov	r8, r3
10004836:	2300      	movs	r3, #0
10004838:	9206      	str	r2, [sp, #24]
1000483a:	9307      	str	r3, [sp, #28]
1000483c:	2300      	movs	r3, #0
1000483e:	469a      	mov	sl, r3
10004840:	6863      	ldr	r3, [r4, #4]
10004842:	f3bf 8f5f 	dmb	sy
10004846:	465a      	mov	r2, fp
10004848:	601a      	str	r2, [r3, #0]
1000484a:	f385 8810 	msr	PRIMASK, r5
1000484e:	4653      	mov	r3, sl
10004850:	2b00      	cmp	r3, #0
10004852:	d108      	bne.n	10004866 <alarm_pool_alarm_callback+0xa2>
10004854:	2800      	cmp	r0, #0
10004856:	d1c4      	bne.n	100047e2 <alarm_pool_alarm_callback+0x1e>
10004858:	b00b      	add	sp, #44	; 0x2c
1000485a:	bcf0      	pop	{r4, r5, r6, r7}
1000485c:	46bb      	mov	fp, r7
1000485e:	46b2      	mov	sl, r6
10004860:	46a9      	mov	r9, r5
10004862:	46a0      	mov	r8, r4
10004864:	bdf0      	pop	{r4, r5, r6, r7, pc}
10004866:	9b08      	ldr	r3, [sp, #32]
10004868:	4641      	mov	r1, r8
1000486a:	0218      	lsls	r0, r3, #8
1000486c:	464b      	mov	r3, r9
1000486e:	4318      	orrs	r0, r3
10004870:	47d0      	blx	sl
10004872:	6862      	ldr	r2, [r4, #4]
10004874:	0006      	movs	r6, r0
10004876:	000f      	movs	r7, r1
10004878:	f3ef 8510 	mrs	r5, PRIMASK
1000487c:	b672      	cpsid	i
1000487e:	6813      	ldr	r3, [r2, #0]
10004880:	2b00      	cmp	r3, #0
10004882:	d0fc      	beq.n	1000487e <alarm_pool_alarm_callback+0xba>
10004884:	f3bf 8f5f 	dmb	sy
10004888:	2f00      	cmp	r7, #0
1000488a:	db50      	blt.n	1000492e <alarm_pool_alarm_callback+0x16a>
1000488c:	0033      	movs	r3, r6
1000488e:	433b      	orrs	r3, r7
10004890:	d002      	beq.n	10004898 <alarm_pool_alarm_callback+0xd4>
10004892:	6923      	ldr	r3, [r4, #16]
10004894:	2b00      	cmp	r3, #0
10004896:	d161      	bne.n	1000495c <alarm_pool_alarm_callback+0x198>
10004898:	6823      	ldr	r3, [r4, #0]
1000489a:	7bd9      	ldrb	r1, [r3, #15]
1000489c:	2900      	cmp	r1, #0
1000489e:	d007      	beq.n	100048b0 <alarm_pool_alarm_callback+0xec>
100048a0:	004a      	lsls	r2, r1, #1
100048a2:	1852      	adds	r2, r2, r1
100048a4:	6819      	ldr	r1, [r3, #0]
100048a6:	468c      	mov	ip, r1
100048a8:	4649      	mov	r1, r9
100048aa:	4462      	add	r2, ip
100048ac:	3a03      	subs	r2, #3
100048ae:	7051      	strb	r1, [r2, #1]
100048b0:	7b9a      	ldrb	r2, [r3, #14]
100048b2:	2a00      	cmp	r2, #0
100048b4:	d101      	bne.n	100048ba <alarm_pool_alarm_callback+0xf6>
100048b6:	464a      	mov	r2, r9
100048b8:	739a      	strb	r2, [r3, #14]
100048ba:	464a      	mov	r2, r9
100048bc:	73da      	strb	r2, [r3, #15]
100048be:	464b      	mov	r3, r9
100048c0:	68e1      	ldr	r1, [r4, #12]
100048c2:	3b01      	subs	r3, #1
100048c4:	5cca      	ldrb	r2, [r1, r3]
100048c6:	3201      	adds	r2, #1
100048c8:	54ca      	strb	r2, [r1, r3]
100048ca:	465b      	mov	r3, fp
100048cc:	6123      	str	r3, [r4, #16]
100048ce:	6863      	ldr	r3, [r4, #4]
100048d0:	f3bf 8f5f 	dmb	sy
100048d4:	465a      	mov	r2, fp
100048d6:	601a      	str	r2, [r3, #0]
100048d8:	f385 8810 	msr	PRIMASK, r5
100048dc:	e781      	b.n	100047e2 <alarm_pool_alarm_callback+0x1e>
100048de:	2300      	movs	r3, #0
100048e0:	2200      	movs	r2, #0
100048e2:	4698      	mov	r8, r3
100048e4:	2300      	movs	r3, #0
100048e6:	9206      	str	r2, [sp, #24]
100048e8:	9307      	str	r3, [sp, #28]
100048ea:	2300      	movs	r3, #0
100048ec:	2000      	movs	r0, #0
100048ee:	469a      	mov	sl, r3
100048f0:	e7a6      	b.n	10004840 <alarm_pool_alarm_callback+0x7c>
100048f2:	2900      	cmp	r1, #0
100048f4:	d102      	bne.n	100048fc <alarm_pool_alarm_callback+0x138>
100048f6:	2800      	cmp	r0, #0
100048f8:	d000      	beq.n	100048fc <alarm_pool_alarm_callback+0x138>
100048fa:	e796      	b.n	1000482a <alarm_pool_alarm_callback+0x66>
100048fc:	2100      	movs	r1, #0
100048fe:	4660      	mov	r0, ip
10004900:	f000 fcac 	bl	1000525c <ph_remove_head>
10004904:	4643      	mov	r3, r8
10004906:	681a      	ldr	r2, [r3, #0]
10004908:	685b      	ldr	r3, [r3, #4]
1000490a:	9206      	str	r2, [sp, #24]
1000490c:	9307      	str	r3, [sp, #28]
1000490e:	4643      	mov	r3, r8
10004910:	689b      	ldr	r3, [r3, #8]
10004912:	469a      	mov	sl, r3
10004914:	4643      	mov	r3, r8
10004916:	68db      	ldr	r3, [r3, #12]
10004918:	4698      	mov	r8, r3
1000491a:	68e3      	ldr	r3, [r4, #12]
1000491c:	444b      	add	r3, r9
1000491e:	3b01      	subs	r3, #1
10004920:	781b      	ldrb	r3, [r3, #0]
10004922:	9308      	str	r3, [sp, #32]
10004924:	021b      	lsls	r3, r3, #8
10004926:	4303      	orrs	r3, r0
10004928:	6123      	str	r3, [r4, #16]
1000492a:	2000      	movs	r0, #0
1000492c:	e788      	b.n	10004840 <alarm_pool_alarm_callback+0x7c>
1000492e:	6923      	ldr	r3, [r4, #16]
10004930:	2b00      	cmp	r3, #0
10004932:	d0b1      	beq.n	10004898 <alarm_pool_alarm_callback+0xd4>
10004934:	9a06      	ldr	r2, [sp, #24]
10004936:	9b07      	ldr	r3, [sp, #28]
10004938:	1b92      	subs	r2, r2, r6
1000493a:	41bb      	sbcs	r3, r7
1000493c:	2b00      	cmp	r3, #0
1000493e:	db15      	blt.n	1000496c <alarm_pool_alarm_callback+0x1a8>
10004940:	4659      	mov	r1, fp
10004942:	9104      	str	r1, [sp, #16]
10004944:	2101      	movs	r1, #1
10004946:	9103      	str	r1, [sp, #12]
10004948:	4649      	mov	r1, r9
1000494a:	9102      	str	r1, [sp, #8]
1000494c:	4641      	mov	r1, r8
1000494e:	9101      	str	r1, [sp, #4]
10004950:	4651      	mov	r1, sl
10004952:	0020      	movs	r0, r4
10004954:	9100      	str	r1, [sp, #0]
10004956:	f7ff feb5 	bl	100046c4 <add_alarm_under_lock.isra.0>
1000495a:	e7b6      	b.n	100048ca <alarm_pool_alarm_callback+0x106>
1000495c:	f000 fa52 	bl	10004e04 <time_us_64>
10004960:	0032      	movs	r2, r6
10004962:	003b      	movs	r3, r7
10004964:	1812      	adds	r2, r2, r0
10004966:	414b      	adcs	r3, r1
10004968:	2b00      	cmp	r3, #0
1000496a:	dae9      	bge.n	10004940 <alarm_pool_alarm_callback+0x17c>
1000496c:	2201      	movs	r2, #1
1000496e:	4b03      	ldr	r3, [pc, #12]	; (1000497c <alarm_pool_alarm_callback+0x1b8>)
10004970:	4252      	negs	r2, r2
10004972:	e7e5      	b.n	10004940 <alarm_pool_alarm_callback+0x17c>
10004974:	200006b4 	.word	0x200006b4
10004978:	0fffffff 	.word	0x0fffffff
1000497c:	7fffffff 	.word	0x7fffffff

10004980 <alarm_pool_init_default>:
10004980:	b510      	push	{r4, lr}
10004982:	4c14      	ldr	r4, [pc, #80]	; (100049d4 <alarm_pool_init_default+0x54>)
10004984:	6863      	ldr	r3, [r4, #4]
10004986:	2b00      	cmp	r3, #0
10004988:	d004      	beq.n	10004994 <alarm_pool_init_default+0x14>
1000498a:	210a      	movs	r1, #10
1000498c:	4812      	ldr	r0, [pc, #72]	; (100049d8 <alarm_pool_init_default+0x58>)
1000498e:	f7ff fe43 	bl	10004618 <lock_init>
10004992:	bd10      	pop	{r4, pc}
10004994:	0023      	movs	r3, r4
10004996:	4a11      	ldr	r2, [pc, #68]	; (100049dc <alarm_pool_init_default+0x5c>)
10004998:	2110      	movs	r1, #16
1000499a:	6820      	ldr	r0, [r4, #0]
1000499c:	f000 fb78 	bl	10005090 <ph_post_alloc_init>
100049a0:	2003      	movs	r0, #3
100049a2:	f000 fa23 	bl	10004dec <hardware_alarm_claim>
100049a6:	2003      	movs	r0, #3
100049a8:	f000 fb20 	bl	10004fec <hardware_alarm_cancel>
100049ac:	2003      	movs	r0, #3
100049ae:	490c      	ldr	r1, [pc, #48]	; (100049e0 <alarm_pool_init_default+0x60>)
100049b0:	f000 fa6c 	bl	10004e8c <hardware_alarm_set_callback>
100049b4:	f7ff fc9c 	bl	100042f0 <next_striped_spin_lock_num>
100049b8:	4b0a      	ldr	r3, [pc, #40]	; (100049e4 <alarm_pool_init_default+0x64>)
100049ba:	469c      	mov	ip, r3
100049bc:	2303      	movs	r3, #3
100049be:	7523      	strb	r3, [r4, #20]
100049c0:	23d0      	movs	r3, #208	; 0xd0
100049c2:	061b      	lsls	r3, r3, #24
100049c4:	681b      	ldr	r3, [r3, #0]
100049c6:	4460      	add	r0, ip
100049c8:	7563      	strb	r3, [r4, #21]
100049ca:	4b07      	ldr	r3, [pc, #28]	; (100049e8 <alarm_pool_init_default+0x68>)
100049cc:	0080      	lsls	r0, r0, #2
100049ce:	6060      	str	r0, [r4, #4]
100049d0:	60dc      	str	r4, [r3, #12]
100049d2:	e7da      	b.n	1000498a <alarm_pool_init_default+0xa>
100049d4:	200001f4 	.word	0x200001f4
100049d8:	200006f4 	.word	0x200006f4
100049dc:	10004661 	.word	0x10004661
100049e0:	100047c5 	.word	0x100047c5
100049e4:	34000040 	.word	0x34000040
100049e8:	200006b4 	.word	0x200006b4

100049ec <alarm_pool_add_alarm_at>:
100049ec:	b5f0      	push	{r4, r5, r6, r7, lr}
100049ee:	464e      	mov	r6, r9
100049f0:	4645      	mov	r5, r8
100049f2:	46de      	mov	lr, fp
100049f4:	4657      	mov	r7, sl
100049f6:	b5e0      	push	{r5, r6, r7, lr}
100049f8:	b085      	sub	sp, #20
100049fa:	9301      	str	r3, [sp, #4]
100049fc:	ab10      	add	r3, sp, #64	; 0x40
100049fe:	781b      	ldrb	r3, [r3, #0]
10004a00:	0006      	movs	r6, r0
10004a02:	9303      	str	r3, [sp, #12]
10004a04:	2300      	movs	r3, #0
10004a06:	4699      	mov	r9, r3
10004a08:	4698      	mov	r8, r3
10004a0a:	9200      	str	r2, [sp, #0]
10004a0c:	6872      	ldr	r2, [r6, #4]
10004a0e:	f3ef 8b10 	mrs	fp, PRIMASK
10004a12:	b672      	cpsid	i
10004a14:	6813      	ldr	r3, [r2, #0]
10004a16:	2b00      	cmp	r3, #0
10004a18:	d0fc      	beq.n	10004a14 <alarm_pool_add_alarm_at+0x28>
10004a1a:	f3bf 8f5f 	dmb	sy
10004a1e:	6835      	ldr	r5, [r6, #0]
10004a20:	7bac      	ldrb	r4, [r5, #14]
10004a22:	2c00      	cmp	r4, #0
10004a24:	d03d      	beq.n	10004aa2 <alarm_pool_add_alarm_at+0xb6>
10004a26:	0067      	lsls	r7, r4, #1
10004a28:	682b      	ldr	r3, [r5, #0]
10004a2a:	193f      	adds	r7, r7, r4
10004a2c:	3f03      	subs	r7, #3
10004a2e:	19db      	adds	r3, r3, r7
10004a30:	785a      	ldrb	r2, [r3, #1]
10004a32:	73aa      	strb	r2, [r5, #14]
10004a34:	2a00      	cmp	r2, #0
10004a36:	d100      	bne.n	10004a3a <alarm_pool_add_alarm_at+0x4e>
10004a38:	73ea      	strb	r2, [r5, #15]
10004a3a:	68b1      	ldr	r1, [r6, #8]
10004a3c:	4a47      	ldr	r2, [pc, #284]	; (10004b5c <alarm_pool_add_alarm_at+0x170>)
10004a3e:	468c      	mov	ip, r1
10004a40:	9800      	ldr	r0, [sp, #0]
10004a42:	9901      	ldr	r1, [sp, #4]
10004a44:	18a2      	adds	r2, r4, r2
10004a46:	0112      	lsls	r2, r2, #4
10004a48:	4462      	add	r2, ip
10004a4a:	6010      	str	r0, [r2, #0]
10004a4c:	6051      	str	r1, [r2, #4]
10004a4e:	990e      	ldr	r1, [sp, #56]	; 0x38
10004a50:	6091      	str	r1, [r2, #8]
10004a52:	990f      	ldr	r1, [sp, #60]	; 0x3c
10004a54:	60d1      	str	r1, [r2, #12]
10004a56:	4642      	mov	r2, r8
10004a58:	709a      	strb	r2, [r3, #2]
10004a5a:	705a      	strb	r2, [r3, #1]
10004a5c:	701a      	strb	r2, [r3, #0]
10004a5e:	7b6b      	ldrb	r3, [r5, #13]
10004a60:	469a      	mov	sl, r3
10004a62:	2b00      	cmp	r3, #0
10004a64:	d067      	beq.n	10004b36 <alarm_pool_add_alarm_at+0x14a>
10004a66:	0022      	movs	r2, r4
10004a68:	0019      	movs	r1, r3
10004a6a:	68a8      	ldr	r0, [r5, #8]
10004a6c:	686b      	ldr	r3, [r5, #4]
10004a6e:	4798      	blx	r3
10004a70:	682a      	ldr	r2, [r5, #0]
10004a72:	2800      	cmp	r0, #0
10004a74:	d052      	beq.n	10004b1c <alarm_pool_add_alarm_at+0x130>
10004a76:	4653      	mov	r3, sl
10004a78:	4650      	mov	r0, sl
10004a7a:	005b      	lsls	r3, r3, #1
10004a7c:	4453      	add	r3, sl
10004a7e:	19d7      	adds	r7, r2, r7
10004a80:	3b03      	subs	r3, #3
10004a82:	70b8      	strb	r0, [r7, #2]
10004a84:	18d1      	adds	r1, r2, r3
10004a86:	5cd3      	ldrb	r3, [r2, r3]
10004a88:	2b00      	cmp	r3, #0
10004a8a:	d000      	beq.n	10004a8e <alarm_pool_add_alarm_at+0xa2>
10004a8c:	707b      	strb	r3, [r7, #1]
10004a8e:	4653      	mov	r3, sl
10004a90:	700c      	strb	r4, [r1, #0]
10004a92:	736b      	strb	r3, [r5, #13]
10004a94:	4554      	cmp	r4, sl
10004a96:	d04f      	beq.n	10004b38 <alarm_pool_add_alarm_at+0x14c>
10004a98:	68f3      	ldr	r3, [r6, #12]
10004a9a:	191b      	adds	r3, r3, r4
10004a9c:	3b01      	subs	r3, #1
10004a9e:	7818      	ldrb	r0, [r3, #0]
10004aa0:	e000      	b.n	10004aa4 <alarm_pool_add_alarm_at+0xb8>
10004aa2:	2000      	movs	r0, #0
10004aa4:	6873      	ldr	r3, [r6, #4]
10004aa6:	f3bf 8f5f 	dmb	sy
10004aaa:	4642      	mov	r2, r8
10004aac:	601a      	str	r2, [r3, #0]
10004aae:	f38b 8810 	msr	PRIMASK, fp
10004ab2:	2c00      	cmp	r4, #0
10004ab4:	d04f      	beq.n	10004b56 <alarm_pool_add_alarm_at+0x16a>
10004ab6:	464b      	mov	r3, r9
10004ab8:	2b00      	cmp	r3, #0
10004aba:	d108      	bne.n	10004ace <alarm_pool_add_alarm_at+0xe2>
10004abc:	0200      	lsls	r0, r0, #8
10004abe:	4320      	orrs	r0, r4
10004ac0:	b005      	add	sp, #20
10004ac2:	bcf0      	pop	{r4, r5, r6, r7}
10004ac4:	46bb      	mov	fp, r7
10004ac6:	46b2      	mov	sl, r6
10004ac8:	46a9      	mov	r9, r5
10004aca:	46a0      	mov	r8, r4
10004acc:	bdf0      	pop	{r4, r5, r6, r7, pc}
10004ace:	9b03      	ldr	r3, [sp, #12]
10004ad0:	2b00      	cmp	r3, #0
10004ad2:	d03e      	beq.n	10004b52 <alarm_pool_add_alarm_at+0x166>
10004ad4:	9b0e      	ldr	r3, [sp, #56]	; 0x38
10004ad6:	2000      	movs	r0, #0
10004ad8:	990f      	ldr	r1, [sp, #60]	; 0x3c
10004ada:	4798      	blx	r3
10004adc:	0003      	movs	r3, r0
10004ade:	0004      	movs	r4, r0
10004ae0:	000d      	movs	r5, r1
10004ae2:	430b      	orrs	r3, r1
10004ae4:	d035      	beq.n	10004b52 <alarm_pool_add_alarm_at+0x166>
10004ae6:	2900      	cmp	r1, #0
10004ae8:	da0a      	bge.n	10004b00 <alarm_pool_add_alarm_at+0x114>
10004aea:	9a00      	ldr	r2, [sp, #0]
10004aec:	9b01      	ldr	r3, [sp, #4]
10004aee:	1b12      	subs	r2, r2, r4
10004af0:	41ab      	sbcs	r3, r5
10004af2:	9200      	str	r2, [sp, #0]
10004af4:	9301      	str	r3, [sp, #4]
10004af6:	2b00      	cmp	r3, #0
10004af8:	db0a      	blt.n	10004b10 <alarm_pool_add_alarm_at+0x124>
10004afa:	9b03      	ldr	r3, [sp, #12]
10004afc:	4699      	mov	r9, r3
10004afe:	e785      	b.n	10004a0c <alarm_pool_add_alarm_at+0x20>
10004b00:	f000 f980 	bl	10004e04 <time_us_64>
10004b04:	1824      	adds	r4, r4, r0
10004b06:	414d      	adcs	r5, r1
10004b08:	9400      	str	r4, [sp, #0]
10004b0a:	9501      	str	r5, [sp, #4]
10004b0c:	2d00      	cmp	r5, #0
10004b0e:	daf4      	bge.n	10004afa <alarm_pool_add_alarm_at+0x10e>
10004b10:	2301      	movs	r3, #1
10004b12:	4c13      	ldr	r4, [pc, #76]	; (10004b60 <alarm_pool_add_alarm_at+0x174>)
10004b14:	425b      	negs	r3, r3
10004b16:	9300      	str	r3, [sp, #0]
10004b18:	9401      	str	r4, [sp, #4]
10004b1a:	e7ee      	b.n	10004afa <alarm_pool_add_alarm_at+0x10e>
10004b1c:	4653      	mov	r3, sl
10004b1e:	005b      	lsls	r3, r3, #1
10004b20:	4453      	add	r3, sl
10004b22:	3b03      	subs	r3, #3
10004b24:	18d3      	adds	r3, r2, r3
10004b26:	709c      	strb	r4, [r3, #2]
10004b28:	19d1      	adds	r1, r2, r7
10004b2a:	5dd2      	ldrb	r2, [r2, r7]
10004b2c:	2a00      	cmp	r2, #0
10004b2e:	d000      	beq.n	10004b32 <alarm_pool_add_alarm_at+0x146>
10004b30:	705a      	strb	r2, [r3, #1]
10004b32:	4653      	mov	r3, sl
10004b34:	700b      	strb	r3, [r1, #0]
10004b36:	736c      	strb	r4, [r5, #13]
10004b38:	7d30      	ldrb	r0, [r6, #20]
10004b3a:	9a00      	ldr	r2, [sp, #0]
10004b3c:	9b01      	ldr	r3, [sp, #4]
10004b3e:	f000 f9eb 	bl	10004f18 <hardware_alarm_set_target>
10004b42:	4681      	mov	r9, r0
10004b44:	2800      	cmp	r0, #0
10004b46:	d0a7      	beq.n	10004a98 <alarm_pool_add_alarm_at+0xac>
10004b48:	0021      	movs	r1, r4
10004b4a:	6830      	ldr	r0, [r6, #0]
10004b4c:	f000 fc08 	bl	10005360 <ph_remove_and_free_node>
10004b50:	e7a2      	b.n	10004a98 <alarm_pool_add_alarm_at+0xac>
10004b52:	2000      	movs	r0, #0
10004b54:	e7b4      	b.n	10004ac0 <alarm_pool_add_alarm_at+0xd4>
10004b56:	2001      	movs	r0, #1
10004b58:	4240      	negs	r0, r0
10004b5a:	e7b1      	b.n	10004ac0 <alarm_pool_add_alarm_at+0xd4>
10004b5c:	0fffffff 	.word	0x0fffffff
10004b60:	7fffffff 	.word	0x7fffffff

10004b64 <sleep_until>:
10004b64:	b5f0      	push	{r4, r5, r6, r7, lr}
10004b66:	0004      	movs	r4, r0
10004b68:	000d      	movs	r5, r1
10004b6a:	2606      	movs	r6, #6
10004b6c:	4276      	negs	r6, r6
10004b6e:	17f7      	asrs	r7, r6, #31
10004b70:	46c6      	mov	lr, r8
10004b72:	1936      	adds	r6, r6, r4
10004b74:	416f      	adcs	r7, r5
10004b76:	b500      	push	{lr}
10004b78:	b084      	sub	sp, #16
10004b7a:	428f      	cmp	r7, r1
10004b7c:	d814      	bhi.n	10004ba8 <sleep_until+0x44>
10004b7e:	d011      	beq.n	10004ba4 <sleep_until+0x40>
10004b80:	f000 f940 	bl	10004e04 <time_us_64>
10004b84:	0032      	movs	r2, r6
10004b86:	003b      	movs	r3, r7
10004b88:	1a12      	subs	r2, r2, r0
10004b8a:	418b      	sbcs	r3, r1
10004b8c:	2b00      	cmp	r3, #0
10004b8e:	dc15      	bgt.n	10004bbc <sleep_until+0x58>
10004b90:	2b00      	cmp	r3, #0
10004b92:	d03e      	beq.n	10004c12 <sleep_until+0xae>
10004b94:	0020      	movs	r0, r4
10004b96:	0029      	movs	r1, r5
10004b98:	f000 f968 	bl	10004e6c <busy_wait_until>
10004b9c:	b004      	add	sp, #16
10004b9e:	bc80      	pop	{r7}
10004ba0:	46b8      	mov	r8, r7
10004ba2:	bdf0      	pop	{r4, r5, r6, r7, pc}
10004ba4:	4286      	cmp	r6, r0
10004ba6:	d9eb      	bls.n	10004b80 <sleep_until+0x1c>
10004ba8:	2600      	movs	r6, #0
10004baa:	2700      	movs	r7, #0
10004bac:	f000 f92a 	bl	10004e04 <time_us_64>
10004bb0:	0032      	movs	r2, r6
10004bb2:	003b      	movs	r3, r7
10004bb4:	1a12      	subs	r2, r2, r0
10004bb6:	418b      	sbcs	r3, r1
10004bb8:	2b00      	cmp	r3, #0
10004bba:	dde9      	ble.n	10004b90 <sleep_until+0x2c>
10004bbc:	2300      	movs	r3, #0
10004bbe:	9302      	str	r3, [sp, #8]
10004bc0:	9301      	str	r3, [sp, #4]
10004bc2:	4b15      	ldr	r3, [pc, #84]	; (10004c18 <sleep_until+0xb4>)
10004bc4:	0032      	movs	r2, r6
10004bc6:	9300      	str	r3, [sp, #0]
10004bc8:	4814      	ldr	r0, [pc, #80]	; (10004c1c <sleep_until+0xb8>)
10004bca:	003b      	movs	r3, r7
10004bcc:	f7ff ff0e 	bl	100049ec <alarm_pool_add_alarm_at>
10004bd0:	2800      	cmp	r0, #0
10004bd2:	dbdf      	blt.n	10004b94 <sleep_until+0x30>
10004bd4:	2300      	movs	r3, #0
10004bd6:	4698      	mov	r8, r3
10004bd8:	46bc      	mov	ip, r7
10004bda:	4a11      	ldr	r2, [pc, #68]	; (10004c20 <sleep_until+0xbc>)
10004bdc:	4f11      	ldr	r7, [pc, #68]	; (10004c24 <sleep_until+0xc0>)
10004bde:	6a7b      	ldr	r3, [r7, #36]	; 0x24
10004be0:	459c      	cmp	ip, r3
10004be2:	d804      	bhi.n	10004bee <sleep_until+0x8a>
10004be4:	6ab9      	ldr	r1, [r7, #40]	; 0x28
10004be6:	428e      	cmp	r6, r1
10004be8:	d9d4      	bls.n	10004b94 <sleep_until+0x30>
10004bea:	459c      	cmp	ip, r3
10004bec:	d1d2      	bne.n	10004b94 <sleep_until+0x30>
10004bee:	6811      	ldr	r1, [r2, #0]
10004bf0:	f3ef 8010 	mrs	r0, PRIMASK
10004bf4:	b672      	cpsid	i
10004bf6:	680b      	ldr	r3, [r1, #0]
10004bf8:	2b00      	cmp	r3, #0
10004bfa:	d0fc      	beq.n	10004bf6 <sleep_until+0x92>
10004bfc:	f3bf 8f5f 	dmb	sy
10004c00:	6813      	ldr	r3, [r2, #0]
10004c02:	f3bf 8f5f 	dmb	sy
10004c06:	4641      	mov	r1, r8
10004c08:	6019      	str	r1, [r3, #0]
10004c0a:	f380 8810 	msr	PRIMASK, r0
10004c0e:	bf20      	wfe
10004c10:	e7e5      	b.n	10004bde <sleep_until+0x7a>
10004c12:	2a00      	cmp	r2, #0
10004c14:	d0be      	beq.n	10004b94 <sleep_until+0x30>
10004c16:	e7d1      	b.n	10004bbc <sleep_until+0x58>
10004c18:	10004695 	.word	0x10004695
10004c1c:	200001f4 	.word	0x200001f4
10004c20:	200006f4 	.word	0x200006f4
10004c24:	40054000 	.word	0x40054000

10004c28 <sleep_ms>:
10004c28:	b570      	push	{r4, r5, r6, lr}
10004c2a:	0006      	movs	r6, r0
10004c2c:	f000 f8ea 	bl	10004e04 <time_us_64>
10004c30:	22fa      	movs	r2, #250	; 0xfa
10004c32:	0004      	movs	r4, r0
10004c34:	000d      	movs	r5, r1
10004c36:	2300      	movs	r3, #0
10004c38:	0030      	movs	r0, r6
10004c3a:	2100      	movs	r1, #0
10004c3c:	0092      	lsls	r2, r2, #2
10004c3e:	f003 f887 	bl	10007d50 <__wrap___aeabi_lmul>
10004c42:	1900      	adds	r0, r0, r4
10004c44:	4169      	adcs	r1, r5
10004c46:	2900      	cmp	r1, #0
10004c48:	db02      	blt.n	10004c50 <sleep_ms+0x28>
10004c4a:	f7ff ff8b 	bl	10004b64 <sleep_until>
10004c4e:	bd70      	pop	{r4, r5, r6, pc}
10004c50:	2001      	movs	r0, #1
10004c52:	4901      	ldr	r1, [pc, #4]	; (10004c58 <sleep_ms+0x30>)
10004c54:	4240      	negs	r0, r0
10004c56:	e7f8      	b.n	10004c4a <sleep_ms+0x22>
10004c58:	7fffffff 	.word	0x7fffffff

10004c5c <best_effort_wfe_or_timeout>:
10004c5c:	b5f0      	push	{r4, r5, r6, r7, lr}
10004c5e:	f3ef 8305 	mrs	r3, IPSR
10004c62:	46ce      	mov	lr, r9
10004c64:	4647      	mov	r7, r8
10004c66:	b580      	push	{r7, lr}
10004c68:	0005      	movs	r5, r0
10004c6a:	000c      	movs	r4, r1
10004c6c:	b085      	sub	sp, #20
10004c6e:	2b00      	cmp	r3, #0
10004c70:	d012      	beq.n	10004c98 <best_effort_wfe_or_timeout+0x3c>
10004c72:	4a2c      	ldr	r2, [pc, #176]	; (10004d24 <best_effort_wfe_or_timeout+0xc8>)
10004c74:	2000      	movs	r0, #0
10004c76:	6a53      	ldr	r3, [r2, #36]	; 0x24
10004c78:	429c      	cmp	r4, r3
10004c7a:	d803      	bhi.n	10004c84 <best_effort_wfe_or_timeout+0x28>
10004c7c:	6a92      	ldr	r2, [r2, #40]	; 0x28
10004c7e:	3001      	adds	r0, #1
10004c80:	42aa      	cmp	r2, r5
10004c82:	d304      	bcc.n	10004c8e <best_effort_wfe_or_timeout+0x32>
10004c84:	b005      	add	sp, #20
10004c86:	bcc0      	pop	{r6, r7}
10004c88:	46b9      	mov	r9, r7
10004c8a:	46b0      	mov	r8, r6
10004c8c:	bdf0      	pop	{r4, r5, r6, r7, pc}
10004c8e:	1ae0      	subs	r0, r4, r3
10004c90:	1e42      	subs	r2, r0, #1
10004c92:	4190      	sbcs	r0, r2
10004c94:	b2c0      	uxtb	r0, r0
10004c96:	e7f5      	b.n	10004c84 <best_effort_wfe_or_timeout+0x28>
10004c98:	4e23      	ldr	r6, [pc, #140]	; (10004d28 <best_effort_wfe_or_timeout+0xcc>)
10004c9a:	9302      	str	r3, [sp, #8]
10004c9c:	9301      	str	r3, [sp, #4]
10004c9e:	4b23      	ldr	r3, [pc, #140]	; (10004d2c <best_effort_wfe_or_timeout+0xd0>)
10004ca0:	0002      	movs	r2, r0
10004ca2:	9300      	str	r3, [sp, #0]
10004ca4:	0030      	movs	r0, r6
10004ca6:	000b      	movs	r3, r1
10004ca8:	f7ff fea0 	bl	100049ec <alarm_pool_add_alarm_at>
10004cac:	1e03      	subs	r3, r0, #0
10004cae:	dde0      	ble.n	10004c72 <best_effort_wfe_or_timeout+0x16>
10004cb0:	bf20      	wfe
10004cb2:	6871      	ldr	r1, [r6, #4]
10004cb4:	f3ef 8710 	mrs	r7, PRIMASK
10004cb8:	b672      	cpsid	i
10004cba:	680a      	ldr	r2, [r1, #0]
10004cbc:	2a00      	cmp	r2, #0
10004cbe:	d0fc      	beq.n	10004cba <best_effort_wfe_or_timeout+0x5e>
10004cc0:	f3bf 8f5f 	dmb	sy
10004cc4:	b2da      	uxtb	r2, r3
10004cc6:	4694      	mov	ip, r2
10004cc8:	6830      	ldr	r0, [r6, #0]
10004cca:	7b42      	ldrb	r2, [r0, #13]
10004ccc:	4562      	cmp	r2, ip
10004cce:	d01d      	beq.n	10004d0c <best_effort_wfe_or_timeout+0xb0>
10004cd0:	22ff      	movs	r2, #255	; 0xff
10004cd2:	401a      	ands	r2, r3
10004cd4:	0051      	lsls	r1, r2, #1
10004cd6:	4689      	mov	r9, r1
10004cd8:	6801      	ldr	r1, [r0, #0]
10004cda:	4491      	add	r9, r2
10004cdc:	4688      	mov	r8, r1
10004cde:	4649      	mov	r1, r9
10004ce0:	4441      	add	r1, r8
10004ce2:	3903      	subs	r1, #3
10004ce4:	7889      	ldrb	r1, [r1, #2]
10004ce6:	2900      	cmp	r1, #0
10004ce8:	d013      	beq.n	10004d12 <best_effort_wfe_or_timeout+0xb6>
10004cea:	68f1      	ldr	r1, [r6, #12]
10004cec:	0a1b      	lsrs	r3, r3, #8
10004cee:	4688      	mov	r8, r1
10004cf0:	4442      	add	r2, r8
10004cf2:	3a01      	subs	r2, #1
10004cf4:	7812      	ldrb	r2, [r2, #0]
10004cf6:	b2db      	uxtb	r3, r3
10004cf8:	429a      	cmp	r2, r3
10004cfa:	d00f      	beq.n	10004d1c <best_effort_wfe_or_timeout+0xc0>
10004cfc:	6873      	ldr	r3, [r6, #4]
10004cfe:	f3bf 8f5f 	dmb	sy
10004d02:	2200      	movs	r2, #0
10004d04:	601a      	str	r2, [r3, #0]
10004d06:	f387 8810 	msr	PRIMASK, r7
10004d0a:	e7b2      	b.n	10004c72 <best_effort_wfe_or_timeout+0x16>
10004d0c:	22ff      	movs	r2, #255	; 0xff
10004d0e:	401a      	ands	r2, r3
10004d10:	e7eb      	b.n	10004cea <best_effort_wfe_or_timeout+0x8e>
10004d12:	6932      	ldr	r2, [r6, #16]
10004d14:	4293      	cmp	r3, r2
10004d16:	d1f1      	bne.n	10004cfc <best_effort_wfe_or_timeout+0xa0>
10004d18:	6131      	str	r1, [r6, #16]
10004d1a:	e7ef      	b.n	10004cfc <best_effort_wfe_or_timeout+0xa0>
10004d1c:	4661      	mov	r1, ip
10004d1e:	f000 fb1f 	bl	10005360 <ph_remove_and_free_node>
10004d22:	e7eb      	b.n	10004cfc <best_effort_wfe_or_timeout+0xa0>
10004d24:	40054000 	.word	0x40054000
10004d28:	200001f4 	.word	0x200001f4
10004d2c:	10004695 	.word	0x10004695

10004d30 <hardware_alarm_irq_handler>:
10004d30:	b5f0      	push	{r4, r5, r6, r7, lr}
10004d32:	f3ef 8205 	mrs	r2, IPSR
10004d36:	46d6      	mov	lr, sl
10004d38:	464f      	mov	r7, r9
10004d3a:	4646      	mov	r6, r8
10004d3c:	0010      	movs	r0, r2
10004d3e:	b5c0      	push	{r6, r7, lr}
10004d40:	3810      	subs	r0, #16
10004d42:	f3ef 8810 	mrs	r8, PRIMASK
10004d46:	b672      	cpsid	i
10004d48:	4c21      	ldr	r4, [pc, #132]	; (10004dd0 <hardware_alarm_irq_handler+0xa0>)
10004d4a:	6823      	ldr	r3, [r4, #0]
10004d4c:	2b00      	cmp	r3, #0
10004d4e:	d0fc      	beq.n	10004d4a <hardware_alarm_irq_handler+0x1a>
10004d50:	f3bf 8f5f 	dmb	sy
10004d54:	2301      	movs	r3, #1
10004d56:	0019      	movs	r1, r3
10004d58:	4081      	lsls	r1, r0
10004d5a:	4d1e      	ldr	r5, [pc, #120]	; (10004dd4 <hardware_alarm_irq_handler+0xa4>)
10004d5c:	001f      	movs	r7, r3
10004d5e:	6369      	str	r1, [r5, #52]	; 0x34
10004d60:	46aa      	mov	sl, r5
10004d62:	4d1d      	ldr	r5, [pc, #116]	; (10004dd8 <hardware_alarm_irq_handler+0xa8>)
10004d64:	6029      	str	r1, [r5, #0]
10004d66:	4d1d      	ldr	r5, [pc, #116]	; (10004ddc <hardware_alarm_irq_handler+0xac>)
10004d68:	782e      	ldrb	r6, [r5, #0]
10004d6a:	46ac      	mov	ip, r5
10004d6c:	0035      	movs	r5, r6
10004d6e:	40c5      	lsrs	r5, r0
10004d70:	402f      	ands	r7, r5
10004d72:	422b      	tst	r3, r5
10004d74:	d109      	bne.n	10004d8a <hardware_alarm_irq_handler+0x5a>
10004d76:	f3bf 8f5f 	dmb	sy
10004d7a:	6027      	str	r7, [r4, #0]
10004d7c:	f388 8810 	msr	PRIMASK, r8
10004d80:	bce0      	pop	{r5, r6, r7}
10004d82:	46ba      	mov	sl, r7
10004d84:	46b1      	mov	r9, r6
10004d86:	46a8      	mov	r8, r5
10004d88:	bdf0      	pop	{r4, r5, r6, r7, pc}
10004d8a:	4653      	mov	r3, sl
10004d8c:	4d14      	ldr	r5, [pc, #80]	; (10004de0 <hardware_alarm_irq_handler+0xb0>)
10004d8e:	6a5f      	ldr	r7, [r3, #36]	; 0x24
10004d90:	0083      	lsls	r3, r0, #2
10004d92:	595d      	ldr	r5, [r3, r5]
10004d94:	42af      	cmp	r7, r5
10004d96:	d30e      	bcc.n	10004db6 <hardware_alarm_irq_handler+0x86>
10004d98:	4a12      	ldr	r2, [pc, #72]	; (10004de4 <hardware_alarm_irq_handler+0xb4>)
10004d9a:	438e      	bics	r6, r1
10004d9c:	589b      	ldr	r3, [r3, r2]
10004d9e:	4662      	mov	r2, ip
10004da0:	7016      	strb	r6, [r2, #0]
10004da2:	f3bf 8f5f 	dmb	sy
10004da6:	2200      	movs	r2, #0
10004da8:	6022      	str	r2, [r4, #0]
10004daa:	f388 8810 	msr	PRIMASK, r8
10004dae:	2b00      	cmp	r3, #0
10004db0:	d0e6      	beq.n	10004d80 <hardware_alarm_irq_handler+0x50>
10004db2:	4798      	blx	r3
10004db4:	e7e4      	b.n	10004d80 <hardware_alarm_irq_handler+0x50>
10004db6:	4b0c      	ldr	r3, [pc, #48]	; (10004de8 <hardware_alarm_irq_handler+0xb8>)
10004db8:	0092      	lsls	r2, r2, #2
10004dba:	469c      	mov	ip, r3
10004dbc:	4462      	add	r2, ip
10004dbe:	6813      	ldr	r3, [r2, #0]
10004dc0:	6013      	str	r3, [r2, #0]
10004dc2:	f3bf 8f5f 	dmb	sy
10004dc6:	2300      	movs	r3, #0
10004dc8:	6023      	str	r3, [r4, #0]
10004dca:	f388 8810 	msr	PRIMASK, r8
10004dce:	e7d7      	b.n	10004d80 <hardware_alarm_irq_handler+0x50>
10004dd0:	d0000128 	.word	0xd0000128
10004dd4:	40054000 	.word	0x40054000
10004dd8:	4005703c 	.word	0x4005703c
10004ddc:	20000746 	.word	0x20000746
10004de0:	20000714 	.word	0x20000714
10004de4:	200005ac 	.word	0x200005ac
10004de8:	40053fd0 	.word	0x40053fd0

10004dec <hardware_alarm_claim>:
10004dec:	b510      	push	{r4, lr}
10004dee:	0001      	movs	r1, r0
10004df0:	4a02      	ldr	r2, [pc, #8]	; (10004dfc <hardware_alarm_claim+0x10>)
10004df2:	4803      	ldr	r0, [pc, #12]	; (10004e00 <hardware_alarm_claim+0x14>)
10004df4:	f7ff fa4c 	bl	10004290 <hw_claim_or_assert>
10004df8:	bd10      	pop	{r4, pc}
10004dfa:	46c0      	nop			; (mov r8, r8)
10004dfc:	10008fb0 	.word	0x10008fb0
10004e00:	20000742 	.word	0x20000742

10004e04 <time_us_64>:
10004e04:	4b03      	ldr	r3, [pc, #12]	; (10004e14 <time_us_64+0x10>)
10004e06:	6a59      	ldr	r1, [r3, #36]	; 0x24
10004e08:	000a      	movs	r2, r1
10004e0a:	6a98      	ldr	r0, [r3, #40]	; 0x28
10004e0c:	6a59      	ldr	r1, [r3, #36]	; 0x24
10004e0e:	428a      	cmp	r2, r1
10004e10:	d1fa      	bne.n	10004e08 <time_us_64+0x4>
10004e12:	4770      	bx	lr
10004e14:	40054000 	.word	0x40054000

10004e18 <busy_wait_us>:
10004e18:	b570      	push	{r4, r5, r6, lr}
10004e1a:	0004      	movs	r4, r0
10004e1c:	000d      	movs	r5, r1
10004e1e:	4a12      	ldr	r2, [pc, #72]	; (10004e68 <busy_wait_us+0x50>)
10004e20:	6a53      	ldr	r3, [r2, #36]	; 0x24
10004e22:	0019      	movs	r1, r3
10004e24:	6a96      	ldr	r6, [r2, #40]	; 0x28
10004e26:	6a53      	ldr	r3, [r2, #36]	; 0x24
10004e28:	428b      	cmp	r3, r1
10004e2a:	d1fa      	bne.n	10004e22 <busy_wait_us+0xa>
10004e2c:	0030      	movs	r0, r6
10004e2e:	0019      	movs	r1, r3
10004e30:	1824      	adds	r4, r4, r0
10004e32:	414d      	adcs	r5, r1
10004e34:	42ab      	cmp	r3, r5
10004e36:	d811      	bhi.n	10004e5c <busy_wait_us+0x44>
10004e38:	d00e      	beq.n	10004e58 <busy_wait_us+0x40>
10004e3a:	002b      	movs	r3, r5
10004e3c:	490a      	ldr	r1, [pc, #40]	; (10004e68 <busy_wait_us+0x50>)
10004e3e:	6a4a      	ldr	r2, [r1, #36]	; 0x24
10004e40:	429a      	cmp	r2, r3
10004e42:	d3fc      	bcc.n	10004e3e <busy_wait_us+0x26>
10004e44:	d107      	bne.n	10004e56 <busy_wait_us+0x3e>
10004e46:	4a08      	ldr	r2, [pc, #32]	; (10004e68 <busy_wait_us+0x50>)
10004e48:	e002      	b.n	10004e50 <busy_wait_us+0x38>
10004e4a:	6a51      	ldr	r1, [r2, #36]	; 0x24
10004e4c:	4299      	cmp	r1, r3
10004e4e:	d102      	bne.n	10004e56 <busy_wait_us+0x3e>
10004e50:	6a91      	ldr	r1, [r2, #40]	; 0x28
10004e52:	42a1      	cmp	r1, r4
10004e54:	d3f9      	bcc.n	10004e4a <busy_wait_us+0x32>
10004e56:	bd70      	pop	{r4, r5, r6, pc}
10004e58:	42a6      	cmp	r6, r4
10004e5a:	d9ee      	bls.n	10004e3a <busy_wait_us+0x22>
10004e5c:	2301      	movs	r3, #1
10004e5e:	2401      	movs	r4, #1
10004e60:	4264      	negs	r4, r4
10004e62:	17e5      	asrs	r5, r4, #31
10004e64:	425b      	negs	r3, r3
10004e66:	e7e9      	b.n	10004e3c <busy_wait_us+0x24>
10004e68:	40054000 	.word	0x40054000

10004e6c <busy_wait_until>:
10004e6c:	4a06      	ldr	r2, [pc, #24]	; (10004e88 <busy_wait_until+0x1c>)
10004e6e:	6a53      	ldr	r3, [r2, #36]	; 0x24
10004e70:	4299      	cmp	r1, r3
10004e72:	d8fc      	bhi.n	10004e6e <busy_wait_until+0x2>
10004e74:	d107      	bne.n	10004e86 <busy_wait_until+0x1a>
10004e76:	4b04      	ldr	r3, [pc, #16]	; (10004e88 <busy_wait_until+0x1c>)
10004e78:	e002      	b.n	10004e80 <busy_wait_until+0x14>
10004e7a:	6a5a      	ldr	r2, [r3, #36]	; 0x24
10004e7c:	4291      	cmp	r1, r2
10004e7e:	d102      	bne.n	10004e86 <busy_wait_until+0x1a>
10004e80:	6a9a      	ldr	r2, [r3, #40]	; 0x28
10004e82:	4282      	cmp	r2, r0
10004e84:	d3f9      	bcc.n	10004e7a <busy_wait_until+0xe>
10004e86:	4770      	bx	lr
10004e88:	40054000 	.word	0x40054000

10004e8c <hardware_alarm_set_callback>:
10004e8c:	b570      	push	{r4, r5, r6, lr}
10004e8e:	0004      	movs	r4, r0
10004e90:	000d      	movs	r5, r1
10004e92:	f3ef 8610 	mrs	r6, PRIMASK
10004e96:	b672      	cpsid	i
10004e98:	4a1a      	ldr	r2, [pc, #104]	; (10004f04 <hardware_alarm_set_callback+0x78>)
10004e9a:	6813      	ldr	r3, [r2, #0]
10004e9c:	2b00      	cmp	r3, #0
10004e9e:	d0fc      	beq.n	10004e9a <hardware_alarm_set_callback+0xe>
10004ea0:	f3bf 8f5f 	dmb	sy
10004ea4:	2d00      	cmp	r5, #0
10004ea6:	d01b      	beq.n	10004ee0 <hardware_alarm_set_callback+0x54>
10004ea8:	0020      	movs	r0, r4
10004eaa:	f7ff fa3f 	bl	1000432c <irq_get_vtable_handler>
10004eae:	4916      	ldr	r1, [pc, #88]	; (10004f08 <hardware_alarm_set_callback+0x7c>)
10004eb0:	4281      	cmp	r1, r0
10004eb2:	d00a      	beq.n	10004eca <hardware_alarm_set_callback+0x3e>
10004eb4:	0020      	movs	r0, r4
10004eb6:	f7ff fa41 	bl	1000433c <irq_set_exclusive_handler>
10004eba:	2101      	movs	r1, #1
10004ebc:	0020      	movs	r0, r4
10004ebe:	f7ff fa23 	bl	10004308 <irq_set_enabled>
10004ec2:	2301      	movs	r3, #1
10004ec4:	40a3      	lsls	r3, r4
10004ec6:	4a11      	ldr	r2, [pc, #68]	; (10004f0c <hardware_alarm_set_callback+0x80>)
10004ec8:	6013      	str	r3, [r2, #0]
10004eca:	4b11      	ldr	r3, [pc, #68]	; (10004f10 <hardware_alarm_set_callback+0x84>)
10004ecc:	00a4      	lsls	r4, r4, #2
10004ece:	50e5      	str	r5, [r4, r3]
10004ed0:	f3bf 8f5f 	dmb	sy
10004ed4:	2200      	movs	r2, #0
10004ed6:	4b0b      	ldr	r3, [pc, #44]	; (10004f04 <hardware_alarm_set_callback+0x78>)
10004ed8:	601a      	str	r2, [r3, #0]
10004eda:	f386 8810 	msr	PRIMASK, r6
10004ede:	bd70      	pop	{r4, r5, r6, pc}
10004ee0:	4b0b      	ldr	r3, [pc, #44]	; (10004f10 <hardware_alarm_set_callback+0x84>)
10004ee2:	00a2      	lsls	r2, r4, #2
10004ee4:	50d5      	str	r5, [r2, r3]
10004ee6:	2201      	movs	r2, #1
10004ee8:	40a2      	lsls	r2, r4
10004eea:	490a      	ldr	r1, [pc, #40]	; (10004f14 <hardware_alarm_set_callback+0x88>)
10004eec:	0020      	movs	r0, r4
10004eee:	780b      	ldrb	r3, [r1, #0]
10004ef0:	4393      	bics	r3, r2
10004ef2:	700b      	strb	r3, [r1, #0]
10004ef4:	4904      	ldr	r1, [pc, #16]	; (10004f08 <hardware_alarm_set_callback+0x7c>)
10004ef6:	f7ff fa4b 	bl	10004390 <irq_remove_handler>
10004efa:	2100      	movs	r1, #0
10004efc:	0020      	movs	r0, r4
10004efe:	f7ff fa03 	bl	10004308 <irq_set_enabled>
10004f02:	e7e5      	b.n	10004ed0 <hardware_alarm_set_callback+0x44>
10004f04:	d0000128 	.word	0xd0000128
10004f08:	10004d31 	.word	0x10004d31
10004f0c:	40056038 	.word	0x40056038
10004f10:	200005ac 	.word	0x200005ac
10004f14:	20000746 	.word	0x20000746

10004f18 <hardware_alarm_set_target>:
10004f18:	b5f0      	push	{r4, r5, r6, r7, lr}
10004f1a:	464f      	mov	r7, r9
10004f1c:	46d6      	mov	lr, sl
10004f1e:	4646      	mov	r6, r8
10004f20:	b5c0      	push	{r6, r7, lr}
10004f22:	0007      	movs	r7, r0
10004f24:	4c2c      	ldr	r4, [pc, #176]	; (10004fd8 <hardware_alarm_set_target+0xc0>)
10004f26:	6a61      	ldr	r1, [r4, #36]	; 0x24
10004f28:	000d      	movs	r5, r1
10004f2a:	6aa6      	ldr	r6, [r4, #40]	; 0x28
10004f2c:	6a61      	ldr	r1, [r4, #36]	; 0x24
10004f2e:	42a9      	cmp	r1, r5
10004f30:	d1fa      	bne.n	10004f28 <hardware_alarm_set_target+0x10>
10004f32:	428b      	cmp	r3, r1
10004f34:	d808      	bhi.n	10004f48 <hardware_alarm_set_target+0x30>
10004f36:	d005      	beq.n	10004f44 <hardware_alarm_set_target+0x2c>
10004f38:	2001      	movs	r0, #1
10004f3a:	bce0      	pop	{r5, r6, r7}
10004f3c:	46ba      	mov	sl, r7
10004f3e:	46b1      	mov	r9, r6
10004f40:	46a8      	mov	r8, r5
10004f42:	bdf0      	pop	{r4, r5, r6, r7, pc}
10004f44:	42b2      	cmp	r2, r6
10004f46:	d9f7      	bls.n	10004f38 <hardware_alarm_set_target+0x20>
10004f48:	f3ef 8a10 	mrs	sl, PRIMASK
10004f4c:	b672      	cpsid	i
10004f4e:	4823      	ldr	r0, [pc, #140]	; (10004fdc <hardware_alarm_set_target+0xc4>)
10004f50:	6801      	ldr	r1, [r0, #0]
10004f52:	2900      	cmp	r1, #0
10004f54:	d0fc      	beq.n	10004f50 <hardware_alarm_set_target+0x38>
10004f56:	f3bf 8f5f 	dmb	sy
10004f5a:	2501      	movs	r5, #1
10004f5c:	40bd      	lsls	r5, r7
10004f5e:	4920      	ldr	r1, [pc, #128]	; (10004fe0 <hardware_alarm_set_target+0xc8>)
10004f60:	4c1d      	ldr	r4, [pc, #116]	; (10004fd8 <hardware_alarm_set_target+0xc0>)
10004f62:	4688      	mov	r8, r1
10004f64:	7809      	ldrb	r1, [r1, #0]
10004f66:	4689      	mov	r9, r1
10004f68:	4329      	orrs	r1, r5
10004f6a:	b2c9      	uxtb	r1, r1
10004f6c:	468c      	mov	ip, r1
10004f6e:	4641      	mov	r1, r8
10004f70:	4660      	mov	r0, ip
10004f72:	7008      	strb	r0, [r1, #0]
10004f74:	1d39      	adds	r1, r7, #4
10004f76:	481b      	ldr	r0, [pc, #108]	; (10004fe4 <hardware_alarm_set_target+0xcc>)
10004f78:	0089      	lsls	r1, r1, #2
10004f7a:	6365      	str	r5, [r4, #52]	; 0x34
10004f7c:	510a      	str	r2, [r1, r4]
10004f7e:	00b9      	lsls	r1, r7, #2
10004f80:	500b      	str	r3, [r1, r0]
10004f82:	6a21      	ldr	r1, [r4, #32]
10004f84:	2000      	movs	r0, #0
10004f86:	4229      	tst	r1, r5
10004f88:	d019      	beq.n	10004fbe <hardware_alarm_set_target+0xa6>
10004f8a:	6a61      	ldr	r1, [r4, #36]	; 0x24
10004f8c:	0008      	movs	r0, r1
10004f8e:	6aa6      	ldr	r6, [r4, #40]	; 0x28
10004f90:	6a61      	ldr	r1, [r4, #36]	; 0x24
10004f92:	4281      	cmp	r1, r0
10004f94:	d1fa      	bne.n	10004f8c <hardware_alarm_set_target+0x74>
10004f96:	428b      	cmp	r3, r1
10004f98:	d819      	bhi.n	10004fce <hardware_alarm_set_target+0xb6>
10004f9a:	d101      	bne.n	10004fa0 <hardware_alarm_set_target+0x88>
10004f9c:	42b2      	cmp	r2, r6
10004f9e:	d816      	bhi.n	10004fce <hardware_alarm_set_target+0xb6>
10004fa0:	45cc      	cmp	ip, r9
10004fa2:	d016      	beq.n	10004fd2 <hardware_alarm_set_target+0xba>
10004fa4:	4b0c      	ldr	r3, [pc, #48]	; (10004fd8 <hardware_alarm_set_target+0xc0>)
10004fa6:	201f      	movs	r0, #31
10004fa8:	621d      	str	r5, [r3, #32]
10004faa:	635d      	str	r5, [r3, #52]	; 0x34
10004fac:	2301      	movs	r3, #1
10004fae:	4007      	ands	r7, r0
10004fb0:	40bb      	lsls	r3, r7
10004fb2:	4a0d      	ldr	r2, [pc, #52]	; (10004fe8 <hardware_alarm_set_target+0xd0>)
10004fb4:	381e      	subs	r0, #30
10004fb6:	6013      	str	r3, [r2, #0]
10004fb8:	4643      	mov	r3, r8
10004fba:	464a      	mov	r2, r9
10004fbc:	701a      	strb	r2, [r3, #0]
10004fbe:	f3bf 8f5f 	dmb	sy
10004fc2:	2200      	movs	r2, #0
10004fc4:	4b05      	ldr	r3, [pc, #20]	; (10004fdc <hardware_alarm_set_target+0xc4>)
10004fc6:	601a      	str	r2, [r3, #0]
10004fc8:	f38a 8810 	msr	PRIMASK, sl
10004fcc:	e7b5      	b.n	10004f3a <hardware_alarm_set_target+0x22>
10004fce:	2000      	movs	r0, #0
10004fd0:	e7f5      	b.n	10004fbe <hardware_alarm_set_target+0xa6>
10004fd2:	2001      	movs	r0, #1
10004fd4:	e7f3      	b.n	10004fbe <hardware_alarm_set_target+0xa6>
10004fd6:	46c0      	nop			; (mov r8, r8)
10004fd8:	40054000 	.word	0x40054000
10004fdc:	d0000128 	.word	0xd0000128
10004fe0:	20000746 	.word	0x20000746
10004fe4:	20000714 	.word	0x20000714
10004fe8:	e000e280 	.word	0xe000e280

10004fec <hardware_alarm_cancel>:
10004fec:	f3ef 8c10 	mrs	ip, PRIMASK
10004ff0:	b672      	cpsid	i
10004ff2:	490a      	ldr	r1, [pc, #40]	; (1000501c <hardware_alarm_cancel+0x30>)
10004ff4:	680b      	ldr	r3, [r1, #0]
10004ff6:	2b00      	cmp	r3, #0
10004ff8:	d0fc      	beq.n	10004ff4 <hardware_alarm_cancel+0x8>
10004ffa:	f3bf 8f5f 	dmb	sy
10004ffe:	2301      	movs	r3, #1
10005000:	4083      	lsls	r3, r0
10005002:	4a07      	ldr	r2, [pc, #28]	; (10005020 <hardware_alarm_cancel+0x34>)
10005004:	4807      	ldr	r0, [pc, #28]	; (10005024 <hardware_alarm_cancel+0x38>)
10005006:	6213      	str	r3, [r2, #32]
10005008:	7802      	ldrb	r2, [r0, #0]
1000500a:	439a      	bics	r2, r3
1000500c:	7002      	strb	r2, [r0, #0]
1000500e:	f3bf 8f5f 	dmb	sy
10005012:	2300      	movs	r3, #0
10005014:	600b      	str	r3, [r1, #0]
10005016:	f38c 8810 	msr	PRIMASK, ip
1000501a:	4770      	bx	lr
1000501c:	d0000128 	.word	0xd0000128
10005020:	40054000 	.word	0x40054000
10005024:	20000746 	.word	0x20000746

10005028 <ph_merge_nodes>:
10005028:	b570      	push	{r4, r5, r6, lr}
1000502a:	0005      	movs	r5, r0
1000502c:	0014      	movs	r4, r2
1000502e:	0016      	movs	r6, r2
10005030:	2900      	cmp	r1, #0
10005032:	d015      	beq.n	10005060 <ph_merge_nodes+0x38>
10005034:	000c      	movs	r4, r1
10005036:	2a00      	cmp	r2, #0
10005038:	d012      	beq.n	10005060 <ph_merge_nodes+0x38>
1000503a:	6880      	ldr	r0, [r0, #8]
1000503c:	686b      	ldr	r3, [r5, #4]
1000503e:	4798      	blx	r3
10005040:	6829      	ldr	r1, [r5, #0]
10005042:	2800      	cmp	r0, #0
10005044:	d00e      	beq.n	10005064 <ph_merge_nodes+0x3c>
10005046:	0073      	lsls	r3, r6, #1
10005048:	199b      	adds	r3, r3, r6
1000504a:	0062      	lsls	r2, r4, #1
1000504c:	3b03      	subs	r3, #3
1000504e:	1912      	adds	r2, r2, r4
10005050:	18cb      	adds	r3, r1, r3
10005052:	3a03      	subs	r2, #3
10005054:	709c      	strb	r4, [r3, #2]
10005056:	1888      	adds	r0, r1, r2
10005058:	5c8a      	ldrb	r2, [r1, r2]
1000505a:	2a00      	cmp	r2, #0
1000505c:	d115      	bne.n	1000508a <ph_merge_nodes+0x62>
1000505e:	7006      	strb	r6, [r0, #0]
10005060:	0020      	movs	r0, r4
10005062:	bd70      	pop	{r4, r5, r6, pc}
10005064:	0063      	lsls	r3, r4, #1
10005066:	191b      	adds	r3, r3, r4
10005068:	0072      	lsls	r2, r6, #1
1000506a:	3b03      	subs	r3, #3
1000506c:	1992      	adds	r2, r2, r6
1000506e:	18cb      	adds	r3, r1, r3
10005070:	3a03      	subs	r2, #3
10005072:	709e      	strb	r6, [r3, #2]
10005074:	1888      	adds	r0, r1, r2
10005076:	5c8a      	ldrb	r2, [r1, r2]
10005078:	2a00      	cmp	r2, #0
1000507a:	d102      	bne.n	10005082 <ph_merge_nodes+0x5a>
1000507c:	7004      	strb	r4, [r0, #0]
1000507e:	0034      	movs	r4, r6
10005080:	e7ee      	b.n	10005060 <ph_merge_nodes+0x38>
10005082:	705a      	strb	r2, [r3, #1]
10005084:	7004      	strb	r4, [r0, #0]
10005086:	0034      	movs	r4, r6
10005088:	e7ea      	b.n	10005060 <ph_merge_nodes+0x38>
1000508a:	705a      	strb	r2, [r3, #1]
1000508c:	7006      	strb	r6, [r0, #0]
1000508e:	e7e7      	b.n	10005060 <ph_merge_nodes+0x38>

10005090 <ph_post_alloc_init>:
10005090:	b530      	push	{r4, r5, lr}
10005092:	6083      	str	r3, [r0, #8]
10005094:	2300      	movs	r3, #0
10005096:	b2cc      	uxtb	r4, r1
10005098:	7343      	strb	r3, [r0, #13]
1000509a:	3301      	adds	r3, #1
1000509c:	7304      	strb	r4, [r0, #12]
1000509e:	6042      	str	r2, [r0, #4]
100050a0:	7383      	strb	r3, [r0, #14]
100050a2:	73c4      	strb	r4, [r0, #15]
100050a4:	000d      	movs	r5, r1
100050a6:	6800      	ldr	r0, [r0, #0]
100050a8:	2c01      	cmp	r4, #1
100050aa:	d906      	bls.n	100050ba <ph_post_alloc_init+0x2a>
100050ac:	1c42      	adds	r2, r0, #1
100050ae:	3301      	adds	r3, #1
100050b0:	b2db      	uxtb	r3, r3
100050b2:	7013      	strb	r3, [r2, #0]
100050b4:	3203      	adds	r2, #3
100050b6:	429c      	cmp	r4, r3
100050b8:	d1f9      	bne.n	100050ae <ph_post_alloc_init+0x1e>
100050ba:	21ff      	movs	r1, #255	; 0xff
100050bc:	4029      	ands	r1, r5
100050be:	004b      	lsls	r3, r1, #1
100050c0:	1859      	adds	r1, r3, r1
100050c2:	2300      	movs	r3, #0
100050c4:	1840      	adds	r0, r0, r1
100050c6:	3803      	subs	r0, #3
100050c8:	7043      	strb	r3, [r0, #1]
100050ca:	bd30      	pop	{r4, r5, pc}

100050cc <ph_merge_two_pass>:
100050cc:	b5f8      	push	{r3, r4, r5, r6, r7, lr}
100050ce:	46ce      	mov	lr, r9
100050d0:	4647      	mov	r7, r8
100050d2:	0006      	movs	r6, r0
100050d4:	000c      	movs	r4, r1
100050d6:	b580      	push	{r7, lr}
100050d8:	2900      	cmp	r1, #0
100050da:	d007      	beq.n	100050ec <ph_merge_two_pass+0x20>
100050dc:	004d      	lsls	r5, r1, #1
100050de:	6803      	ldr	r3, [r0, #0]
100050e0:	186d      	adds	r5, r5, r1
100050e2:	3d03      	subs	r5, #3
100050e4:	195a      	adds	r2, r3, r5
100050e6:	7857      	ldrb	r7, [r2, #1]
100050e8:	2f00      	cmp	r7, #0
100050ea:	d104      	bne.n	100050f6 <ph_merge_two_pass+0x2a>
100050ec:	0020      	movs	r0, r4
100050ee:	bcc0      	pop	{r6, r7}
100050f0:	46b9      	mov	r9, r7
100050f2:	46b0      	mov	r8, r6
100050f4:	bdf8      	pop	{r3, r4, r5, r6, r7, pc}
100050f6:	0079      	lsls	r1, r7, #1
100050f8:	19c9      	adds	r1, r1, r7
100050fa:	3903      	subs	r1, #3
100050fc:	4688      	mov	r8, r1
100050fe:	4443      	add	r3, r8
10005100:	7859      	ldrb	r1, [r3, #1]
10005102:	4689      	mov	r9, r1
10005104:	2100      	movs	r1, #0
10005106:	7059      	strb	r1, [r3, #1]
10005108:	7051      	strb	r1, [r2, #1]
1000510a:	6873      	ldr	r3, [r6, #4]
1000510c:	003a      	movs	r2, r7
1000510e:	0021      	movs	r1, r4
10005110:	6880      	ldr	r0, [r0, #8]
10005112:	4798      	blx	r3
10005114:	6833      	ldr	r3, [r6, #0]
10005116:	2800      	cmp	r0, #0
10005118:	d014      	beq.n	10005144 <ph_merge_two_pass+0x78>
1000511a:	4642      	mov	r2, r8
1000511c:	189a      	adds	r2, r3, r2
1000511e:	7094      	strb	r4, [r2, #2]
10005120:	1959      	adds	r1, r3, r5
10005122:	5d5b      	ldrb	r3, [r3, r5]
10005124:	2b00      	cmp	r3, #0
10005126:	d000      	beq.n	1000512a <ph_merge_two_pass+0x5e>
10005128:	7053      	strb	r3, [r2, #1]
1000512a:	700f      	strb	r7, [r1, #0]
1000512c:	0027      	movs	r7, r4
1000512e:	4649      	mov	r1, r9
10005130:	0030      	movs	r0, r6
10005132:	f7ff ffcb 	bl	100050cc <ph_merge_two_pass>
10005136:	0039      	movs	r1, r7
10005138:	0002      	movs	r2, r0
1000513a:	0030      	movs	r0, r6
1000513c:	f7ff ff74 	bl	10005028 <ph_merge_nodes>
10005140:	0004      	movs	r4, r0
10005142:	e7d3      	b.n	100050ec <ph_merge_two_pass+0x20>
10005144:	4642      	mov	r2, r8
10005146:	4641      	mov	r1, r8
10005148:	195d      	adds	r5, r3, r5
1000514a:	70af      	strb	r7, [r5, #2]
1000514c:	189a      	adds	r2, r3, r2
1000514e:	5c5b      	ldrb	r3, [r3, r1]
10005150:	2b00      	cmp	r3, #0
10005152:	d000      	beq.n	10005156 <ph_merge_two_pass+0x8a>
10005154:	706b      	strb	r3, [r5, #1]
10005156:	7014      	strb	r4, [r2, #0]
10005158:	e7e9      	b.n	1000512e <ph_merge_two_pass+0x62>
1000515a:	46c0      	nop			; (mov r8, r8)

1000515c <ph_remove_any_head>:
1000515c:	b5f0      	push	{r4, r5, r6, r7, lr}
1000515e:	4657      	mov	r7, sl
10005160:	4645      	mov	r5, r8
10005162:	46de      	mov	lr, fp
10005164:	464e      	mov	r6, r9
10005166:	b5e0      	push	{r5, r6, r7, lr}
10005168:	000d      	movs	r5, r1
1000516a:	006b      	lsls	r3, r5, #1
1000516c:	6801      	ldr	r1, [r0, #0]
1000516e:	195b      	adds	r3, r3, r5
10005170:	1edf      	subs	r7, r3, #3
10005172:	0004      	movs	r4, r0
10005174:	5dc8      	ldrb	r0, [r1, r7]
10005176:	b083      	sub	sp, #12
10005178:	9201      	str	r2, [sp, #4]
1000517a:	19ca      	adds	r2, r1, r7
1000517c:	2800      	cmp	r0, #0
1000517e:	d050      	beq.n	10005222 <ph_remove_any_head+0xc6>
10005180:	0043      	lsls	r3, r0, #1
10005182:	181b      	adds	r3, r3, r0
10005184:	3b03      	subs	r3, #3
10005186:	18cb      	adds	r3, r1, r3
10005188:	785e      	ldrb	r6, [r3, #1]
1000518a:	46b4      	mov	ip, r6
1000518c:	2e00      	cmp	r6, #0
1000518e:	d11a      	bne.n	100051c6 <ph_remove_any_head+0x6a>
10005190:	9e01      	ldr	r6, [sp, #4]
10005192:	2e00      	cmp	r6, #0
10005194:	d042      	beq.n	1000521c <ph_remove_any_head+0xc0>
10005196:	7be6      	ldrb	r6, [r4, #15]
10005198:	2e00      	cmp	r6, #0
1000519a:	d004      	beq.n	100051a6 <ph_remove_any_head+0x4a>
1000519c:	0073      	lsls	r3, r6, #1
1000519e:	199b      	adds	r3, r3, r6
100051a0:	18cb      	adds	r3, r1, r3
100051a2:	3b03      	subs	r3, #3
100051a4:	705d      	strb	r5, [r3, #1]
100051a6:	7ba3      	ldrb	r3, [r4, #14]
100051a8:	2b00      	cmp	r3, #0
100051aa:	d100      	bne.n	100051ae <ph_remove_any_head+0x52>
100051ac:	73a5      	strb	r5, [r4, #14]
100051ae:	73e5      	strb	r5, [r4, #15]
100051b0:	2800      	cmp	r0, #0
100051b2:	d12f      	bne.n	10005214 <ph_remove_any_head+0xb8>
100051b4:	2300      	movs	r3, #0
100051b6:	7053      	strb	r3, [r2, #1]
100051b8:	b003      	add	sp, #12
100051ba:	bcf0      	pop	{r4, r5, r6, r7}
100051bc:	46bb      	mov	fp, r7
100051be:	46b2      	mov	sl, r6
100051c0:	46a9      	mov	r9, r5
100051c2:	46a0      	mov	r8, r4
100051c4:	bdf0      	pop	{r4, r5, r6, r7, pc}
100051c6:	0072      	lsls	r2, r6, #1
100051c8:	4462      	add	r2, ip
100051ca:	3a03      	subs	r2, #3
100051cc:	1889      	adds	r1, r1, r2
100051ce:	784a      	ldrb	r2, [r1, #1]
100051d0:	4690      	mov	r8, r2
100051d2:	2200      	movs	r2, #0
100051d4:	704a      	strb	r2, [r1, #1]
100051d6:	4691      	mov	r9, r2
100051d8:	705a      	strb	r2, [r3, #1]
100051da:	0001      	movs	r1, r0
100051dc:	0032      	movs	r2, r6
100051de:	0020      	movs	r0, r4
100051e0:	f7ff ff22 	bl	10005028 <ph_merge_nodes>
100051e4:	4643      	mov	r3, r8
100051e6:	4682      	mov	sl, r0
100051e8:	2b00      	cmp	r3, #0
100051ea:	d007      	beq.n	100051fc <ph_remove_any_head+0xa0>
100051ec:	005b      	lsls	r3, r3, #1
100051ee:	6821      	ldr	r1, [r4, #0]
100051f0:	4443      	add	r3, r8
100051f2:	3b03      	subs	r3, #3
100051f4:	18cb      	adds	r3, r1, r3
100051f6:	785a      	ldrb	r2, [r3, #1]
100051f8:	2a00      	cmp	r2, #0
100051fa:	d116      	bne.n	1000522a <ph_remove_any_head+0xce>
100051fc:	4642      	mov	r2, r8
100051fe:	4651      	mov	r1, sl
10005200:	0020      	movs	r0, r4
10005202:	f7ff ff11 	bl	10005028 <ph_merge_nodes>
10005206:	6821      	ldr	r1, [r4, #0]
10005208:	9b01      	ldr	r3, [sp, #4]
1000520a:	19ca      	adds	r2, r1, r7
1000520c:	2b00      	cmp	r3, #0
1000520e:	d1c2      	bne.n	10005196 <ph_remove_any_head+0x3a>
10005210:	2800      	cmp	r0, #0
10005212:	d0cf      	beq.n	100051b4 <ph_remove_any_head+0x58>
10005214:	0043      	lsls	r3, r0, #1
10005216:	181b      	adds	r3, r3, r0
10005218:	3b03      	subs	r3, #3
1000521a:	18cb      	adds	r3, r1, r3
1000521c:	2100      	movs	r1, #0
1000521e:	7099      	strb	r1, [r3, #2]
10005220:	e7c8      	b.n	100051b4 <ph_remove_any_head+0x58>
10005222:	9b01      	ldr	r3, [sp, #4]
10005224:	2b00      	cmp	r3, #0
10005226:	d1b6      	bne.n	10005196 <ph_remove_any_head+0x3a>
10005228:	e7c4      	b.n	100051b4 <ph_remove_any_head+0x58>
1000522a:	0050      	lsls	r0, r2, #1
1000522c:	1880      	adds	r0, r0, r2
1000522e:	3803      	subs	r0, #3
10005230:	1809      	adds	r1, r1, r0
10005232:	7848      	ldrb	r0, [r1, #1]
10005234:	4683      	mov	fp, r0
10005236:	4648      	mov	r0, r9
10005238:	7048      	strb	r0, [r1, #1]
1000523a:	7058      	strb	r0, [r3, #1]
1000523c:	4641      	mov	r1, r8
1000523e:	0020      	movs	r0, r4
10005240:	f7ff fef2 	bl	10005028 <ph_merge_nodes>
10005244:	4659      	mov	r1, fp
10005246:	4680      	mov	r8, r0
10005248:	0020      	movs	r0, r4
1000524a:	f7ff ff3f 	bl	100050cc <ph_merge_two_pass>
1000524e:	4641      	mov	r1, r8
10005250:	0002      	movs	r2, r0
10005252:	0020      	movs	r0, r4
10005254:	f7ff fee8 	bl	10005028 <ph_merge_nodes>
10005258:	4680      	mov	r8, r0
1000525a:	e7cf      	b.n	100051fc <ph_remove_any_head+0xa0>

1000525c <ph_remove_head>:
1000525c:	b5f0      	push	{r4, r5, r6, r7, lr}
1000525e:	4657      	mov	r7, sl
10005260:	4645      	mov	r5, r8
10005262:	46de      	mov	lr, fp
10005264:	464e      	mov	r6, r9
10005266:	b5e0      	push	{r5, r6, r7, lr}
10005268:	b083      	sub	sp, #12
1000526a:	9101      	str	r1, [sp, #4]
1000526c:	7b45      	ldrb	r5, [r0, #13]
1000526e:	0004      	movs	r4, r0
10005270:	006b      	lsls	r3, r5, #1
10005272:	6800      	ldr	r0, [r0, #0]
10005274:	195b      	adds	r3, r3, r5
10005276:	1edf      	subs	r7, r3, #3
10005278:	5dc1      	ldrb	r1, [r0, r7]
1000527a:	19c2      	adds	r2, r0, r7
1000527c:	2900      	cmp	r1, #0
1000527e:	d052      	beq.n	10005326 <ph_remove_head+0xca>
10005280:	004b      	lsls	r3, r1, #1
10005282:	185b      	adds	r3, r3, r1
10005284:	3b03      	subs	r3, #3
10005286:	18c3      	adds	r3, r0, r3
10005288:	785e      	ldrb	r6, [r3, #1]
1000528a:	46b4      	mov	ip, r6
1000528c:	2e00      	cmp	r6, #0
1000528e:	d11c      	bne.n	100052ca <ph_remove_head+0x6e>
10005290:	9e01      	ldr	r6, [sp, #4]
10005292:	2e00      	cmp	r6, #0
10005294:	d044      	beq.n	10005320 <ph_remove_head+0xc4>
10005296:	7be6      	ldrb	r6, [r4, #15]
10005298:	2e00      	cmp	r6, #0
1000529a:	d004      	beq.n	100052a6 <ph_remove_head+0x4a>
1000529c:	0073      	lsls	r3, r6, #1
1000529e:	199b      	adds	r3, r3, r6
100052a0:	18c3      	adds	r3, r0, r3
100052a2:	3b03      	subs	r3, #3
100052a4:	705d      	strb	r5, [r3, #1]
100052a6:	7ba3      	ldrb	r3, [r4, #14]
100052a8:	2b00      	cmp	r3, #0
100052aa:	d100      	bne.n	100052ae <ph_remove_head+0x52>
100052ac:	73a5      	strb	r5, [r4, #14]
100052ae:	73e5      	strb	r5, [r4, #15]
100052b0:	2900      	cmp	r1, #0
100052b2:	d131      	bne.n	10005318 <ph_remove_head+0xbc>
100052b4:	2300      	movs	r3, #0
100052b6:	0028      	movs	r0, r5
100052b8:	7053      	strb	r3, [r2, #1]
100052ba:	7361      	strb	r1, [r4, #13]
100052bc:	b003      	add	sp, #12
100052be:	bcf0      	pop	{r4, r5, r6, r7}
100052c0:	46bb      	mov	fp, r7
100052c2:	46b2      	mov	sl, r6
100052c4:	46a9      	mov	r9, r5
100052c6:	46a0      	mov	r8, r4
100052c8:	bdf0      	pop	{r4, r5, r6, r7, pc}
100052ca:	0072      	lsls	r2, r6, #1
100052cc:	4462      	add	r2, ip
100052ce:	3a03      	subs	r2, #3
100052d0:	1880      	adds	r0, r0, r2
100052d2:	7842      	ldrb	r2, [r0, #1]
100052d4:	4690      	mov	r8, r2
100052d6:	2200      	movs	r2, #0
100052d8:	7042      	strb	r2, [r0, #1]
100052da:	4691      	mov	r9, r2
100052dc:	705a      	strb	r2, [r3, #1]
100052de:	0020      	movs	r0, r4
100052e0:	0032      	movs	r2, r6
100052e2:	f7ff fea1 	bl	10005028 <ph_merge_nodes>
100052e6:	4643      	mov	r3, r8
100052e8:	4682      	mov	sl, r0
100052ea:	2b00      	cmp	r3, #0
100052ec:	d007      	beq.n	100052fe <ph_remove_head+0xa2>
100052ee:	005b      	lsls	r3, r3, #1
100052f0:	6821      	ldr	r1, [r4, #0]
100052f2:	4443      	add	r3, r8
100052f4:	3b03      	subs	r3, #3
100052f6:	18cb      	adds	r3, r1, r3
100052f8:	785a      	ldrb	r2, [r3, #1]
100052fa:	2a00      	cmp	r2, #0
100052fc:	d117      	bne.n	1000532e <ph_remove_head+0xd2>
100052fe:	4642      	mov	r2, r8
10005300:	4651      	mov	r1, sl
10005302:	0020      	movs	r0, r4
10005304:	f7ff fe90 	bl	10005028 <ph_merge_nodes>
10005308:	9b01      	ldr	r3, [sp, #4]
1000530a:	0001      	movs	r1, r0
1000530c:	6820      	ldr	r0, [r4, #0]
1000530e:	19c2      	adds	r2, r0, r7
10005310:	2b00      	cmp	r3, #0
10005312:	d1c0      	bne.n	10005296 <ph_remove_head+0x3a>
10005314:	2900      	cmp	r1, #0
10005316:	d0cd      	beq.n	100052b4 <ph_remove_head+0x58>
10005318:	004b      	lsls	r3, r1, #1
1000531a:	185b      	adds	r3, r3, r1
1000531c:	3b03      	subs	r3, #3
1000531e:	18c3      	adds	r3, r0, r3
10005320:	2000      	movs	r0, #0
10005322:	7098      	strb	r0, [r3, #2]
10005324:	e7c6      	b.n	100052b4 <ph_remove_head+0x58>
10005326:	9b01      	ldr	r3, [sp, #4]
10005328:	2b00      	cmp	r3, #0
1000532a:	d1b4      	bne.n	10005296 <ph_remove_head+0x3a>
1000532c:	e7c2      	b.n	100052b4 <ph_remove_head+0x58>
1000532e:	0050      	lsls	r0, r2, #1
10005330:	1880      	adds	r0, r0, r2
10005332:	3803      	subs	r0, #3
10005334:	1809      	adds	r1, r1, r0
10005336:	7848      	ldrb	r0, [r1, #1]
10005338:	4683      	mov	fp, r0
1000533a:	4648      	mov	r0, r9
1000533c:	7048      	strb	r0, [r1, #1]
1000533e:	7058      	strb	r0, [r3, #1]
10005340:	4641      	mov	r1, r8
10005342:	0020      	movs	r0, r4
10005344:	f7ff fe70 	bl	10005028 <ph_merge_nodes>
10005348:	4659      	mov	r1, fp
1000534a:	4680      	mov	r8, r0
1000534c:	0020      	movs	r0, r4
1000534e:	f7ff febd 	bl	100050cc <ph_merge_two_pass>
10005352:	4641      	mov	r1, r8
10005354:	0002      	movs	r2, r0
10005356:	0020      	movs	r0, r4
10005358:	f7ff fe66 	bl	10005028 <ph_merge_nodes>
1000535c:	4680      	mov	r8, r0
1000535e:	e7ce      	b.n	100052fe <ph_remove_head+0xa2>

10005360 <ph_remove_and_free_node>:
10005360:	b570      	push	{r4, r5, r6, lr}
10005362:	0004      	movs	r4, r0
10005364:	2900      	cmp	r1, #0
10005366:	d02c      	beq.n	100053c2 <ph_remove_and_free_node+0x62>
10005368:	7b43      	ldrb	r3, [r0, #13]
1000536a:	428b      	cmp	r3, r1
1000536c:	d02e      	beq.n	100053cc <ph_remove_and_free_node+0x6c>
1000536e:	6805      	ldr	r5, [r0, #0]
10005370:	0048      	lsls	r0, r1, #1
10005372:	1840      	adds	r0, r0, r1
10005374:	3803      	subs	r0, #3
10005376:	1828      	adds	r0, r5, r0
10005378:	7882      	ldrb	r2, [r0, #2]
1000537a:	2a00      	cmp	r2, #0
1000537c:	d021      	beq.n	100053c2 <ph_remove_and_free_node+0x62>
1000537e:	0053      	lsls	r3, r2, #1
10005380:	189b      	adds	r3, r3, r2
10005382:	3b03      	subs	r3, #3
10005384:	5cea      	ldrb	r2, [r5, r3]
10005386:	18ee      	adds	r6, r5, r3
10005388:	428a      	cmp	r2, r1
1000538a:	d102      	bne.n	10005392 <ph_remove_and_free_node+0x32>
1000538c:	e01b      	b.n	100053c6 <ph_remove_and_free_node+0x66>
1000538e:	2a00      	cmp	r2, #0
10005390:	d008      	beq.n	100053a4 <ph_remove_and_free_node+0x44>
10005392:	0053      	lsls	r3, r2, #1
10005394:	189b      	adds	r3, r3, r2
10005396:	3b03      	subs	r3, #3
10005398:	18eb      	adds	r3, r5, r3
1000539a:	785a      	ldrb	r2, [r3, #1]
1000539c:	428a      	cmp	r2, r1
1000539e:	d1f6      	bne.n	1000538e <ph_remove_and_free_node+0x2e>
100053a0:	7842      	ldrb	r2, [r0, #1]
100053a2:	705a      	strb	r2, [r3, #1]
100053a4:	2300      	movs	r3, #0
100053a6:	2201      	movs	r2, #1
100053a8:	7083      	strb	r3, [r0, #2]
100053aa:	7043      	strb	r3, [r0, #1]
100053ac:	0020      	movs	r0, r4
100053ae:	f7ff fed5 	bl	1000515c <ph_remove_any_head>
100053b2:	7b61      	ldrb	r1, [r4, #13]
100053b4:	0002      	movs	r2, r0
100053b6:	0020      	movs	r0, r4
100053b8:	f7ff fe36 	bl	10005028 <ph_merge_nodes>
100053bc:	7360      	strb	r0, [r4, #13]
100053be:	2001      	movs	r0, #1
100053c0:	e000      	b.n	100053c4 <ph_remove_and_free_node+0x64>
100053c2:	2000      	movs	r0, #0
100053c4:	bd70      	pop	{r4, r5, r6, pc}
100053c6:	7843      	ldrb	r3, [r0, #1]
100053c8:	7033      	strb	r3, [r6, #0]
100053ca:	e7eb      	b.n	100053a4 <ph_remove_and_free_node+0x44>
100053cc:	2201      	movs	r2, #1
100053ce:	0019      	movs	r1, r3
100053d0:	f7ff fec4 	bl	1000515c <ph_remove_any_head>
100053d4:	7360      	strb	r0, [r4, #13]
100053d6:	2001      	movs	r0, #1
100053d8:	e7f4      	b.n	100053c4 <ph_remove_and_free_node+0x64>
100053da:	46c0      	nop			; (mov r8, r8)

100053dc <uart_init>:
100053dc:	b5f8      	push	{r3, r4, r5, r6, r7, lr}
100053de:	46ce      	mov	lr, r9
100053e0:	4647      	mov	r7, r8
100053e2:	0004      	movs	r4, r0
100053e4:	b580      	push	{r7, lr}
100053e6:	2006      	movs	r0, #6
100053e8:	000e      	movs	r6, r1
100053ea:	f000 fa23 	bl	10005834 <clock_get_hz>
100053ee:	1e05      	subs	r5, r0, #0
100053f0:	d051      	beq.n	10005496 <uart_init+0xba>
100053f2:	4b52      	ldr	r3, [pc, #328]	; (1000553c <uart_init+0x160>)
100053f4:	4952      	ldr	r1, [pc, #328]	; (10005540 <uart_init+0x164>)
100053f6:	18e2      	adds	r2, r4, r3
100053f8:	4253      	negs	r3, r2
100053fa:	415a      	adcs	r2, r3
100053fc:	2380      	movs	r3, #128	; 0x80
100053fe:	03db      	lsls	r3, r3, #15
10005400:	469c      	mov	ip, r3
10005402:	0592      	lsls	r2, r2, #22
10005404:	4b4f      	ldr	r3, [pc, #316]	; (10005544 <uart_init+0x168>)
10005406:	4462      	add	r2, ip
10005408:	601a      	str	r2, [r3, #0]
1000540a:	4b4f      	ldr	r3, [pc, #316]	; (10005548 <uart_init+0x16c>)
1000540c:	601a      	str	r2, [r3, #0]
1000540e:	0010      	movs	r0, r2
10005410:	688b      	ldr	r3, [r1, #8]
10005412:	4398      	bics	r0, r3
10005414:	d1fb      	bne.n	1000540e <uart_init+0x32>
10005416:	4b49      	ldr	r3, [pc, #292]	; (1000553c <uart_init+0x160>)
10005418:	2180      	movs	r1, #128	; 0x80
1000541a:	18e3      	adds	r3, r4, r3
1000541c:	425a      	negs	r2, r3
1000541e:	4153      	adcs	r3, r2
10005420:	4a4a      	ldr	r2, [pc, #296]	; (1000554c <uart_init+0x170>)
10005422:	005b      	lsls	r3, r3, #1
10005424:	0049      	lsls	r1, r1, #1
10005426:	5299      	strh	r1, [r3, r2]
10005428:	2006      	movs	r0, #6
1000542a:	f000 fa03 	bl	10005834 <clock_get_hz>
1000542e:	0031      	movs	r1, r6
10005430:	00c0      	lsls	r0, r0, #3
10005432:	f001 fe6f 	bl	10007114 <__wrap___aeabi_uidiv>
10005436:	09c3      	lsrs	r3, r0, #7
10005438:	d132      	bne.n	100054a0 <uart_init+0xc4>
1000543a:	2240      	movs	r2, #64	; 0x40
1000543c:	2101      	movs	r1, #1
1000543e:	4690      	mov	r8, r2
10005440:	6261      	str	r1, [r4, #36]	; 0x24
10005442:	62a3      	str	r3, [r4, #40]	; 0x28
10005444:	6b25      	ldr	r5, [r4, #48]	; 0x30
10005446:	07eb      	lsls	r3, r5, #31
10005448:	d436      	bmi.n	100054b8 <uart_init+0xdc>
1000544a:	0027      	movs	r7, r4
1000544c:	2680      	movs	r6, #128	; 0x80
1000544e:	6ae3      	ldr	r3, [r4, #44]	; 0x2c
10005450:	2300      	movs	r3, #0
10005452:	372c      	adds	r7, #44	; 0x2c
10005454:	0176      	lsls	r6, r6, #5
10005456:	433e      	orrs	r6, r7
10005458:	6033      	str	r3, [r6, #0]
1000545a:	2006      	movs	r0, #6
1000545c:	6325      	str	r5, [r4, #48]	; 0x30
1000545e:	f000 f9e9 	bl	10005834 <clock_get_hz>
10005462:	4641      	mov	r1, r8
10005464:	0080      	lsls	r0, r0, #2
10005466:	f001 fe55 	bl	10007114 <__wrap___aeabi_uidiv>
1000546a:	6b23      	ldr	r3, [r4, #48]	; 0x30
1000546c:	0005      	movs	r5, r0
1000546e:	4698      	mov	r8, r3
10005470:	07db      	lsls	r3, r3, #31
10005472:	d43b      	bmi.n	100054ec <uart_init+0x110>
10005474:	2260      	movs	r2, #96	; 0x60
10005476:	6ae3      	ldr	r3, [r4, #44]	; 0x2c
10005478:	405a      	eors	r2, r3
1000547a:	236e      	movs	r3, #110	; 0x6e
1000547c:	4013      	ands	r3, r2
1000547e:	6033      	str	r3, [r6, #0]
10005480:	4643      	mov	r3, r8
10005482:	6323      	str	r3, [r4, #48]	; 0x30
10005484:	2380      	movs	r3, #128	; 0x80
10005486:	2210      	movs	r2, #16
10005488:	019b      	lsls	r3, r3, #6
1000548a:	433b      	orrs	r3, r7
1000548c:	601a      	str	r2, [r3, #0]
1000548e:	4b30      	ldr	r3, [pc, #192]	; (10005550 <uart_init+0x174>)
10005490:	6323      	str	r3, [r4, #48]	; 0x30
10005492:	2303      	movs	r3, #3
10005494:	64a3      	str	r3, [r4, #72]	; 0x48
10005496:	0028      	movs	r0, r5
10005498:	bcc0      	pop	{r6, r7}
1000549a:	46b9      	mov	r9, r7
1000549c:	46b0      	mov	r8, r6
1000549e:	bdf8      	pop	{r3, r4, r5, r6, r7, pc}
100054a0:	4a2c      	ldr	r2, [pc, #176]	; (10005554 <uart_init+0x178>)
100054a2:	4293      	cmp	r3, r2
100054a4:	d93f      	bls.n	10005526 <uart_init+0x14a>
100054a6:	2300      	movs	r3, #0
100054a8:	492b      	ldr	r1, [pc, #172]	; (10005558 <uart_init+0x17c>)
100054aa:	4a2c      	ldr	r2, [pc, #176]	; (1000555c <uart_init+0x180>)
100054ac:	6261      	str	r1, [r4, #36]	; 0x24
100054ae:	62a3      	str	r3, [r4, #40]	; 0x28
100054b0:	6b25      	ldr	r5, [r4, #48]	; 0x30
100054b2:	4690      	mov	r8, r2
100054b4:	07eb      	lsls	r3, r5, #31
100054b6:	d5c8      	bpl.n	1000544a <uart_init+0x6e>
100054b8:	0022      	movs	r2, r4
100054ba:	23c0      	movs	r3, #192	; 0xc0
100054bc:	3230      	adds	r2, #48	; 0x30
100054be:	019b      	lsls	r3, r3, #6
100054c0:	4313      	orrs	r3, r2
100054c2:	4a23      	ldr	r2, [pc, #140]	; (10005550 <uart_init+0x174>)
100054c4:	2006      	movs	r0, #6
100054c6:	601a      	str	r2, [r3, #0]
100054c8:	6a66      	ldr	r6, [r4, #36]	; 0x24
100054ca:	6aa2      	ldr	r2, [r4, #40]	; 0x28
100054cc:	01b6      	lsls	r6, r6, #6
100054ce:	18b6      	adds	r6, r6, r2
100054d0:	f000 f9b0 	bl	10005834 <clock_get_hz>
100054d4:	4922      	ldr	r1, [pc, #136]	; (10005560 <uart_init+0x184>)
100054d6:	f001 fe1d 	bl	10007114 <__wrap___aeabi_uidiv>
100054da:	02b6      	lsls	r6, r6, #10
100054dc:	0001      	movs	r1, r0
100054de:	0030      	movs	r0, r6
100054e0:	f001 fe18 	bl	10007114 <__wrap___aeabi_uidiv>
100054e4:	2100      	movs	r1, #0
100054e6:	f7ff fc97 	bl	10004e18 <busy_wait_us>
100054ea:	e7ae      	b.n	1000544a <uart_init+0x6e>
100054ec:	0022      	movs	r2, r4
100054ee:	23c0      	movs	r3, #192	; 0xc0
100054f0:	3230      	adds	r2, #48	; 0x30
100054f2:	019b      	lsls	r3, r3, #6
100054f4:	4313      	orrs	r3, r2
100054f6:	4a16      	ldr	r2, [pc, #88]	; (10005550 <uart_init+0x174>)
100054f8:	2006      	movs	r0, #6
100054fa:	601a      	str	r2, [r3, #0]
100054fc:	6a63      	ldr	r3, [r4, #36]	; 0x24
100054fe:	6aa2      	ldr	r2, [r4, #40]	; 0x28
10005500:	019b      	lsls	r3, r3, #6
10005502:	4699      	mov	r9, r3
10005504:	4491      	add	r9, r2
10005506:	f000 f995 	bl	10005834 <clock_get_hz>
1000550a:	464b      	mov	r3, r9
1000550c:	4914      	ldr	r1, [pc, #80]	; (10005560 <uart_init+0x184>)
1000550e:	029b      	lsls	r3, r3, #10
10005510:	4699      	mov	r9, r3
10005512:	f001 fdff 	bl	10007114 <__wrap___aeabi_uidiv>
10005516:	0001      	movs	r1, r0
10005518:	4648      	mov	r0, r9
1000551a:	f001 fdfb 	bl	10007114 <__wrap___aeabi_uidiv>
1000551e:	2100      	movs	r1, #0
10005520:	f7ff fc7a 	bl	10004e18 <busy_wait_us>
10005524:	e7a6      	b.n	10005474 <uart_init+0x98>
10005526:	227f      	movs	r2, #127	; 0x7f
10005528:	0199      	lsls	r1, r3, #6
1000552a:	4688      	mov	r8, r1
1000552c:	4010      	ands	r0, r2
1000552e:	3001      	adds	r0, #1
10005530:	0840      	lsrs	r0, r0, #1
10005532:	0019      	movs	r1, r3
10005534:	4480      	add	r8, r0
10005536:	0003      	movs	r3, r0
10005538:	e782      	b.n	10005440 <uart_init+0x64>
1000553a:	46c0      	nop			; (mov r8, r8)
1000553c:	bffc8000 	.word	0xbffc8000
10005540:	4000c000 	.word	0x4000c000
10005544:	4000e000 	.word	0x4000e000
10005548:	4000f000 	.word	0x4000f000
1000554c:	20000724 	.word	0x20000724
10005550:	00000301 	.word	0x00000301
10005554:	0000fffe 	.word	0x0000fffe
10005558:	0000ffff 	.word	0x0000ffff
1000555c:	003fffc0 	.word	0x003fffc0
10005560:	00000e4e 	.word	0x00000e4e

10005564 <clocks_init>:
10005564:	b530      	push	{r4, r5, lr}
10005566:	200c      	movs	r0, #12
10005568:	b083      	sub	sp, #12
1000556a:	f000 f9b9 	bl	100058e0 <watchdog_start_tick>
1000556e:	f7fe fe71 	bl	10004254 <running_on_fpga>
10005572:	2800      	cmp	r0, #0
10005574:	d00e      	beq.n	10005594 <clocks_init+0x30>
10005576:	4b99      	ldr	r3, [pc, #612]	; (100057dc <clocks_init+0x278>)
10005578:	4a99      	ldr	r2, [pc, #612]	; (100057e0 <clocks_init+0x27c>)
1000557a:	601a      	str	r2, [r3, #0]
1000557c:	605a      	str	r2, [r3, #4]
1000557e:	609a      	str	r2, [r3, #8]
10005580:	60da      	str	r2, [r3, #12]
10005582:	611a      	str	r2, [r3, #16]
10005584:	615a      	str	r2, [r3, #20]
10005586:	619a      	str	r2, [r3, #24]
10005588:	61da      	str	r2, [r3, #28]
1000558a:	621a      	str	r2, [r3, #32]
1000558c:	4a95      	ldr	r2, [pc, #596]	; (100057e4 <clocks_init+0x280>)
1000558e:	625a      	str	r2, [r3, #36]	; 0x24
10005590:	b003      	add	sp, #12
10005592:	bd30      	pop	{r4, r5, pc}
10005594:	4c94      	ldr	r4, [pc, #592]	; (100057e8 <clocks_init+0x284>)
10005596:	67a0      	str	r0, [r4, #120]	; 0x78
10005598:	f000 f9aa 	bl	100058f0 <xosc_init>
1000559c:	2201      	movs	r2, #1
1000559e:	4b93      	ldr	r3, [pc, #588]	; (100057ec <clocks_init+0x288>)
100055a0:	601a      	str	r2, [r3, #0]
100055a2:	6c63      	ldr	r3, [r4, #68]	; 0x44
100055a4:	2b01      	cmp	r3, #1
100055a6:	d1fc      	bne.n	100055a2 <clocks_init+0x3e>
100055a8:	2203      	movs	r2, #3
100055aa:	4b91      	ldr	r3, [pc, #580]	; (100057f0 <clocks_init+0x28c>)
100055ac:	601a      	str	r2, [r3, #0]
100055ae:	4a8e      	ldr	r2, [pc, #568]	; (100057e8 <clocks_init+0x284>)
100055b0:	6b93      	ldr	r3, [r2, #56]	; 0x38
100055b2:	2b01      	cmp	r3, #1
100055b4:	d1fc      	bne.n	100055b0 <clocks_init+0x4c>
100055b6:	3301      	adds	r3, #1
100055b8:	2101      	movs	r1, #1
100055ba:	4a8e      	ldr	r2, [pc, #568]	; (100057f4 <clocks_init+0x290>)
100055bc:	488e      	ldr	r0, [pc, #568]	; (100057f8 <clocks_init+0x294>)
100055be:	9300      	str	r3, [sp, #0]
100055c0:	3304      	adds	r3, #4
100055c2:	f000 f93d 	bl	10005840 <pll_init>
100055c6:	2305      	movs	r3, #5
100055c8:	4a8c      	ldr	r2, [pc, #560]	; (100057fc <clocks_init+0x298>)
100055ca:	9300      	str	r3, [sp, #0]
100055cc:	2101      	movs	r1, #1
100055ce:	488c      	ldr	r0, [pc, #560]	; (10005800 <clocks_init+0x29c>)
100055d0:	f000 f936 	bl	10005840 <pll_init>
100055d4:	4b8b      	ldr	r3, [pc, #556]	; (10005804 <clocks_init+0x2a0>)
100055d6:	685a      	ldr	r2, [r3, #4]
100055d8:	2aff      	cmp	r2, #255	; 0xff
100055da:	d802      	bhi.n	100055e2 <clocks_init+0x7e>
100055dc:	2280      	movs	r2, #128	; 0x80
100055de:	0052      	lsls	r2, r2, #1
100055e0:	605a      	str	r2, [r3, #4]
100055e2:	2280      	movs	r2, #128	; 0x80
100055e4:	4c7d      	ldr	r4, [pc, #500]	; (100057dc <clocks_init+0x278>)
100055e6:	4b82      	ldr	r3, [pc, #520]	; (100057f0 <clocks_init+0x28c>)
100055e8:	6921      	ldr	r1, [r4, #16]
100055ea:	0112      	lsls	r2, r2, #4
100055ec:	4d85      	ldr	r5, [pc, #532]	; (10005804 <clocks_init+0x2a0>)
100055ee:	601a      	str	r2, [r3, #0]
100055f0:	2900      	cmp	r1, #0
100055f2:	d007      	beq.n	10005604 <clocks_init+0xa0>
100055f4:	6960      	ldr	r0, [r4, #20]
100055f6:	f001 fd8d 	bl	10007114 <__wrap___aeabi_uidiv>
100055fa:	1c43      	adds	r3, r0, #1
100055fc:	0058      	lsls	r0, r3, #1
100055fe:	18c0      	adds	r0, r0, r3
10005600:	3803      	subs	r0, #3
10005602:	d2fd      	bcs.n	10005600 <clocks_init+0x9c>
10005604:	21e0      	movs	r1, #224	; 0xe0
10005606:	4b7f      	ldr	r3, [pc, #508]	; (10005804 <clocks_init+0x2a0>)
10005608:	2002      	movs	r0, #2
1000560a:	681a      	ldr	r2, [r3, #0]
1000560c:	4011      	ands	r1, r2
1000560e:	2280      	movs	r2, #128	; 0x80
10005610:	0152      	lsls	r2, r2, #5
10005612:	432a      	orrs	r2, r5
10005614:	6011      	str	r1, [r2, #0]
10005616:	6819      	ldr	r1, [r3, #0]
10005618:	4048      	eors	r0, r1
1000561a:	2103      	movs	r1, #3
1000561c:	4001      	ands	r1, r0
1000561e:	6011      	str	r1, [r2, #0]
10005620:	2104      	movs	r1, #4
10005622:	689a      	ldr	r2, [r3, #8]
10005624:	4211      	tst	r1, r2
10005626:	d0fc      	beq.n	10005622 <clocks_init+0xbe>
10005628:	2280      	movs	r2, #128	; 0x80
1000562a:	2180      	movs	r1, #128	; 0x80
1000562c:	0192      	lsls	r2, r2, #6
1000562e:	432a      	orrs	r2, r5
10005630:	0109      	lsls	r1, r1, #4
10005632:	6011      	str	r1, [r2, #0]
10005634:	2280      	movs	r2, #128	; 0x80
10005636:	0052      	lsls	r2, r2, #1
10005638:	605a      	str	r2, [r3, #4]
1000563a:	4b73      	ldr	r3, [pc, #460]	; (10005808 <clocks_init+0x2a4>)
1000563c:	6123      	str	r3, [r4, #16]
1000563e:	4b73      	ldr	r3, [pc, #460]	; (1000580c <clocks_init+0x2a8>)
10005640:	6859      	ldr	r1, [r3, #4]
10005642:	29ff      	cmp	r1, #255	; 0xff
10005644:	d800      	bhi.n	10005648 <clocks_init+0xe4>
10005646:	605a      	str	r2, [r3, #4]
10005648:	2103      	movs	r1, #3
1000564a:	4a68      	ldr	r2, [pc, #416]	; (100057ec <clocks_init+0x288>)
1000564c:	4b6f      	ldr	r3, [pc, #444]	; (1000580c <clocks_init+0x2a8>)
1000564e:	6011      	str	r1, [r2, #0]
10005650:	3902      	subs	r1, #2
10005652:	689a      	ldr	r2, [r3, #8]
10005654:	4211      	tst	r1, r2
10005656:	d0fc      	beq.n	10005652 <clocks_init+0xee>
10005658:	20e0      	movs	r0, #224	; 0xe0
1000565a:	681a      	ldr	r2, [r3, #0]
1000565c:	4010      	ands	r0, r2
1000565e:	2280      	movs	r2, #128	; 0x80
10005660:	0152      	lsls	r2, r2, #5
10005662:	431a      	orrs	r2, r3
10005664:	6010      	str	r0, [r2, #0]
10005666:	6818      	ldr	r0, [r3, #0]
10005668:	4048      	eors	r0, r1
1000566a:	2103      	movs	r1, #3
1000566c:	4001      	ands	r1, r0
1000566e:	2002      	movs	r0, #2
10005670:	6011      	str	r1, [r2, #0]
10005672:	4966      	ldr	r1, [pc, #408]	; (1000580c <clocks_init+0x2a8>)
10005674:	688a      	ldr	r2, [r1, #8]
10005676:	4210      	tst	r0, r2
10005678:	d0fc      	beq.n	10005674 <clocks_init+0x110>
1000567a:	2280      	movs	r2, #128	; 0x80
1000567c:	0192      	lsls	r2, r2, #6
1000567e:	4313      	orrs	r3, r2
10005680:	2280      	movs	r2, #128	; 0x80
10005682:	0112      	lsls	r2, r2, #4
10005684:	601a      	str	r2, [r3, #0]
10005686:	2280      	movs	r2, #128	; 0x80
10005688:	4b61      	ldr	r3, [pc, #388]	; (10005810 <clocks_init+0x2ac>)
1000568a:	0052      	lsls	r2, r2, #1
1000568c:	604a      	str	r2, [r1, #4]
1000568e:	6163      	str	r3, [r4, #20]
10005690:	4b60      	ldr	r3, [pc, #384]	; (10005814 <clocks_init+0x2b0>)
10005692:	6859      	ldr	r1, [r3, #4]
10005694:	29ff      	cmp	r1, #255	; 0xff
10005696:	d800      	bhi.n	1000569a <clocks_init+0x136>
10005698:	605a      	str	r2, [r3, #4]
1000569a:	2280      	movs	r2, #128	; 0x80
1000569c:	4b5e      	ldr	r3, [pc, #376]	; (10005818 <clocks_init+0x2b4>)
1000569e:	69e1      	ldr	r1, [r4, #28]
100056a0:	0112      	lsls	r2, r2, #4
100056a2:	4d5c      	ldr	r5, [pc, #368]	; (10005814 <clocks_init+0x2b0>)
100056a4:	601a      	str	r2, [r3, #0]
100056a6:	2900      	cmp	r1, #0
100056a8:	d007      	beq.n	100056ba <clocks_init+0x156>
100056aa:	6960      	ldr	r0, [r4, #20]
100056ac:	f001 fd32 	bl	10007114 <__wrap___aeabi_uidiv>
100056b0:	1c43      	adds	r3, r0, #1
100056b2:	0058      	lsls	r0, r3, #1
100056b4:	18c0      	adds	r0, r0, r3
100056b6:	3803      	subs	r0, #3
100056b8:	d2fd      	bcs.n	100056b6 <clocks_init+0x152>
100056ba:	22e0      	movs	r2, #224	; 0xe0
100056bc:	4955      	ldr	r1, [pc, #340]	; (10005814 <clocks_init+0x2b0>)
100056be:	680b      	ldr	r3, [r1, #0]
100056c0:	401a      	ands	r2, r3
100056c2:	2380      	movs	r3, #128	; 0x80
100056c4:	015b      	lsls	r3, r3, #5
100056c6:	432b      	orrs	r3, r5
100056c8:	601a      	str	r2, [r3, #0]
100056ca:	2380      	movs	r3, #128	; 0x80
100056cc:	2280      	movs	r2, #128	; 0x80
100056ce:	019b      	lsls	r3, r3, #6
100056d0:	432b      	orrs	r3, r5
100056d2:	0112      	lsls	r2, r2, #4
100056d4:	601a      	str	r2, [r3, #0]
100056d6:	2280      	movs	r2, #128	; 0x80
100056d8:	4b41      	ldr	r3, [pc, #260]	; (100057e0 <clocks_init+0x27c>)
100056da:	0052      	lsls	r2, r2, #1
100056dc:	604a      	str	r2, [r1, #4]
100056de:	61e3      	str	r3, [r4, #28]
100056e0:	4b4e      	ldr	r3, [pc, #312]	; (1000581c <clocks_init+0x2b8>)
100056e2:	6859      	ldr	r1, [r3, #4]
100056e4:	29ff      	cmp	r1, #255	; 0xff
100056e6:	d800      	bhi.n	100056ea <clocks_init+0x186>
100056e8:	605a      	str	r2, [r3, #4]
100056ea:	2280      	movs	r2, #128	; 0x80
100056ec:	4b4c      	ldr	r3, [pc, #304]	; (10005820 <clocks_init+0x2bc>)
100056ee:	6a21      	ldr	r1, [r4, #32]
100056f0:	0112      	lsls	r2, r2, #4
100056f2:	4d4a      	ldr	r5, [pc, #296]	; (1000581c <clocks_init+0x2b8>)
100056f4:	601a      	str	r2, [r3, #0]
100056f6:	2900      	cmp	r1, #0
100056f8:	d007      	beq.n	1000570a <clocks_init+0x1a6>
100056fa:	6960      	ldr	r0, [r4, #20]
100056fc:	f001 fd0a 	bl	10007114 <__wrap___aeabi_uidiv>
10005700:	1c43      	adds	r3, r0, #1
10005702:	0058      	lsls	r0, r3, #1
10005704:	18c0      	adds	r0, r0, r3
10005706:	3803      	subs	r0, #3
10005708:	d2fd      	bcs.n	10005706 <clocks_init+0x1a2>
1000570a:	22e0      	movs	r2, #224	; 0xe0
1000570c:	4943      	ldr	r1, [pc, #268]	; (1000581c <clocks_init+0x2b8>)
1000570e:	680b      	ldr	r3, [r1, #0]
10005710:	401a      	ands	r2, r3
10005712:	2380      	movs	r3, #128	; 0x80
10005714:	015b      	lsls	r3, r3, #5
10005716:	432b      	orrs	r3, r5
10005718:	601a      	str	r2, [r3, #0]
1000571a:	2380      	movs	r3, #128	; 0x80
1000571c:	2280      	movs	r2, #128	; 0x80
1000571e:	019b      	lsls	r3, r3, #6
10005720:	432b      	orrs	r3, r5
10005722:	0112      	lsls	r2, r2, #4
10005724:	601a      	str	r2, [r3, #0]
10005726:	2380      	movs	r3, #128	; 0x80
10005728:	2280      	movs	r2, #128	; 0x80
1000572a:	005b      	lsls	r3, r3, #1
1000572c:	604b      	str	r3, [r1, #4]
1000572e:	4b2c      	ldr	r3, [pc, #176]	; (100057e0 <clocks_init+0x27c>)
10005730:	02d2      	lsls	r2, r2, #11
10005732:	6223      	str	r3, [r4, #32]
10005734:	4b3b      	ldr	r3, [pc, #236]	; (10005824 <clocks_init+0x2c0>)
10005736:	6859      	ldr	r1, [r3, #4]
10005738:	4291      	cmp	r1, r2
1000573a:	d200      	bcs.n	1000573e <clocks_init+0x1da>
1000573c:	605a      	str	r2, [r3, #4]
1000573e:	2280      	movs	r2, #128	; 0x80
10005740:	4b39      	ldr	r3, [pc, #228]	; (10005828 <clocks_init+0x2c4>)
10005742:	6a61      	ldr	r1, [r4, #36]	; 0x24
10005744:	0112      	lsls	r2, r2, #4
10005746:	4d37      	ldr	r5, [pc, #220]	; (10005824 <clocks_init+0x2c0>)
10005748:	601a      	str	r2, [r3, #0]
1000574a:	2900      	cmp	r1, #0
1000574c:	d007      	beq.n	1000575e <clocks_init+0x1fa>
1000574e:	6960      	ldr	r0, [r4, #20]
10005750:	f001 fce0 	bl	10007114 <__wrap___aeabi_uidiv>
10005754:	1c43      	adds	r3, r0, #1
10005756:	0058      	lsls	r0, r3, #1
10005758:	18c0      	adds	r0, r0, r3
1000575a:	3803      	subs	r0, #3
1000575c:	d2fd      	bcs.n	1000575a <clocks_init+0x1f6>
1000575e:	22e0      	movs	r2, #224	; 0xe0
10005760:	4930      	ldr	r1, [pc, #192]	; (10005824 <clocks_init+0x2c0>)
10005762:	680b      	ldr	r3, [r1, #0]
10005764:	401a      	ands	r2, r3
10005766:	2380      	movs	r3, #128	; 0x80
10005768:	015b      	lsls	r3, r3, #5
1000576a:	432b      	orrs	r3, r5
1000576c:	601a      	str	r2, [r3, #0]
1000576e:	2380      	movs	r3, #128	; 0x80
10005770:	2280      	movs	r2, #128	; 0x80
10005772:	019b      	lsls	r3, r3, #6
10005774:	432b      	orrs	r3, r5
10005776:	0112      	lsls	r2, r2, #4
10005778:	601a      	str	r2, [r3, #0]
1000577a:	2380      	movs	r3, #128	; 0x80
1000577c:	02db      	lsls	r3, r3, #11
1000577e:	604b      	str	r3, [r1, #4]
10005780:	4b18      	ldr	r3, [pc, #96]	; (100057e4 <clocks_init+0x280>)
10005782:	6263      	str	r3, [r4, #36]	; 0x24
10005784:	4b29      	ldr	r3, [pc, #164]	; (1000582c <clocks_init+0x2c8>)
10005786:	685a      	ldr	r2, [r3, #4]
10005788:	2aff      	cmp	r2, #255	; 0xff
1000578a:	d802      	bhi.n	10005792 <clocks_init+0x22e>
1000578c:	2280      	movs	r2, #128	; 0x80
1000578e:	0052      	lsls	r2, r2, #1
10005790:	605a      	str	r2, [r3, #4]
10005792:	2280      	movs	r2, #128	; 0x80
10005794:	4b26      	ldr	r3, [pc, #152]	; (10005830 <clocks_init+0x2cc>)
10005796:	69a1      	ldr	r1, [r4, #24]
10005798:	0112      	lsls	r2, r2, #4
1000579a:	4d24      	ldr	r5, [pc, #144]	; (1000582c <clocks_init+0x2c8>)
1000579c:	601a      	str	r2, [r3, #0]
1000579e:	2900      	cmp	r1, #0
100057a0:	d007      	beq.n	100057b2 <clocks_init+0x24e>
100057a2:	6960      	ldr	r0, [r4, #20]
100057a4:	f001 fcb6 	bl	10007114 <__wrap___aeabi_uidiv>
100057a8:	1c43      	adds	r3, r0, #1
100057aa:	0058      	lsls	r0, r3, #1
100057ac:	18c0      	adds	r0, r0, r3
100057ae:	3803      	subs	r0, #3
100057b0:	d2fd      	bcs.n	100057ae <clocks_init+0x24a>
100057b2:	22e0      	movs	r2, #224	; 0xe0
100057b4:	491d      	ldr	r1, [pc, #116]	; (1000582c <clocks_init+0x2c8>)
100057b6:	680b      	ldr	r3, [r1, #0]
100057b8:	401a      	ands	r2, r3
100057ba:	2380      	movs	r3, #128	; 0x80
100057bc:	015b      	lsls	r3, r3, #5
100057be:	432b      	orrs	r3, r5
100057c0:	601a      	str	r2, [r3, #0]
100057c2:	2380      	movs	r3, #128	; 0x80
100057c4:	2280      	movs	r2, #128	; 0x80
100057c6:	019b      	lsls	r3, r3, #6
100057c8:	432b      	orrs	r3, r5
100057ca:	0112      	lsls	r2, r2, #4
100057cc:	601a      	str	r2, [r3, #0]
100057ce:	2380      	movs	r3, #128	; 0x80
100057d0:	005b      	lsls	r3, r3, #1
100057d2:	604b      	str	r3, [r1, #4]
100057d4:	4b0e      	ldr	r3, [pc, #56]	; (10005810 <clocks_init+0x2ac>)
100057d6:	61a3      	str	r3, [r4, #24]
100057d8:	e6da      	b.n	10005590 <clocks_init+0x2c>
100057da:	46c0      	nop			; (mov r8, r8)
100057dc:	200005c8 	.word	0x200005c8
100057e0:	02dc6c00 	.word	0x02dc6c00
100057e4:	0000b71b 	.word	0x0000b71b
100057e8:	40008000 	.word	0x40008000
100057ec:	4000b03c 	.word	0x4000b03c
100057f0:	4000b030 	.word	0x4000b030
100057f4:	59682f00 	.word	0x59682f00
100057f8:	40028000 	.word	0x40028000
100057fc:	47868c00 	.word	0x47868c00
10005800:	4002c000 	.word	0x4002c000
10005804:	40008030 	.word	0x40008030
10005808:	00b71b00 	.word	0x00b71b00
1000580c:	4000803c 	.word	0x4000803c
10005810:	07735940 	.word	0x07735940
10005814:	40008054 	.word	0x40008054
10005818:	4000b054 	.word	0x4000b054
1000581c:	40008060 	.word	0x40008060
10005820:	4000b060 	.word	0x4000b060
10005824:	4000806c 	.word	0x4000806c
10005828:	4000b06c 	.word	0x4000b06c
1000582c:	40008048 	.word	0x40008048
10005830:	4000b048 	.word	0x4000b048

10005834 <clock_get_hz>:
10005834:	4b01      	ldr	r3, [pc, #4]	; (1000583c <clock_get_hz+0x8>)
10005836:	0080      	lsls	r0, r0, #2
10005838:	58c0      	ldr	r0, [r0, r3]
1000583a:	4770      	bx	lr
1000583c:	200005c8 	.word	0x200005c8

10005840 <pll_init>:
10005840:	b5f8      	push	{r3, r4, r5, r6, r7, lr}
10005842:	0004      	movs	r4, r0
10005844:	4821      	ldr	r0, [pc, #132]	; (100058cc <pll_init+0x8c>)
10005846:	001d      	movs	r5, r3
10005848:	0017      	movs	r7, r2
1000584a:	000e      	movs	r6, r1
1000584c:	f001 fc62 	bl	10007114 <__wrap___aeabi_uidiv>
10005850:	0001      	movs	r1, r0
10005852:	0038      	movs	r0, r7
10005854:	f001 fc5e 	bl	10007114 <__wrap___aeabi_uidiv>
10005858:	9b06      	ldr	r3, [sp, #24]
1000585a:	0429      	lsls	r1, r5, #16
1000585c:	031b      	lsls	r3, r3, #12
1000585e:	4319      	orrs	r1, r3
10005860:	6823      	ldr	r3, [r4, #0]
10005862:	2b00      	cmp	r3, #0
10005864:	db20      	blt.n	100058a8 <pll_init+0x68>
10005866:	4b1a      	ldr	r3, [pc, #104]	; (100058d0 <pll_init+0x90>)
10005868:	4d1a      	ldr	r5, [pc, #104]	; (100058d4 <pll_init+0x94>)
1000586a:	18e2      	adds	r2, r4, r3
1000586c:	4253      	negs	r3, r2
1000586e:	415a      	adcs	r2, r3
10005870:	2380      	movs	r3, #128	; 0x80
10005872:	015b      	lsls	r3, r3, #5
10005874:	469c      	mov	ip, r3
10005876:	0312      	lsls	r2, r2, #12
10005878:	4b17      	ldr	r3, [pc, #92]	; (100058d8 <pll_init+0x98>)
1000587a:	4462      	add	r2, ip
1000587c:	601a      	str	r2, [r3, #0]
1000587e:	4b17      	ldr	r3, [pc, #92]	; (100058dc <pll_init+0x9c>)
10005880:	601a      	str	r2, [r3, #0]
10005882:	0017      	movs	r7, r2
10005884:	68ab      	ldr	r3, [r5, #8]
10005886:	439f      	bics	r7, r3
10005888:	d1fb      	bne.n	10005882 <pll_init+0x42>
1000588a:	22c0      	movs	r2, #192	; 0xc0
1000588c:	1d23      	adds	r3, r4, #4
1000588e:	0192      	lsls	r2, r2, #6
10005890:	431a      	orrs	r2, r3
10005892:	2321      	movs	r3, #33	; 0x21
10005894:	6026      	str	r6, [r4, #0]
10005896:	60a0      	str	r0, [r4, #8]
10005898:	6013      	str	r3, [r2, #0]
1000589a:	6823      	ldr	r3, [r4, #0]
1000589c:	2b00      	cmp	r3, #0
1000589e:	dafc      	bge.n	1000589a <pll_init+0x5a>
100058a0:	2308      	movs	r3, #8
100058a2:	60e1      	str	r1, [r4, #12]
100058a4:	6013      	str	r3, [r2, #0]
100058a6:	bdf8      	pop	{r3, r4, r5, r6, r7, pc}
100058a8:	233f      	movs	r3, #63	; 0x3f
100058aa:	6822      	ldr	r2, [r4, #0]
100058ac:	4013      	ands	r3, r2
100058ae:	42b3      	cmp	r3, r6
100058b0:	d1d9      	bne.n	10005866 <pll_init+0x26>
100058b2:	68a3      	ldr	r3, [r4, #8]
100058b4:	051b      	lsls	r3, r3, #20
100058b6:	0d1b      	lsrs	r3, r3, #20
100058b8:	4283      	cmp	r3, r0
100058ba:	d1d4      	bne.n	10005866 <pll_init+0x26>
100058bc:	22ee      	movs	r2, #238	; 0xee
100058be:	68e3      	ldr	r3, [r4, #12]
100058c0:	02d2      	lsls	r2, r2, #11
100058c2:	4013      	ands	r3, r2
100058c4:	428b      	cmp	r3, r1
100058c6:	d1ce      	bne.n	10005866 <pll_init+0x26>
100058c8:	e7ed      	b.n	100058a6 <pll_init+0x66>
100058ca:	46c0      	nop			; (mov r8, r8)
100058cc:	00b71b00 	.word	0x00b71b00
100058d0:	bffd4000 	.word	0xbffd4000
100058d4:	4000c000 	.word	0x4000c000
100058d8:	4000e000 	.word	0x4000e000
100058dc:	4000f000 	.word	0x4000f000

100058e0 <watchdog_start_tick>:
100058e0:	2380      	movs	r3, #128	; 0x80
100058e2:	4a02      	ldr	r2, [pc, #8]	; (100058ec <watchdog_start_tick+0xc>)
100058e4:	009b      	lsls	r3, r3, #2
100058e6:	4303      	orrs	r3, r0
100058e8:	62d3      	str	r3, [r2, #44]	; 0x2c
100058ea:	4770      	bx	lr
100058ec:	40058000 	.word	0x40058000

100058f0 <xosc_init>:
100058f0:	23aa      	movs	r3, #170	; 0xaa
100058f2:	4a06      	ldr	r2, [pc, #24]	; (1000590c <xosc_init+0x1c>)
100058f4:	011b      	lsls	r3, r3, #4
100058f6:	6013      	str	r3, [r2, #0]
100058f8:	232f      	movs	r3, #47	; 0x2f
100058fa:	4905      	ldr	r1, [pc, #20]	; (10005910 <xosc_init+0x20>)
100058fc:	60d3      	str	r3, [r2, #12]
100058fe:	4b05      	ldr	r3, [pc, #20]	; (10005914 <xosc_init+0x24>)
10005900:	6019      	str	r1, [r3, #0]
10005902:	6853      	ldr	r3, [r2, #4]
10005904:	2b00      	cmp	r3, #0
10005906:	dafc      	bge.n	10005902 <xosc_init+0x12>
10005908:	4770      	bx	lr
1000590a:	46c0      	nop			; (mov r8, r8)
1000590c:	40024000 	.word	0x40024000
10005910:	00fab000 	.word	0x00fab000
10005914:	40026000 	.word	0x40026000

10005918 <runtime_init>:
10005918:	4b2c      	ldr	r3, [pc, #176]	; (100059cc <runtime_init+0xb4>)
1000591a:	4a2d      	ldr	r2, [pc, #180]	; (100059d0 <runtime_init+0xb8>)
1000591c:	b570      	push	{r4, r5, r6, lr}
1000591e:	601a      	str	r2, [r3, #0]
10005920:	4a2c      	ldr	r2, [pc, #176]	; (100059d4 <runtime_init+0xbc>)
10005922:	4b2d      	ldr	r3, [pc, #180]	; (100059d8 <runtime_init+0xc0>)
10005924:	492d      	ldr	r1, [pc, #180]	; (100059dc <runtime_init+0xc4>)
10005926:	601a      	str	r2, [r3, #0]
10005928:	0014      	movs	r4, r2
1000592a:	688b      	ldr	r3, [r1, #8]
1000592c:	439c      	bics	r4, r3
1000592e:	d1fb      	bne.n	10005928 <runtime_init+0x10>
10005930:	4d2b      	ldr	r5, [pc, #172]	; (100059e0 <runtime_init+0xc8>)
10005932:	4e2c      	ldr	r6, [pc, #176]	; (100059e4 <runtime_init+0xcc>)
10005934:	42b5      	cmp	r5, r6
10005936:	d208      	bcs.n	1000594a <runtime_init+0x32>
10005938:	3e01      	subs	r6, #1
1000593a:	1b76      	subs	r6, r6, r5
1000593c:	08b6      	lsrs	r6, r6, #2
1000593e:	cd08      	ldmia	r5!, {r3}
10005940:	4798      	blx	r3
10005942:	0023      	movs	r3, r4
10005944:	3401      	adds	r4, #1
10005946:	42b3      	cmp	r3, r6
10005948:	d1f9      	bne.n	1000593e <runtime_init+0x26>
1000594a:	f7ff fe0b 	bl	10005564 <clocks_init>
1000594e:	4a26      	ldr	r2, [pc, #152]	; (100059e8 <runtime_init+0xd0>)
10005950:	4b21      	ldr	r3, [pc, #132]	; (100059d8 <runtime_init+0xc0>)
10005952:	601a      	str	r2, [r3, #0]
10005954:	4a21      	ldr	r2, [pc, #132]	; (100059dc <runtime_init+0xc4>)
10005956:	6893      	ldr	r3, [r2, #8]
10005958:	43db      	mvns	r3, r3
1000595a:	01db      	lsls	r3, r3, #7
1000595c:	09dd      	lsrs	r5, r3, #7
1000595e:	2b00      	cmp	r3, #0
10005960:	d1f9      	bne.n	10005956 <runtime_init+0x3e>
10005962:	2240      	movs	r2, #64	; 0x40
10005964:	4b21      	ldr	r3, [pc, #132]	; (100059ec <runtime_init+0xd4>)
10005966:	4c22      	ldr	r4, [pc, #136]	; (100059f0 <runtime_init+0xd8>)
10005968:	4e22      	ldr	r6, [pc, #136]	; (100059f4 <runtime_init+0xdc>)
1000596a:	679a      	str	r2, [r3, #120]	; 0x78
1000596c:	675a      	str	r2, [r3, #116]	; 0x74
1000596e:	671a      	str	r2, [r3, #112]	; 0x70
10005970:	66da      	str	r2, [r3, #108]	; 0x6c
10005972:	42b4      	cmp	r4, r6
10005974:	d208      	bcs.n	10005988 <runtime_init+0x70>
10005976:	6823      	ldr	r3, [r4, #0]
10005978:	0020      	movs	r0, r4
1000597a:	2b00      	cmp	r3, #0
1000597c:	d020      	beq.n	100059c0 <runtime_init+0xa8>
1000597e:	3408      	adds	r4, #8
10005980:	f7fe fe60 	bl	10004644 <recursive_mutex_init>
10005984:	42b4      	cmp	r4, r6
10005986:	d3f6      	bcc.n	10005976 <runtime_init+0x5e>
10005988:	4e1b      	ldr	r6, [pc, #108]	; (100059f8 <runtime_init+0xe0>)
1000598a:	4c1c      	ldr	r4, [pc, #112]	; (100059fc <runtime_init+0xe4>)
1000598c:	22c0      	movs	r2, #192	; 0xc0
1000598e:	68a1      	ldr	r1, [r4, #8]
10005990:	0030      	movs	r0, r6
10005992:	f002 faff 	bl	10007f94 <__wrap___aeabi_memcpy>
10005996:	60a6      	str	r6, [r4, #8]
10005998:	f7fe fc9c 	bl	100042d4 <spin_locks_reset>
1000599c:	f7fe fe2a 	bl	100045f4 <irq_init_priorities>
100059a0:	f7fe ffee 	bl	10004980 <alarm_pool_init_default>
100059a4:	4c16      	ldr	r4, [pc, #88]	; (10005a00 <runtime_init+0xe8>)
100059a6:	4e17      	ldr	r6, [pc, #92]	; (10005a04 <runtime_init+0xec>)
100059a8:	42b4      	cmp	r4, r6
100059aa:	d208      	bcs.n	100059be <runtime_init+0xa6>
100059ac:	3e01      	subs	r6, #1
100059ae:	1b36      	subs	r6, r6, r4
100059b0:	08b6      	lsrs	r6, r6, #2
100059b2:	cc08      	ldmia	r4!, {r3}
100059b4:	4798      	blx	r3
100059b6:	002b      	movs	r3, r5
100059b8:	3501      	adds	r5, #1
100059ba:	429e      	cmp	r6, r3
100059bc:	d1f9      	bne.n	100059b2 <runtime_init+0x9a>
100059be:	bd70      	pop	{r4, r5, r6, pc}
100059c0:	3408      	adds	r4, #8
100059c2:	f7fe fe31 	bl	10004628 <mutex_init>
100059c6:	42b4      	cmp	r4, r6
100059c8:	d3d5      	bcc.n	10005976 <runtime_init+0x5e>
100059ca:	e7dd      	b.n	10005988 <runtime_init+0x70>
100059cc:	4000e000 	.word	0x4000e000
100059d0:	fefbcdbf 	.word	0xfefbcdbf
100059d4:	003c7ffe 	.word	0x003c7ffe
100059d8:	4000f000 	.word	0x4000f000
100059dc:	4000c000 	.word	0x4000c000
100059e0:	20000260 	.word	0x20000260
100059e4:	20000270 	.word	0x20000270
100059e8:	01ffffff 	.word	0x01ffffff
100059ec:	4001f000 	.word	0x4001f000
100059f0:	20000258 	.word	0x20000258
100059f4:	20000260 	.word	0x20000260
100059f8:	20000000 	.word	0x20000000
100059fc:	e000ed00 	.word	0xe000ed00
10005a00:	20000270 	.word	0x20000270
10005a04:	20000278 	.word	0x20000278

10005a08 <_exit>:
10005a08:	be00      	bkpt	0x0000
10005a0a:	e7fd      	b.n	10005a08 <_exit>

10005a0c <exit>:
10005a0c:	b510      	push	{r4, lr}
10005a0e:	f7ff fffb 	bl	10005a08 <_exit>
10005a12:	46c0      	nop			; (mov r8, r8)

10005a14 <panic>:
10005a14:	b40f      	push	{r0, r1, r2, r3}
10005a16:	b500      	push	{lr}
10005a18:	4808      	ldr	r0, [pc, #32]	; (10005a3c <panic+0x28>)
10005a1a:	b083      	sub	sp, #12
10005a1c:	f002 fc1e 	bl	1000825c <__wrap_puts>
10005a20:	9b04      	ldr	r3, [sp, #16]
10005a22:	2b00      	cmp	r3, #0
10005a24:	d007      	beq.n	10005a36 <panic+0x22>
10005a26:	a905      	add	r1, sp, #20
10005a28:	0018      	movs	r0, r3
10005a2a:	9101      	str	r1, [sp, #4]
10005a2c:	f001 faf2 	bl	10007014 <weak_raw_vprintf>
10005a30:	4803      	ldr	r0, [pc, #12]	; (10005a40 <panic+0x2c>)
10005a32:	f002 fc13 	bl	1000825c <__wrap_puts>
10005a36:	2001      	movs	r0, #1
10005a38:	f7ff ffe6 	bl	10005a08 <_exit>
10005a3c:	10008fd4 	.word	0x10008fd4
10005a40:	10008fe4 	.word	0x10008fe4

10005a44 <hard_assertion_failure>:
10005a44:	b510      	push	{r4, lr}
10005a46:	4801      	ldr	r0, [pc, #4]	; (10005a4c <hard_assertion_failure+0x8>)
10005a48:	f7ff ffe4 	bl	10005a14 <panic>
10005a4c:	10008fe8 	.word	0x10008fe8

10005a50 <_out_buffer>:
10005a50:	429a      	cmp	r2, r3
10005a52:	d200      	bcs.n	10005a56 <_out_buffer+0x6>
10005a54:	5488      	strb	r0, [r1, r2]
10005a56:	4770      	bx	lr

10005a58 <_out_null>:
10005a58:	4770      	bx	lr
10005a5a:	46c0      	nop			; (mov r8, r8)

10005a5c <_out_rev>:
10005a5c:	b5f8      	push	{r3, r4, r5, r6, r7, lr}
10005a5e:	4657      	mov	r7, sl
10005a60:	464e      	mov	r6, r9
10005a62:	4645      	mov	r5, r8
10005a64:	46de      	mov	lr, fp
10005a66:	b5e0      	push	{r5, r6, r7, lr}
10005a68:	4699      	mov	r9, r3
10005a6a:	9b0a      	ldr	r3, [sp, #40]	; 0x28
10005a6c:	0007      	movs	r7, r0
10005a6e:	469a      	mov	sl, r3
10005a70:	9b0d      	ldr	r3, [sp, #52]	; 0x34
10005a72:	4688      	mov	r8, r1
10005a74:	4693      	mov	fp, r2
10005a76:	0015      	movs	r5, r2
10005a78:	9e0b      	ldr	r6, [sp, #44]	; 0x2c
10005a7a:	079b      	lsls	r3, r3, #30
10005a7c:	d110      	bne.n	10005aa0 <_out_rev+0x44>
10005a7e:	9b0c      	ldr	r3, [sp, #48]	; 0x30
10005a80:	429e      	cmp	r6, r3
10005a82:	d20d      	bcs.n	10005aa0 <_out_rev+0x44>
10005a84:	1b9d      	subs	r5, r3, r6
10005a86:	0014      	movs	r4, r2
10005a88:	000e      	movs	r6, r1
10005a8a:	445d      	add	r5, fp
10005a8c:	0022      	movs	r2, r4
10005a8e:	464b      	mov	r3, r9
10005a90:	3401      	adds	r4, #1
10005a92:	0031      	movs	r1, r6
10005a94:	2020      	movs	r0, #32
10005a96:	47b8      	blx	r7
10005a98:	42a5      	cmp	r5, r4
10005a9a:	d1f7      	bne.n	10005a8c <_out_rev+0x30>
10005a9c:	46b0      	mov	r8, r6
10005a9e:	9e0b      	ldr	r6, [sp, #44]	; 0x2c
10005aa0:	2e00      	cmp	r6, #0
10005aa2:	d027      	beq.n	10005af4 <_out_rev+0x98>
10005aa4:	4644      	mov	r4, r8
10005aa6:	1975      	adds	r5, r6, r5
10005aa8:	4653      	mov	r3, sl
10005aaa:	1baa      	subs	r2, r5, r6
10005aac:	3e01      	subs	r6, #1
10005aae:	5d98      	ldrb	r0, [r3, r6]
10005ab0:	0021      	movs	r1, r4
10005ab2:	464b      	mov	r3, r9
10005ab4:	47b8      	blx	r7
10005ab6:	2e00      	cmp	r6, #0
10005ab8:	d1f6      	bne.n	10005aa8 <_out_rev+0x4c>
10005aba:	0023      	movs	r3, r4
10005abc:	002c      	movs	r4, r5
10005abe:	4698      	mov	r8, r3
10005ac0:	9b0d      	ldr	r3, [sp, #52]	; 0x34
10005ac2:	079b      	lsls	r3, r3, #30
10005ac4:	d50f      	bpl.n	10005ae6 <_out_rev+0x8a>
10005ac6:	465b      	mov	r3, fp
10005ac8:	1ae5      	subs	r5, r4, r3
10005aca:	9b0c      	ldr	r3, [sp, #48]	; 0x30
10005acc:	42ab      	cmp	r3, r5
10005ace:	d90a      	bls.n	10005ae6 <_out_rev+0x8a>
10005ad0:	4646      	mov	r6, r8
10005ad2:	4698      	mov	r8, r3
10005ad4:	0022      	movs	r2, r4
10005ad6:	464b      	mov	r3, r9
10005ad8:	0031      	movs	r1, r6
10005ada:	2020      	movs	r0, #32
10005adc:	3501      	adds	r5, #1
10005ade:	47b8      	blx	r7
10005ae0:	3401      	adds	r4, #1
10005ae2:	45a8      	cmp	r8, r5
10005ae4:	d8f6      	bhi.n	10005ad4 <_out_rev+0x78>
10005ae6:	0020      	movs	r0, r4
10005ae8:	bcf0      	pop	{r4, r5, r6, r7}
10005aea:	46bb      	mov	fp, r7
10005aec:	46b2      	mov	sl, r6
10005aee:	46a9      	mov	r9, r5
10005af0:	46a0      	mov	r8, r4
10005af2:	bdf8      	pop	{r3, r4, r5, r6, r7, pc}
10005af4:	002c      	movs	r4, r5
10005af6:	e7e3      	b.n	10005ac0 <_out_rev+0x64>

10005af8 <_ntoa_format>:
10005af8:	b5f0      	push	{r4, r5, r6, r7, lr}
10005afa:	464f      	mov	r7, r9
10005afc:	4646      	mov	r6, r8
10005afe:	46d6      	mov	lr, sl
10005b00:	b5c0      	push	{r6, r7, lr}
10005b02:	b084      	sub	sp, #16
10005b04:	4698      	mov	r8, r3
10005b06:	ab0e      	add	r3, sp, #56	; 0x38
10005b08:	781b      	ldrb	r3, [r3, #0]
10005b0a:	9f12      	ldr	r7, [sp, #72]	; 0x48
10005b0c:	4699      	mov	r9, r3
10005b0e:	4694      	mov	ip, r2
10005b10:	9c0d      	ldr	r4, [sp, #52]	; 0x34
10005b12:	9b10      	ldr	r3, [sp, #64]	; 0x40
10005b14:	9e11      	ldr	r6, [sp, #68]	; 0x44
10005b16:	07ba      	lsls	r2, r7, #30
10005b18:	d425      	bmi.n	10005b66 <_ntoa_format+0x6e>
10005b1a:	2e00      	cmp	r6, #0
10005b1c:	d14b      	bne.n	10005bb6 <_ntoa_format+0xbe>
10005b1e:	429c      	cmp	r4, r3
10005b20:	d300      	bcc.n	10005b24 <_ntoa_format+0x2c>
10005b22:	e0bf      	b.n	10005ca4 <_ntoa_format+0x1ac>
10005b24:	2201      	movs	r2, #1
10005b26:	403a      	ands	r2, r7
10005b28:	4692      	mov	sl, r2
10005b2a:	2c1f      	cmp	r4, #31
10005b2c:	d900      	bls.n	10005b30 <_ntoa_format+0x38>
10005b2e:	e0b8      	b.n	10005ca2 <_ntoa_format+0x1aa>
10005b30:	9a0c      	ldr	r2, [sp, #48]	; 0x30
10005b32:	1e55      	subs	r5, r2, #1
10005b34:	2230      	movs	r2, #48	; 0x30
10005b36:	e001      	b.n	10005b3c <_ntoa_format+0x44>
10005b38:	2c20      	cmp	r4, #32
10005b3a:	d003      	beq.n	10005b44 <_ntoa_format+0x4c>
10005b3c:	3401      	adds	r4, #1
10005b3e:	552a      	strb	r2, [r5, r4]
10005b40:	42a3      	cmp	r3, r4
10005b42:	d8f9      	bhi.n	10005b38 <_ntoa_format+0x40>
10005b44:	4652      	mov	r2, sl
10005b46:	2a00      	cmp	r2, #0
10005b48:	d00d      	beq.n	10005b66 <_ntoa_format+0x6e>
10005b4a:	42a6      	cmp	r6, r4
10005b4c:	d90b      	bls.n	10005b66 <_ntoa_format+0x6e>
10005b4e:	2c20      	cmp	r4, #32
10005b50:	d044      	beq.n	10005bdc <_ntoa_format+0xe4>
10005b52:	9a0c      	ldr	r2, [sp, #48]	; 0x30
10005b54:	1e55      	subs	r5, r2, #1
10005b56:	2230      	movs	r2, #48	; 0x30
10005b58:	e001      	b.n	10005b5e <_ntoa_format+0x66>
10005b5a:	2c20      	cmp	r4, #32
10005b5c:	d03e      	beq.n	10005bdc <_ntoa_format+0xe4>
10005b5e:	3401      	adds	r4, #1
10005b60:	552a      	strb	r2, [r5, r4]
10005b62:	42b4      	cmp	r4, r6
10005b64:	d1f9      	bne.n	10005b5a <_ntoa_format+0x62>
10005b66:	06fa      	lsls	r2, r7, #27
10005b68:	d54d      	bpl.n	10005c06 <_ntoa_format+0x10e>
10005b6a:	057a      	lsls	r2, r7, #21
10005b6c:	d43f      	bmi.n	10005bee <_ntoa_format+0xf6>
10005b6e:	2c00      	cmp	r4, #0
10005b70:	d139      	bne.n	10005be6 <_ntoa_format+0xee>
10005b72:	9b0f      	ldr	r3, [sp, #60]	; 0x3c
10005b74:	2b10      	cmp	r3, #16
10005b76:	d100      	bne.n	10005b7a <_ntoa_format+0x82>
10005b78:	e079      	b.n	10005c6e <_ntoa_format+0x176>
10005b7a:	9b0f      	ldr	r3, [sp, #60]	; 0x3c
10005b7c:	2b02      	cmp	r3, #2
10005b7e:	d100      	bne.n	10005b82 <_ntoa_format+0x8a>
10005b80:	e08a      	b.n	10005c98 <_ntoa_format+0x1a0>
10005b82:	2330      	movs	r3, #48	; 0x30
10005b84:	9a0c      	ldr	r2, [sp, #48]	; 0x30
10005b86:	2401      	movs	r4, #1
10005b88:	7013      	strb	r3, [r2, #0]
10005b8a:	464b      	mov	r3, r9
10005b8c:	2b00      	cmp	r3, #0
10005b8e:	d03f      	beq.n	10005c10 <_ntoa_format+0x118>
10005b90:	232d      	movs	r3, #45	; 0x2d
10005b92:	9a0c      	ldr	r2, [sp, #48]	; 0x30
10005b94:	5513      	strb	r3, [r2, r4]
10005b96:	3401      	adds	r4, #1
10005b98:	9b0c      	ldr	r3, [sp, #48]	; 0x30
10005b9a:	4662      	mov	r2, ip
10005b9c:	9300      	str	r3, [sp, #0]
10005b9e:	9703      	str	r7, [sp, #12]
10005ba0:	4643      	mov	r3, r8
10005ba2:	9602      	str	r6, [sp, #8]
10005ba4:	9401      	str	r4, [sp, #4]
10005ba6:	f7ff ff59 	bl	10005a5c <_out_rev>
10005baa:	b004      	add	sp, #16
10005bac:	bce0      	pop	{r5, r6, r7}
10005bae:	46ba      	mov	sl, r7
10005bb0:	46b1      	mov	r9, r6
10005bb2:	46a8      	mov	r8, r5
10005bb4:	bdf0      	pop	{r4, r5, r6, r7, pc}
10005bb6:	2201      	movs	r2, #1
10005bb8:	0015      	movs	r5, r2
10005bba:	403d      	ands	r5, r7
10005bbc:	46aa      	mov	sl, r5
10005bbe:	423a      	tst	r2, r7
10005bc0:	d02f      	beq.n	10005c22 <_ntoa_format+0x12a>
10005bc2:	464a      	mov	r2, r9
10005bc4:	2a00      	cmp	r2, #0
10005bc6:	d102      	bne.n	10005bce <_ntoa_format+0xd6>
10005bc8:	320c      	adds	r2, #12
10005bca:	423a      	tst	r2, r7
10005bcc:	d000      	beq.n	10005bd0 <_ntoa_format+0xd8>
10005bce:	3e01      	subs	r6, #1
10005bd0:	429c      	cmp	r4, r3
10005bd2:	d2ba      	bcs.n	10005b4a <_ntoa_format+0x52>
10005bd4:	2c1f      	cmp	r4, #31
10005bd6:	d9ab      	bls.n	10005b30 <_ntoa_format+0x38>
10005bd8:	2e20      	cmp	r6, #32
10005bda:	d927      	bls.n	10005c2c <_ntoa_format+0x134>
10005bdc:	2420      	movs	r4, #32
10005bde:	06fa      	lsls	r2, r7, #27
10005be0:	d5da      	bpl.n	10005b98 <_ntoa_format+0xa0>
10005be2:	057a      	lsls	r2, r7, #21
10005be4:	d403      	bmi.n	10005bee <_ntoa_format+0xf6>
10005be6:	42a3      	cmp	r3, r4
10005be8:	d02d      	beq.n	10005c46 <_ntoa_format+0x14e>
10005bea:	42a6      	cmp	r6, r4
10005bec:	d02b      	beq.n	10005c46 <_ntoa_format+0x14e>
10005bee:	9b0f      	ldr	r3, [sp, #60]	; 0x3c
10005bf0:	2b10      	cmp	r3, #16
10005bf2:	d032      	beq.n	10005c5a <_ntoa_format+0x162>
10005bf4:	2b02      	cmp	r3, #2
10005bf6:	d020      	beq.n	10005c3a <_ntoa_format+0x142>
10005bf8:	2c20      	cmp	r4, #32
10005bfa:	d0cd      	beq.n	10005b98 <_ntoa_format+0xa0>
10005bfc:	2230      	movs	r2, #48	; 0x30
10005bfe:	9b0c      	ldr	r3, [sp, #48]	; 0x30
10005c00:	191b      	adds	r3, r3, r4
10005c02:	701a      	strb	r2, [r3, #0]
10005c04:	3401      	adds	r4, #1
10005c06:	2c20      	cmp	r4, #32
10005c08:	d0c6      	beq.n	10005b98 <_ntoa_format+0xa0>
10005c0a:	464b      	mov	r3, r9
10005c0c:	2b00      	cmp	r3, #0
10005c0e:	d1bf      	bne.n	10005b90 <_ntoa_format+0x98>
10005c10:	077b      	lsls	r3, r7, #29
10005c12:	d40d      	bmi.n	10005c30 <_ntoa_format+0x138>
10005c14:	073b      	lsls	r3, r7, #28
10005c16:	d5bf      	bpl.n	10005b98 <_ntoa_format+0xa0>
10005c18:	2320      	movs	r3, #32
10005c1a:	9a0c      	ldr	r2, [sp, #48]	; 0x30
10005c1c:	5513      	strb	r3, [r2, r4]
10005c1e:	3401      	adds	r4, #1
10005c20:	e7ba      	b.n	10005b98 <_ntoa_format+0xa0>
10005c22:	429c      	cmp	r4, r3
10005c24:	d29f      	bcs.n	10005b66 <_ntoa_format+0x6e>
10005c26:	2c1f      	cmp	r4, #31
10005c28:	d800      	bhi.n	10005c2c <_ntoa_format+0x134>
10005c2a:	e781      	b.n	10005b30 <_ntoa_format+0x38>
10005c2c:	2420      	movs	r4, #32
10005c2e:	e79a      	b.n	10005b66 <_ntoa_format+0x6e>
10005c30:	232b      	movs	r3, #43	; 0x2b
10005c32:	9a0c      	ldr	r2, [sp, #48]	; 0x30
10005c34:	5513      	strb	r3, [r2, r4]
10005c36:	3401      	adds	r4, #1
10005c38:	e7ae      	b.n	10005b98 <_ntoa_format+0xa0>
10005c3a:	2c20      	cmp	r4, #32
10005c3c:	d0ac      	beq.n	10005b98 <_ntoa_format+0xa0>
10005c3e:	9b0c      	ldr	r3, [sp, #48]	; 0x30
10005c40:	191b      	adds	r3, r3, r4
10005c42:	3401      	adds	r4, #1
10005c44:	e03a      	b.n	10005cbc <_ntoa_format+0x1c4>
10005c46:	1e63      	subs	r3, r4, #1
10005c48:	2c01      	cmp	r4, #1
10005c4a:	d092      	beq.n	10005b72 <_ntoa_format+0x7a>
10005c4c:	9a0f      	ldr	r2, [sp, #60]	; 0x3c
10005c4e:	2a10      	cmp	r2, #16
10005c50:	d02a      	beq.n	10005ca8 <_ntoa_format+0x1b0>
10005c52:	2a02      	cmp	r2, #2
10005c54:	d02f      	beq.n	10005cb6 <_ntoa_format+0x1be>
10005c56:	001c      	movs	r4, r3
10005c58:	e7d0      	b.n	10005bfc <_ntoa_format+0x104>
10005c5a:	06bb      	lsls	r3, r7, #26
10005c5c:	d40e      	bmi.n	10005c7c <_ntoa_format+0x184>
10005c5e:	2c20      	cmp	r4, #32
10005c60:	d09a      	beq.n	10005b98 <_ntoa_format+0xa0>
10005c62:	9b0c      	ldr	r3, [sp, #48]	; 0x30
10005c64:	191a      	adds	r2, r3, r4
10005c66:	3401      	adds	r4, #1
10005c68:	2378      	movs	r3, #120	; 0x78
10005c6a:	7013      	strb	r3, [r2, #0]
10005c6c:	e7c4      	b.n	10005bf8 <_ntoa_format+0x100>
10005c6e:	06bb      	lsls	r3, r7, #26
10005c70:	d40d      	bmi.n	10005c8e <_ntoa_format+0x196>
10005c72:	2378      	movs	r3, #120	; 0x78
10005c74:	9a0c      	ldr	r2, [sp, #48]	; 0x30
10005c76:	2401      	movs	r4, #1
10005c78:	7013      	strb	r3, [r2, #0]
10005c7a:	e7bf      	b.n	10005bfc <_ntoa_format+0x104>
10005c7c:	2c20      	cmp	r4, #32
10005c7e:	d100      	bne.n	10005c82 <_ntoa_format+0x18a>
10005c80:	e78a      	b.n	10005b98 <_ntoa_format+0xa0>
10005c82:	2258      	movs	r2, #88	; 0x58
10005c84:	9b0c      	ldr	r3, [sp, #48]	; 0x30
10005c86:	191b      	adds	r3, r3, r4
10005c88:	701a      	strb	r2, [r3, #0]
10005c8a:	3401      	adds	r4, #1
10005c8c:	e7b4      	b.n	10005bf8 <_ntoa_format+0x100>
10005c8e:	2358      	movs	r3, #88	; 0x58
10005c90:	9a0c      	ldr	r2, [sp, #48]	; 0x30
10005c92:	2401      	movs	r4, #1
10005c94:	7013      	strb	r3, [r2, #0]
10005c96:	e7b1      	b.n	10005bfc <_ntoa_format+0x104>
10005c98:	9a0c      	ldr	r2, [sp, #48]	; 0x30
10005c9a:	3360      	adds	r3, #96	; 0x60
10005c9c:	2401      	movs	r4, #1
10005c9e:	7013      	strb	r3, [r2, #0]
10005ca0:	e7ac      	b.n	10005bfc <_ntoa_format+0x104>
10005ca2:	2420      	movs	r4, #32
10005ca4:	2600      	movs	r6, #0
10005ca6:	e75e      	b.n	10005b66 <_ntoa_format+0x6e>
10005ca8:	3c02      	subs	r4, #2
10005caa:	06ba      	lsls	r2, r7, #26
10005cac:	d4e9      	bmi.n	10005c82 <_ntoa_format+0x18a>
10005cae:	9a0c      	ldr	r2, [sp, #48]	; 0x30
10005cb0:	1912      	adds	r2, r2, r4
10005cb2:	001c      	movs	r4, r3
10005cb4:	e7d8      	b.n	10005c68 <_ntoa_format+0x170>
10005cb6:	9a0c      	ldr	r2, [sp, #48]	; 0x30
10005cb8:	4692      	mov	sl, r2
10005cba:	4453      	add	r3, sl
10005cbc:	2262      	movs	r2, #98	; 0x62
10005cbe:	701a      	strb	r2, [r3, #0]
10005cc0:	e79a      	b.n	10005bf8 <_ntoa_format+0x100>
10005cc2:	46c0      	nop			; (mov r8, r8)

10005cc4 <_out_char>:
10005cc4:	b510      	push	{r4, lr}
10005cc6:	2800      	cmp	r0, #0
10005cc8:	d100      	bne.n	10005ccc <_out_char+0x8>
10005cca:	bd10      	pop	{r4, pc}
10005ccc:	f002 fa7a 	bl	100081c4 <__wrap_putchar>
10005cd0:	e7fb      	b.n	10005cca <_out_char+0x6>
10005cd2:	46c0      	nop			; (mov r8, r8)

10005cd4 <_out_fct>:
10005cd4:	000b      	movs	r3, r1
10005cd6:	b510      	push	{r4, lr}
10005cd8:	2800      	cmp	r0, #0
10005cda:	d002      	beq.n	10005ce2 <_out_fct+0xe>
10005cdc:	6849      	ldr	r1, [r1, #4]
10005cde:	681b      	ldr	r3, [r3, #0]
10005ce0:	4798      	blx	r3
10005ce2:	bd10      	pop	{r4, pc}

10005ce4 <_etoa>:
10005ce4:	b5f0      	push	{r4, r5, r6, r7, lr}
10005ce6:	46de      	mov	lr, fp
10005ce8:	4657      	mov	r7, sl
10005cea:	464e      	mov	r6, r9
10005cec:	4645      	mov	r5, r8
10005cee:	b5e0      	push	{r5, r6, r7, lr}
10005cf0:	b09b      	sub	sp, #108	; 0x6c
10005cf2:	469b      	mov	fp, r3
10005cf4:	9b24      	ldr	r3, [sp, #144]	; 0x90
10005cf6:	4689      	mov	r9, r1
10005cf8:	4698      	mov	r8, r3
10005cfa:	9b25      	ldr	r3, [sp, #148]	; 0x94
10005cfc:	900b      	str	r0, [sp, #44]	; 0x2c
10005cfe:	920c      	str	r2, [sp, #48]	; 0x30
10005d00:	4640      	mov	r0, r8
10005d02:	4642      	mov	r2, r8
10005d04:	0019      	movs	r1, r3
10005d06:	469a      	mov	sl, r3
10005d08:	f001 fccd 	bl	100076a6 <__wrap___aeabi_dcmpun>
10005d0c:	2800      	cmp	r0, #0
10005d0e:	d000      	beq.n	10005d12 <_etoa+0x2e>
10005d10:	e0d8      	b.n	10005ec4 <_etoa+0x1e0>
10005d12:	2201      	movs	r2, #1
10005d14:	4640      	mov	r0, r8
10005d16:	4651      	mov	r1, sl
10005d18:	4b77      	ldr	r3, [pc, #476]	; (10005ef8 <_etoa+0x214>)
10005d1a:	4252      	negs	r2, r2
10005d1c:	f001 fcbe 	bl	1000769c <__wrap___aeabi_dcmpgt>
10005d20:	2800      	cmp	r0, #0
10005d22:	d000      	beq.n	10005d26 <_etoa+0x42>
10005d24:	e0ce      	b.n	10005ec4 <_etoa+0x1e0>
10005d26:	2201      	movs	r2, #1
10005d28:	4640      	mov	r0, r8
10005d2a:	4651      	mov	r1, sl
10005d2c:	4b73      	ldr	r3, [pc, #460]	; (10005efc <_etoa+0x218>)
10005d2e:	4252      	negs	r2, r2
10005d30:	f001 fc9e 	bl	10007670 <__wrap___aeabi_dcmplt>
10005d34:	2800      	cmp	r0, #0
10005d36:	d000      	beq.n	10005d3a <_etoa+0x56>
10005d38:	e0c4      	b.n	10005ec4 <_etoa+0x1e0>
10005d3a:	2200      	movs	r2, #0
10005d3c:	2300      	movs	r3, #0
10005d3e:	4640      	mov	r0, r8
10005d40:	4651      	mov	r1, sl
10005d42:	f001 fc95 	bl	10007670 <__wrap___aeabi_dcmplt>
10005d46:	2800      	cmp	r0, #0
10005d48:	d000      	beq.n	10005d4c <_etoa+0x68>
10005d4a:	e1b9      	b.n	100060c0 <_etoa+0x3dc>
10005d4c:	4642      	mov	r2, r8
10005d4e:	4653      	mov	r3, sl
10005d50:	920a      	str	r2, [sp, #40]	; 0x28
10005d52:	9309      	str	r3, [sp, #36]	; 0x24
10005d54:	2380      	movs	r3, #128	; 0x80
10005d56:	9a28      	ldr	r2, [sp, #160]	; 0xa0
10005d58:	00db      	lsls	r3, r3, #3
10005d5a:	401a      	ands	r2, r3
10005d5c:	920e      	str	r2, [sp, #56]	; 0x38
10005d5e:	9a28      	ldr	r2, [sp, #160]	; 0xa0
10005d60:	421a      	tst	r2, r3
10005d62:	d101      	bne.n	10005d68 <_etoa+0x84>
10005d64:	2306      	movs	r3, #6
10005d66:	9326      	str	r3, [sp, #152]	; 0x98
10005d68:	9a0a      	ldr	r2, [sp, #40]	; 0x28
10005d6a:	9b09      	ldr	r3, [sp, #36]	; 0x24
10005d6c:	0016      	movs	r6, r2
10005d6e:	4313      	orrs	r3, r2
10005d70:	d000      	beq.n	10005d74 <_etoa+0x90>
10005d72:	e0c7      	b.n	10005f04 <_etoa+0x220>
10005d74:	9b28      	ldr	r3, [sp, #160]	; 0xa0
10005d76:	2500      	movs	r5, #0
10005d78:	2600      	movs	r6, #0
10005d7a:	051b      	lsls	r3, r3, #20
10005d7c:	d400      	bmi.n	10005d80 <_etoa+0x9c>
10005d7e:	e19b      	b.n	100060b8 <_etoa+0x3d4>
10005d80:	2300      	movs	r3, #0
10005d82:	930d      	str	r3, [sp, #52]	; 0x34
10005d84:	9a26      	ldr	r2, [sp, #152]	; 0x98
10005d86:	9b0d      	ldr	r3, [sp, #52]	; 0x34
10005d88:	429a      	cmp	r2, r3
10005d8a:	dc00      	bgt.n	10005d8e <_etoa+0xaa>
10005d8c:	e19f      	b.n	100060ce <_etoa+0x3ea>
10005d8e:	1ad0      	subs	r0, r2, r3
10005d90:	1e43      	subs	r3, r0, #1
10005d92:	9326      	str	r3, [sp, #152]	; 0x98
10005d94:	2380      	movs	r3, #128	; 0x80
10005d96:	9a28      	ldr	r2, [sp, #160]	; 0xa0
10005d98:	00db      	lsls	r3, r3, #3
10005d9a:	431a      	orrs	r2, r3
10005d9c:	2300      	movs	r3, #0
10005d9e:	2700      	movs	r7, #0
10005da0:	9228      	str	r2, [sp, #160]	; 0xa0
10005da2:	930d      	str	r3, [sp, #52]	; 0x34
10005da4:	9b27      	ldr	r3, [sp, #156]	; 0x9c
10005da6:	2400      	movs	r4, #0
10005da8:	42bb      	cmp	r3, r7
10005daa:	d900      	bls.n	10005dae <_etoa+0xca>
10005dac:	1bdc      	subs	r4, r3, r7
10005dae:	2302      	movs	r3, #2
10005db0:	9a28      	ldr	r2, [sp, #160]	; 0xa0
10005db2:	401a      	ands	r2, r3
10005db4:	920e      	str	r2, [sp, #56]	; 0x38
10005db6:	9a28      	ldr	r2, [sp, #160]	; 0xa0
10005db8:	4213      	tst	r3, r2
10005dba:	d003      	beq.n	10005dc4 <_etoa+0xe0>
10005dbc:	427b      	negs	r3, r7
10005dbe:	417b      	adcs	r3, r7
10005dc0:	425b      	negs	r3, r3
10005dc2:	401c      	ands	r4, r3
10005dc4:	9b0d      	ldr	r3, [sp, #52]	; 0x34
10005dc6:	2b00      	cmp	r3, #0
10005dc8:	d007      	beq.n	10005dda <_etoa+0xf6>
10005dca:	980a      	ldr	r0, [sp, #40]	; 0x28
10005dcc:	9909      	ldr	r1, [sp, #36]	; 0x24
10005dce:	002a      	movs	r2, r5
10005dd0:	0033      	movs	r3, r6
10005dd2:	f001 fbec 	bl	100075ae <__wrap___aeabi_ddiv>
10005dd6:	900a      	str	r0, [sp, #40]	; 0x28
10005dd8:	9109      	str	r1, [sp, #36]	; 0x24
10005dda:	2200      	movs	r2, #0
10005ddc:	2300      	movs	r3, #0
10005dde:	4640      	mov	r0, r8
10005de0:	4651      	mov	r1, sl
10005de2:	f001 fc45 	bl	10007670 <__wrap___aeabi_dcmplt>
10005de6:	2800      	cmp	r0, #0
10005de8:	d005      	beq.n	10005df6 <_etoa+0x112>
10005dea:	2080      	movs	r0, #128	; 0x80
10005dec:	0600      	lsls	r0, r0, #24
10005dee:	4684      	mov	ip, r0
10005df0:	9909      	ldr	r1, [sp, #36]	; 0x24
10005df2:	4461      	add	r1, ip
10005df4:	9109      	str	r1, [sp, #36]	; 0x24
10005df6:	9a28      	ldr	r2, [sp, #160]	; 0xa0
10005df8:	4b41      	ldr	r3, [pc, #260]	; (10005f00 <_etoa+0x21c>)
10005dfa:	9d0b      	ldr	r5, [sp, #44]	; 0x2c
10005dfc:	4013      	ands	r3, r2
10005dfe:	9304      	str	r3, [sp, #16]
10005e00:	9b26      	ldr	r3, [sp, #152]	; 0x98
10005e02:	9a0a      	ldr	r2, [sp, #40]	; 0x28
10005e04:	9302      	str	r3, [sp, #8]
10005e06:	9b09      	ldr	r3, [sp, #36]	; 0x24
10005e08:	9403      	str	r4, [sp, #12]
10005e0a:	9200      	str	r2, [sp, #0]
10005e0c:	9301      	str	r3, [sp, #4]
10005e0e:	4649      	mov	r1, r9
10005e10:	465b      	mov	r3, fp
10005e12:	0028      	movs	r0, r5
10005e14:	9a0c      	ldr	r2, [sp, #48]	; 0x30
10005e16:	f000 f98b 	bl	10006130 <_ftoa>
10005e1a:	0004      	movs	r4, r0
10005e1c:	2f00      	cmp	r7, #0
10005e1e:	d062      	beq.n	10005ee6 <_etoa+0x202>
10005e20:	9b28      	ldr	r3, [sp, #160]	; 0xa0
10005e22:	0022      	movs	r2, r4
10005e24:	0698      	lsls	r0, r3, #26
10005e26:	231f      	movs	r3, #31
10005e28:	17c0      	asrs	r0, r0, #31
10005e2a:	4398      	bics	r0, r3
10005e2c:	1c63      	adds	r3, r4, #1
10005e2e:	4698      	mov	r8, r3
10005e30:	4649      	mov	r1, r9
10005e32:	465b      	mov	r3, fp
10005e34:	3065      	adds	r0, #101	; 0x65
10005e36:	47a8      	blx	r5
10005e38:	9b0d      	ldr	r3, [sp, #52]	; 0x34
10005e3a:	2500      	movs	r5, #0
10005e3c:	17da      	asrs	r2, r3, #31
10005e3e:	189c      	adds	r4, r3, r2
10005e40:	0fdb      	lsrs	r3, r3, #31
10005e42:	469a      	mov	sl, r3
10005e44:	4054      	eors	r4, r2
10005e46:	3f01      	subs	r7, #1
10005e48:	e001      	b.n	10005e4e <_etoa+0x16a>
10005e4a:	2d20      	cmp	r5, #32
10005e4c:	d013      	beq.n	10005e76 <_etoa+0x192>
10005e4e:	aa0a      	add	r2, sp, #40	; 0x28
10005e50:	4694      	mov	ip, r2
10005e52:	231f      	movs	r3, #31
10005e54:	0020      	movs	r0, r4
10005e56:	4463      	add	r3, ip
10005e58:	210a      	movs	r1, #10
10005e5a:	3501      	adds	r5, #1
10005e5c:	195e      	adds	r6, r3, r5
10005e5e:	f001 f959 	bl	10007114 <__wrap___aeabi_uidiv>
10005e62:	3130      	adds	r1, #48	; 0x30
10005e64:	7031      	strb	r1, [r6, #0]
10005e66:	0020      	movs	r0, r4
10005e68:	210a      	movs	r1, #10
10005e6a:	f001 f953 	bl	10007114 <__wrap___aeabi_uidiv>
10005e6e:	0026      	movs	r6, r4
10005e70:	0004      	movs	r4, r0
10005e72:	2e09      	cmp	r6, #9
10005e74:	d8e9      	bhi.n	10005e4a <_etoa+0x166>
10005e76:	2305      	movs	r3, #5
10005e78:	9306      	str	r3, [sp, #24]
10005e7a:	2300      	movs	r3, #0
10005e7c:	9304      	str	r3, [sp, #16]
10005e7e:	330a      	adds	r3, #10
10005e80:	9303      	str	r3, [sp, #12]
10005e82:	4653      	mov	r3, sl
10005e84:	9705      	str	r7, [sp, #20]
10005e86:	9f0b      	ldr	r7, [sp, #44]	; 0x2c
10005e88:	9302      	str	r3, [sp, #8]
10005e8a:	ab12      	add	r3, sp, #72	; 0x48
10005e8c:	9300      	str	r3, [sp, #0]
10005e8e:	4642      	mov	r2, r8
10005e90:	465b      	mov	r3, fp
10005e92:	4649      	mov	r1, r9
10005e94:	0038      	movs	r0, r7
10005e96:	9501      	str	r5, [sp, #4]
10005e98:	f7ff fe2e 	bl	10005af8 <_ntoa_format>
10005e9c:	9b0e      	ldr	r3, [sp, #56]	; 0x38
10005e9e:	0004      	movs	r4, r0
10005ea0:	2b00      	cmp	r3, #0
10005ea2:	d020      	beq.n	10005ee6 <_etoa+0x202>
10005ea4:	9b0c      	ldr	r3, [sp, #48]	; 0x30
10005ea6:	1ac5      	subs	r5, r0, r3
10005ea8:	9b27      	ldr	r3, [sp, #156]	; 0x9c
10005eaa:	42ab      	cmp	r3, r5
10005eac:	d91b      	bls.n	10005ee6 <_etoa+0x202>
10005eae:	001e      	movs	r6, r3
10005eb0:	0022      	movs	r2, r4
10005eb2:	465b      	mov	r3, fp
10005eb4:	4649      	mov	r1, r9
10005eb6:	2020      	movs	r0, #32
10005eb8:	3501      	adds	r5, #1
10005eba:	47b8      	blx	r7
10005ebc:	3401      	adds	r4, #1
10005ebe:	42ae      	cmp	r6, r5
10005ec0:	d8f6      	bhi.n	10005eb0 <_etoa+0x1cc>
10005ec2:	e010      	b.n	10005ee6 <_etoa+0x202>
10005ec4:	9b28      	ldr	r3, [sp, #160]	; 0xa0
10005ec6:	4642      	mov	r2, r8
10005ec8:	9304      	str	r3, [sp, #16]
10005eca:	9b27      	ldr	r3, [sp, #156]	; 0x9c
10005ecc:	4649      	mov	r1, r9
10005ece:	9303      	str	r3, [sp, #12]
10005ed0:	9b26      	ldr	r3, [sp, #152]	; 0x98
10005ed2:	980b      	ldr	r0, [sp, #44]	; 0x2c
10005ed4:	9302      	str	r3, [sp, #8]
10005ed6:	4653      	mov	r3, sl
10005ed8:	9200      	str	r2, [sp, #0]
10005eda:	9301      	str	r3, [sp, #4]
10005edc:	465b      	mov	r3, fp
10005ede:	9a0c      	ldr	r2, [sp, #48]	; 0x30
10005ee0:	f000 f926 	bl	10006130 <_ftoa>
10005ee4:	0004      	movs	r4, r0
10005ee6:	0020      	movs	r0, r4
10005ee8:	b01b      	add	sp, #108	; 0x6c
10005eea:	bcf0      	pop	{r4, r5, r6, r7}
10005eec:	46bb      	mov	fp, r7
10005eee:	46b2      	mov	sl, r6
10005ef0:	46a9      	mov	r9, r5
10005ef2:	46a0      	mov	r8, r4
10005ef4:	bdf0      	pop	{r4, r5, r6, r7, pc}
10005ef6:	46c0      	nop			; (mov r8, r8)
10005ef8:	7fefffff 	.word	0x7fefffff
10005efc:	ffefffff 	.word	0xffefffff
10005f00:	fffff7ff 	.word	0xfffff7ff
10005f04:	4b73      	ldr	r3, [pc, #460]	; (100060d4 <_etoa+0x3f0>)
10005f06:	9f09      	ldr	r7, [sp, #36]	; 0x24
10005f08:	469c      	mov	ip, r3
10005f0a:	0078      	lsls	r0, r7, #1
10005f0c:	0d40      	lsrs	r0, r0, #21
10005f0e:	4460      	add	r0, ip
10005f10:	f001 fbdc 	bl	100076cc <__wrap___aeabi_i2d>
10005f14:	4a70      	ldr	r2, [pc, #448]	; (100060d8 <_etoa+0x3f4>)
10005f16:	4b71      	ldr	r3, [pc, #452]	; (100060dc <_etoa+0x3f8>)
10005f18:	f001 fb67 	bl	100075ea <__wrap___aeabi_dmul>
10005f1c:	4a70      	ldr	r2, [pc, #448]	; (100060e0 <_etoa+0x3fc>)
10005f1e:	4b71      	ldr	r3, [pc, #452]	; (100060e4 <_etoa+0x400>)
10005f20:	f001 fb3c 	bl	1000759c <__wrap___aeabi_dadd>
10005f24:	033b      	lsls	r3, r7, #12
10005f26:	4a70      	ldr	r2, [pc, #448]	; (100060e8 <_etoa+0x404>)
10005f28:	0b1b      	lsrs	r3, r3, #12
10005f2a:	431a      	orrs	r2, r3
10005f2c:	0004      	movs	r4, r0
10005f2e:	000d      	movs	r5, r1
10005f30:	0030      	movs	r0, r6
10005f32:	0011      	movs	r1, r2
10005f34:	4b6d      	ldr	r3, [pc, #436]	; (100060ec <_etoa+0x408>)
10005f36:	2200      	movs	r2, #0
10005f38:	f001 fb27 	bl	1000758a <__wrap___aeabi_dsub>
10005f3c:	4a6c      	ldr	r2, [pc, #432]	; (100060f0 <_etoa+0x40c>)
10005f3e:	4b6d      	ldr	r3, [pc, #436]	; (100060f4 <_etoa+0x410>)
10005f40:	f001 fb53 	bl	100075ea <__wrap___aeabi_dmul>
10005f44:	0002      	movs	r2, r0
10005f46:	000b      	movs	r3, r1
10005f48:	0020      	movs	r0, r4
10005f4a:	0029      	movs	r1, r5
10005f4c:	f001 fb26 	bl	1000759c <__wrap___aeabi_dadd>
10005f50:	f001 fbd4 	bl	100076fc <__wrap___aeabi_d2iz>
10005f54:	900d      	str	r0, [sp, #52]	; 0x34
10005f56:	f001 fbb9 	bl	100076cc <__wrap___aeabi_i2d>
10005f5a:	4a67      	ldr	r2, [pc, #412]	; (100060f8 <_etoa+0x414>)
10005f5c:	4b67      	ldr	r3, [pc, #412]	; (100060fc <_etoa+0x418>)
10005f5e:	0004      	movs	r4, r0
10005f60:	000d      	movs	r5, r1
10005f62:	f001 fb42 	bl	100075ea <__wrap___aeabi_dmul>
10005f66:	2200      	movs	r2, #0
10005f68:	4b65      	ldr	r3, [pc, #404]	; (10006100 <_etoa+0x41c>)
10005f6a:	f001 fb17 	bl	1000759c <__wrap___aeabi_dadd>
10005f6e:	f001 fbc5 	bl	100076fc <__wrap___aeabi_d2iz>
10005f72:	4a64      	ldr	r2, [pc, #400]	; (10006104 <_etoa+0x420>)
10005f74:	0006      	movs	r6, r0
10005f76:	4b64      	ldr	r3, [pc, #400]	; (10006108 <_etoa+0x424>)
10005f78:	0020      	movs	r0, r4
10005f7a:	0029      	movs	r1, r5
10005f7c:	f001 fb35 	bl	100075ea <__wrap___aeabi_dmul>
10005f80:	0004      	movs	r4, r0
10005f82:	0030      	movs	r0, r6
10005f84:	000d      	movs	r5, r1
10005f86:	960f      	str	r6, [sp, #60]	; 0x3c
10005f88:	f001 fba0 	bl	100076cc <__wrap___aeabi_i2d>
10005f8c:	4a5f      	ldr	r2, [pc, #380]	; (1000610c <_etoa+0x428>)
10005f8e:	4b60      	ldr	r3, [pc, #384]	; (10006110 <_etoa+0x42c>)
10005f90:	f001 fb2b 	bl	100075ea <__wrap___aeabi_dmul>
10005f94:	0002      	movs	r2, r0
10005f96:	000b      	movs	r3, r1
10005f98:	0020      	movs	r0, r4
10005f9a:	0029      	movs	r1, r5
10005f9c:	f001 faf5 	bl	1000758a <__wrap___aeabi_dsub>
10005fa0:	0002      	movs	r2, r0
10005fa2:	000b      	movs	r3, r1
10005fa4:	0006      	movs	r6, r0
10005fa6:	000f      	movs	r7, r1
10005fa8:	f001 fb1f 	bl	100075ea <__wrap___aeabi_dmul>
10005fac:	0032      	movs	r2, r6
10005fae:	0004      	movs	r4, r0
10005fb0:	000d      	movs	r5, r1
10005fb2:	003b      	movs	r3, r7
10005fb4:	0030      	movs	r0, r6
10005fb6:	0039      	movs	r1, r7
10005fb8:	f001 faf0 	bl	1000759c <__wrap___aeabi_dadd>
10005fbc:	2200      	movs	r2, #0
10005fbe:	9010      	str	r0, [sp, #64]	; 0x40
10005fc0:	9111      	str	r1, [sp, #68]	; 0x44
10005fc2:	4b54      	ldr	r3, [pc, #336]	; (10006114 <_etoa+0x430>)
10005fc4:	0020      	movs	r0, r4
10005fc6:	0029      	movs	r1, r5
10005fc8:	f001 faf1 	bl	100075ae <__wrap___aeabi_ddiv>
10005fcc:	2200      	movs	r2, #0
10005fce:	4b52      	ldr	r3, [pc, #328]	; (10006118 <_etoa+0x434>)
10005fd0:	f001 fae4 	bl	1000759c <__wrap___aeabi_dadd>
10005fd4:	0002      	movs	r2, r0
10005fd6:	000b      	movs	r3, r1
10005fd8:	0020      	movs	r0, r4
10005fda:	0029      	movs	r1, r5
10005fdc:	f001 fae7 	bl	100075ae <__wrap___aeabi_ddiv>
10005fe0:	2200      	movs	r2, #0
10005fe2:	4b4e      	ldr	r3, [pc, #312]	; (1000611c <_etoa+0x438>)
10005fe4:	f001 fada 	bl	1000759c <__wrap___aeabi_dadd>
10005fe8:	0002      	movs	r2, r0
10005fea:	000b      	movs	r3, r1
10005fec:	0020      	movs	r0, r4
10005fee:	0029      	movs	r1, r5
10005ff0:	f001 fadd 	bl	100075ae <__wrap___aeabi_ddiv>
10005ff4:	000d      	movs	r5, r1
10005ff6:	2180      	movs	r1, #128	; 0x80
10005ff8:	0004      	movs	r4, r0
10005ffa:	0032      	movs	r2, r6
10005ffc:	003b      	movs	r3, r7
10005ffe:	2000      	movs	r0, #0
10006000:	05c9      	lsls	r1, r1, #23
10006002:	f001 fac2 	bl	1000758a <__wrap___aeabi_dsub>
10006006:	0002      	movs	r2, r0
10006008:	000b      	movs	r3, r1
1000600a:	0020      	movs	r0, r4
1000600c:	0029      	movs	r1, r5
1000600e:	f001 fac5 	bl	1000759c <__wrap___aeabi_dadd>
10006012:	0002      	movs	r2, r0
10006014:	000b      	movs	r3, r1
10006016:	9810      	ldr	r0, [sp, #64]	; 0x40
10006018:	9911      	ldr	r1, [sp, #68]	; 0x44
1000601a:	f001 fac8 	bl	100075ae <__wrap___aeabi_ddiv>
1000601e:	2200      	movs	r2, #0
10006020:	4b31      	ldr	r3, [pc, #196]	; (100060e8 <_etoa+0x404>)
10006022:	f001 fabb 	bl	1000759c <__wrap___aeabi_dadd>
10006026:	4b3e      	ldr	r3, [pc, #248]	; (10006120 <_etoa+0x43c>)
10006028:	9c0f      	ldr	r4, [sp, #60]	; 0x3c
1000602a:	469c      	mov	ip, r3
1000602c:	4464      	add	r4, ip
1000602e:	2200      	movs	r2, #0
10006030:	0523      	lsls	r3, r4, #20
10006032:	f001 fada 	bl	100075ea <__wrap___aeabi_dmul>
10006036:	0005      	movs	r5, r0
10006038:	000e      	movs	r6, r1
1000603a:	0002      	movs	r2, r0
1000603c:	000b      	movs	r3, r1
1000603e:	980a      	ldr	r0, [sp, #40]	; 0x28
10006040:	9909      	ldr	r1, [sp, #36]	; 0x24
10006042:	f001 fb15 	bl	10007670 <__wrap___aeabi_dcmplt>
10006046:	2800      	cmp	r0, #0
10006048:	d00a      	beq.n	10006060 <_etoa+0x37c>
1000604a:	9b0d      	ldr	r3, [sp, #52]	; 0x34
1000604c:	0028      	movs	r0, r5
1000604e:	3b01      	subs	r3, #1
10006050:	0031      	movs	r1, r6
10006052:	930d      	str	r3, [sp, #52]	; 0x34
10006054:	2200      	movs	r2, #0
10006056:	4b30      	ldr	r3, [pc, #192]	; (10006118 <_etoa+0x434>)
10006058:	f001 faa9 	bl	100075ae <__wrap___aeabi_ddiv>
1000605c:	0005      	movs	r5, r0
1000605e:	000e      	movs	r6, r1
10006060:	27c6      	movs	r7, #198	; 0xc6
10006062:	990d      	ldr	r1, [sp, #52]	; 0x34
10006064:	002b      	movs	r3, r5
10006066:	3163      	adds	r1, #99	; 0x63
10006068:	428f      	cmp	r7, r1
1000606a:	41bf      	sbcs	r7, r7
1000606c:	9928      	ldr	r1, [sp, #160]	; 0xa0
1000606e:	427f      	negs	r7, r7
10006070:	3704      	adds	r7, #4
10006072:	0509      	lsls	r1, r1, #20
10006074:	d400      	bmi.n	10006078 <_etoa+0x394>
10006076:	e695      	b.n	10005da4 <_etoa+0xc0>
10006078:	4333      	orrs	r3, r6
1000607a:	d100      	bne.n	1000607e <_etoa+0x39a>
1000607c:	e682      	b.n	10005d84 <_etoa+0xa0>
1000607e:	9c09      	ldr	r4, [sp, #36]	; 0x24
10006080:	4a28      	ldr	r2, [pc, #160]	; (10006124 <_etoa+0x440>)
10006082:	0021      	movs	r1, r4
10006084:	4b28      	ldr	r3, [pc, #160]	; (10006128 <_etoa+0x444>)
10006086:	980a      	ldr	r0, [sp, #40]	; 0x28
10006088:	f001 fb00 	bl	1000768c <__wrap___aeabi_dcmpge>
1000608c:	2800      	cmp	r0, #0
1000608e:	d008      	beq.n	100060a2 <_etoa+0x3be>
10006090:	2200      	movs	r2, #0
10006092:	0021      	movs	r1, r4
10006094:	4b25      	ldr	r3, [pc, #148]	; (1000612c <_etoa+0x448>)
10006096:	980a      	ldr	r0, [sp, #40]	; 0x28
10006098:	f001 faea 	bl	10007670 <__wrap___aeabi_dcmplt>
1000609c:	2800      	cmp	r0, #0
1000609e:	d000      	beq.n	100060a2 <_etoa+0x3be>
100060a0:	e670      	b.n	10005d84 <_etoa+0xa0>
100060a2:	9b26      	ldr	r3, [sp, #152]	; 0x98
100060a4:	2b00      	cmp	r3, #0
100060a6:	d100      	bne.n	100060aa <_etoa+0x3c6>
100060a8:	e67c      	b.n	10005da4 <_etoa+0xc0>
100060aa:	9b0e      	ldr	r3, [sp, #56]	; 0x38
100060ac:	1e5a      	subs	r2, r3, #1
100060ae:	4193      	sbcs	r3, r2
100060b0:	9a26      	ldr	r2, [sp, #152]	; 0x98
100060b2:	1ad3      	subs	r3, r2, r3
100060b4:	9326      	str	r3, [sp, #152]	; 0x98
100060b6:	e675      	b.n	10005da4 <_etoa+0xc0>
100060b8:	2300      	movs	r3, #0
100060ba:	2704      	movs	r7, #4
100060bc:	930d      	str	r3, [sp, #52]	; 0x34
100060be:	e671      	b.n	10005da4 <_etoa+0xc0>
100060c0:	4643      	mov	r3, r8
100060c2:	930a      	str	r3, [sp, #40]	; 0x28
100060c4:	2380      	movs	r3, #128	; 0x80
100060c6:	061b      	lsls	r3, r3, #24
100060c8:	4453      	add	r3, sl
100060ca:	9309      	str	r3, [sp, #36]	; 0x24
100060cc:	e642      	b.n	10005d54 <_etoa+0x70>
100060ce:	2300      	movs	r3, #0
100060d0:	9326      	str	r3, [sp, #152]	; 0x98
100060d2:	e65f      	b.n	10005d94 <_etoa+0xb0>
100060d4:	fffffc01 	.word	0xfffffc01
100060d8:	509f79fb 	.word	0x509f79fb
100060dc:	3fd34413 	.word	0x3fd34413
100060e0:	8b60c8b3 	.word	0x8b60c8b3
100060e4:	3fc68a28 	.word	0x3fc68a28
100060e8:	3ff00000 	.word	0x3ff00000
100060ec:	3ff80000 	.word	0x3ff80000
100060f0:	636f4361 	.word	0x636f4361
100060f4:	3fd287a7 	.word	0x3fd287a7
100060f8:	0979a371 	.word	0x0979a371
100060fc:	400a934f 	.word	0x400a934f
10006100:	3fe00000 	.word	0x3fe00000
10006104:	bbb55516 	.word	0xbbb55516
10006108:	40026bb1 	.word	0x40026bb1
1000610c:	fefa39ef 	.word	0xfefa39ef
10006110:	3fe62e42 	.word	0x3fe62e42
10006114:	402c0000 	.word	0x402c0000
10006118:	40240000 	.word	0x40240000
1000611c:	40180000 	.word	0x40180000
10006120:	000003ff 	.word	0x000003ff
10006124:	eb1c432d 	.word	0xeb1c432d
10006128:	3f1a36e2 	.word	0x3f1a36e2
1000612c:	412e8480 	.word	0x412e8480

10006130 <_ftoa>:
10006130:	b5f0      	push	{r4, r5, r6, r7, lr}
10006132:	464e      	mov	r6, r9
10006134:	46de      	mov	lr, fp
10006136:	4657      	mov	r7, sl
10006138:	4645      	mov	r5, r8
1000613a:	b5e0      	push	{r5, r6, r7, lr}
1000613c:	b097      	sub	sp, #92	; 0x5c
1000613e:	4699      	mov	r9, r3
10006140:	9e20      	ldr	r6, [sp, #128]	; 0x80
10006142:	9f21      	ldr	r7, [sp, #132]	; 0x84
10006144:	9b22      	ldr	r3, [sp, #136]	; 0x88
10006146:	4683      	mov	fp, r0
10006148:	4698      	mov	r8, r3
1000614a:	9107      	str	r1, [sp, #28]
1000614c:	920c      	str	r2, [sp, #48]	; 0x30
1000614e:	003b      	movs	r3, r7
10006150:	0032      	movs	r2, r6
10006152:	0030      	movs	r0, r6
10006154:	0039      	movs	r1, r7
10006156:	f001 faa6 	bl	100076a6 <__wrap___aeabi_dcmpun>
1000615a:	2800      	cmp	r0, #0
1000615c:	d000      	beq.n	10006160 <_ftoa+0x30>
1000615e:	e1a9      	b.n	100064b4 <_ftoa+0x384>
10006160:	2201      	movs	r2, #1
10006162:	0030      	movs	r0, r6
10006164:	0039      	movs	r1, r7
10006166:	4bca      	ldr	r3, [pc, #808]	; (10006490 <_ftoa+0x360>)
10006168:	4252      	negs	r2, r2
1000616a:	f001 fa81 	bl	10007670 <__wrap___aeabi_dcmplt>
1000616e:	2800      	cmp	r0, #0
10006170:	d000      	beq.n	10006174 <_ftoa+0x44>
10006172:	e0e1      	b.n	10006338 <_ftoa+0x208>
10006174:	2201      	movs	r2, #1
10006176:	0030      	movs	r0, r6
10006178:	0039      	movs	r1, r7
1000617a:	4bc6      	ldr	r3, [pc, #792]	; (10006494 <_ftoa+0x364>)
1000617c:	4252      	negs	r2, r2
1000617e:	f001 fa8d 	bl	1000769c <__wrap___aeabi_dcmpgt>
10006182:	2800      	cmp	r0, #0
10006184:	d000      	beq.n	10006188 <_ftoa+0x58>
10006186:	e0b7      	b.n	100062f8 <_ftoa+0x1c8>
10006188:	2200      	movs	r2, #0
1000618a:	0030      	movs	r0, r6
1000618c:	0039      	movs	r1, r7
1000618e:	4bc2      	ldr	r3, [pc, #776]	; (10006498 <_ftoa+0x368>)
10006190:	f001 fa84 	bl	1000769c <__wrap___aeabi_dcmpgt>
10006194:	2800      	cmp	r0, #0
10006196:	d000      	beq.n	1000619a <_ftoa+0x6a>
10006198:	e099      	b.n	100062ce <_ftoa+0x19e>
1000619a:	2200      	movs	r2, #0
1000619c:	0030      	movs	r0, r6
1000619e:	0039      	movs	r1, r7
100061a0:	4bbe      	ldr	r3, [pc, #760]	; (1000649c <_ftoa+0x36c>)
100061a2:	f001 fa65 	bl	10007670 <__wrap___aeabi_dcmplt>
100061a6:	2800      	cmp	r0, #0
100061a8:	d000      	beq.n	100061ac <_ftoa+0x7c>
100061aa:	e090      	b.n	100062ce <_ftoa+0x19e>
100061ac:	2200      	movs	r2, #0
100061ae:	2300      	movs	r3, #0
100061b0:	0030      	movs	r0, r6
100061b2:	0039      	movs	r1, r7
100061b4:	f001 fa5c 	bl	10007670 <__wrap___aeabi_dcmplt>
100061b8:	2800      	cmp	r0, #0
100061ba:	d000      	beq.n	100061be <_ftoa+0x8e>
100061bc:	e0b1      	b.n	10006322 <_ftoa+0x1f2>
100061be:	2300      	movs	r3, #0
100061c0:	930d      	str	r3, [sp, #52]	; 0x34
100061c2:	9b24      	ldr	r3, [sp, #144]	; 0x90
100061c4:	055b      	lsls	r3, r3, #21
100061c6:	d401      	bmi.n	100061cc <_ftoa+0x9c>
100061c8:	2306      	movs	r3, #6
100061ca:	4698      	mov	r8, r3
100061cc:	ab08      	add	r3, sp, #32
100061ce:	469c      	mov	ip, r3
100061d0:	2217      	movs	r2, #23
100061d2:	2400      	movs	r4, #0
100061d4:	2330      	movs	r3, #48	; 0x30
100061d6:	4641      	mov	r1, r8
100061d8:	4462      	add	r2, ip
100061da:	e004      	b.n	100061e6 <_ftoa+0xb6>
100061dc:	3401      	adds	r4, #1
100061de:	5513      	strb	r3, [r2, r4]
100061e0:	3901      	subs	r1, #1
100061e2:	2c20      	cmp	r4, #32
100061e4:	d001      	beq.n	100061ea <_ftoa+0xba>
100061e6:	2909      	cmp	r1, #9
100061e8:	d8f8      	bhi.n	100061dc <_ftoa+0xac>
100061ea:	4688      	mov	r8, r1
100061ec:	0030      	movs	r0, r6
100061ee:	0039      	movs	r1, r7
100061f0:	f001 fa84 	bl	100076fc <__wrap___aeabi_d2iz>
100061f4:	4643      	mov	r3, r8
100061f6:	00da      	lsls	r2, r3, #3
100061f8:	4ba9      	ldr	r3, [pc, #676]	; (100064a0 <_ftoa+0x370>)
100061fa:	0005      	movs	r5, r0
100061fc:	189b      	adds	r3, r3, r2
100061fe:	681a      	ldr	r2, [r3, #0]
10006200:	685b      	ldr	r3, [r3, #4]
10006202:	9208      	str	r2, [sp, #32]
10006204:	9309      	str	r3, [sp, #36]	; 0x24
10006206:	f001 fa61 	bl	100076cc <__wrap___aeabi_i2d>
1000620a:	0002      	movs	r2, r0
1000620c:	000b      	movs	r3, r1
1000620e:	0030      	movs	r0, r6
10006210:	0039      	movs	r1, r7
10006212:	f001 f9ba 	bl	1000758a <__wrap___aeabi_dsub>
10006216:	9a08      	ldr	r2, [sp, #32]
10006218:	9b09      	ldr	r3, [sp, #36]	; 0x24
1000621a:	f001 f9e6 	bl	100075ea <__wrap___aeabi_dmul>
1000621e:	900a      	str	r0, [sp, #40]	; 0x28
10006220:	910b      	str	r1, [sp, #44]	; 0x2c
10006222:	f001 fa8f 	bl	10007744 <__wrap___aeabi_d2uiz>
10006226:	4682      	mov	sl, r0
10006228:	f001 fa4c 	bl	100076c4 <__wrap___aeabi_ui2d>
1000622c:	0002      	movs	r2, r0
1000622e:	000b      	movs	r3, r1
10006230:	980a      	ldr	r0, [sp, #40]	; 0x28
10006232:	990b      	ldr	r1, [sp, #44]	; 0x2c
10006234:	f001 f9a9 	bl	1000758a <__wrap___aeabi_dsub>
10006238:	2200      	movs	r2, #0
1000623a:	4b9a      	ldr	r3, [pc, #616]	; (100064a4 <_ftoa+0x374>)
1000623c:	900a      	str	r0, [sp, #40]	; 0x28
1000623e:	910b      	str	r1, [sp, #44]	; 0x2c
10006240:	f001 fa2c 	bl	1000769c <__wrap___aeabi_dcmpgt>
10006244:	2800      	cmp	r0, #0
10006246:	d100      	bne.n	1000624a <_ftoa+0x11a>
10006248:	e0c0      	b.n	100063cc <_ftoa+0x29c>
1000624a:	2301      	movs	r3, #1
1000624c:	469c      	mov	ip, r3
1000624e:	44e2      	add	sl, ip
10006250:	4650      	mov	r0, sl
10006252:	f001 fa37 	bl	100076c4 <__wrap___aeabi_ui2d>
10006256:	0002      	movs	r2, r0
10006258:	000b      	movs	r3, r1
1000625a:	9808      	ldr	r0, [sp, #32]
1000625c:	9909      	ldr	r1, [sp, #36]	; 0x24
1000625e:	f001 fa0d 	bl	1000767c <__wrap___aeabi_dcmple>
10006262:	2800      	cmp	r0, #0
10006264:	d002      	beq.n	1000626c <_ftoa+0x13c>
10006266:	2300      	movs	r3, #0
10006268:	469a      	mov	sl, r3
1000626a:	3501      	adds	r5, #1
1000626c:	4643      	mov	r3, r8
1000626e:	2b00      	cmp	r3, #0
10006270:	d06a      	beq.n	10006348 <_ftoa+0x218>
10006272:	ab08      	add	r3, sp, #32
10006274:	2617      	movs	r6, #23
10006276:	469c      	mov	ip, r3
10006278:	9508      	str	r5, [sp, #32]
1000627a:	4466      	add	r6, ip
1000627c:	4655      	mov	r5, sl
1000627e:	e014      	b.n	100062aa <_ftoa+0x17a>
10006280:	2301      	movs	r3, #1
10006282:	425b      	negs	r3, r3
10006284:	4443      	add	r3, r8
10006286:	210a      	movs	r1, #10
10006288:	0028      	movs	r0, r5
1000628a:	469a      	mov	sl, r3
1000628c:	f000 ff42 	bl	10007114 <__wrap___aeabi_uidiv>
10006290:	3401      	adds	r4, #1
10006292:	3130      	adds	r1, #48	; 0x30
10006294:	1937      	adds	r7, r6, r4
10006296:	7039      	strb	r1, [r7, #0]
10006298:	0028      	movs	r0, r5
1000629a:	210a      	movs	r1, #10
1000629c:	f000 ff3a 	bl	10007114 <__wrap___aeabi_uidiv>
100062a0:	2d09      	cmp	r5, #9
100062a2:	d800      	bhi.n	100062a6 <_ftoa+0x176>
100062a4:	e0d0      	b.n	10006448 <_ftoa+0x318>
100062a6:	46d0      	mov	r8, sl
100062a8:	0005      	movs	r5, r0
100062aa:	2c20      	cmp	r4, #32
100062ac:	d1e8      	bne.n	10006280 <_ftoa+0x150>
100062ae:	ab0e      	add	r3, sp, #56	; 0x38
100062b0:	4698      	mov	r8, r3
100062b2:	2303      	movs	r3, #3
100062b4:	9a24      	ldr	r2, [sp, #144]	; 0x90
100062b6:	4013      	ands	r3, r2
100062b8:	2b01      	cmp	r3, #1
100062ba:	d100      	bne.n	100062be <_ftoa+0x18e>
100062bc:	e096      	b.n	100063ec <_ftoa+0x2bc>
100062be:	2320      	movs	r3, #32
100062c0:	9a24      	ldr	r2, [sp, #144]	; 0x90
100062c2:	9301      	str	r3, [sp, #4]
100062c4:	9203      	str	r2, [sp, #12]
100062c6:	9a23      	ldr	r2, [sp, #140]	; 0x8c
100062c8:	4643      	mov	r3, r8
100062ca:	9202      	str	r2, [sp, #8]
100062cc:	e01e      	b.n	1000630c <_ftoa+0x1dc>
100062ce:	9b24      	ldr	r3, [sp, #144]	; 0x90
100062d0:	4658      	mov	r0, fp
100062d2:	9304      	str	r3, [sp, #16]
100062d4:	9b23      	ldr	r3, [sp, #140]	; 0x8c
100062d6:	9600      	str	r6, [sp, #0]
100062d8:	9701      	str	r7, [sp, #4]
100062da:	9303      	str	r3, [sp, #12]
100062dc:	4643      	mov	r3, r8
100062de:	9a0c      	ldr	r2, [sp, #48]	; 0x30
100062e0:	9302      	str	r3, [sp, #8]
100062e2:	9907      	ldr	r1, [sp, #28]
100062e4:	464b      	mov	r3, r9
100062e6:	f7ff fcfd 	bl	10005ce4 <_etoa>
100062ea:	b017      	add	sp, #92	; 0x5c
100062ec:	bcf0      	pop	{r4, r5, r6, r7}
100062ee:	46bb      	mov	fp, r7
100062f0:	46b2      	mov	sl, r6
100062f2:	46a9      	mov	r9, r5
100062f4:	46a0      	mov	r8, r4
100062f6:	bdf0      	pop	{r4, r5, r6, r7, pc}
100062f8:	9b24      	ldr	r3, [sp, #144]	; 0x90
100062fa:	075b      	lsls	r3, r3, #29
100062fc:	d40e      	bmi.n	1000631c <_ftoa+0x1ec>
100062fe:	2203      	movs	r2, #3
10006300:	4b69      	ldr	r3, [pc, #420]	; (100064a8 <_ftoa+0x378>)
10006302:	9924      	ldr	r1, [sp, #144]	; 0x90
10006304:	9201      	str	r2, [sp, #4]
10006306:	9103      	str	r1, [sp, #12]
10006308:	9923      	ldr	r1, [sp, #140]	; 0x8c
1000630a:	9102      	str	r1, [sp, #8]
1000630c:	9300      	str	r3, [sp, #0]
1000630e:	4658      	mov	r0, fp
10006310:	464b      	mov	r3, r9
10006312:	9a0c      	ldr	r2, [sp, #48]	; 0x30
10006314:	9907      	ldr	r1, [sp, #28]
10006316:	f7ff fba1 	bl	10005a5c <_out_rev>
1000631a:	e7e6      	b.n	100062ea <_ftoa+0x1ba>
1000631c:	2204      	movs	r2, #4
1000631e:	4b63      	ldr	r3, [pc, #396]	; (100064ac <_ftoa+0x37c>)
10006320:	e7ef      	b.n	10006302 <_ftoa+0x1d2>
10006322:	003b      	movs	r3, r7
10006324:	0032      	movs	r2, r6
10006326:	2000      	movs	r0, #0
10006328:	2100      	movs	r1, #0
1000632a:	f001 f92e 	bl	1000758a <__wrap___aeabi_dsub>
1000632e:	2301      	movs	r3, #1
10006330:	0006      	movs	r6, r0
10006332:	000f      	movs	r7, r1
10006334:	930d      	str	r3, [sp, #52]	; 0x34
10006336:	e744      	b.n	100061c2 <_ftoa+0x92>
10006338:	9b24      	ldr	r3, [sp, #144]	; 0x90
1000633a:	9303      	str	r3, [sp, #12]
1000633c:	9b23      	ldr	r3, [sp, #140]	; 0x8c
1000633e:	9302      	str	r3, [sp, #8]
10006340:	2304      	movs	r3, #4
10006342:	9301      	str	r3, [sp, #4]
10006344:	4b5a      	ldr	r3, [pc, #360]	; (100064b0 <_ftoa+0x380>)
10006346:	e7e1      	b.n	1000630c <_ftoa+0x1dc>
10006348:	0028      	movs	r0, r5
1000634a:	f001 f9bf 	bl	100076cc <__wrap___aeabi_i2d>
1000634e:	0002      	movs	r2, r0
10006350:	000b      	movs	r3, r1
10006352:	0030      	movs	r0, r6
10006354:	0039      	movs	r1, r7
10006356:	f001 f918 	bl	1000758a <__wrap___aeabi_dsub>
1000635a:	4b52      	ldr	r3, [pc, #328]	; (100064a4 <_ftoa+0x374>)
1000635c:	2200      	movs	r2, #0
1000635e:	0006      	movs	r6, r0
10006360:	000f      	movs	r7, r1
10006362:	f001 f985 	bl	10007670 <__wrap___aeabi_dcmplt>
10006366:	ab0e      	add	r3, sp, #56	; 0x38
10006368:	4698      	mov	r8, r3
1000636a:	2800      	cmp	r0, #0
1000636c:	d10a      	bne.n	10006384 <_ftoa+0x254>
1000636e:	2200      	movs	r2, #0
10006370:	0030      	movs	r0, r6
10006372:	0039      	movs	r1, r7
10006374:	4b4b      	ldr	r3, [pc, #300]	; (100064a4 <_ftoa+0x374>)
10006376:	f001 f991 	bl	1000769c <__wrap___aeabi_dcmpgt>
1000637a:	2800      	cmp	r0, #0
1000637c:	d102      	bne.n	10006384 <_ftoa+0x254>
1000637e:	07eb      	lsls	r3, r5, #31
10006380:	d500      	bpl.n	10006384 <_ftoa+0x254>
10006382:	3501      	adds	r5, #1
10006384:	2c20      	cmp	r4, #32
10006386:	d094      	beq.n	100062b2 <_ftoa+0x182>
10006388:	aa08      	add	r2, sp, #32
1000638a:	4694      	mov	ip, r2
1000638c:	2317      	movs	r3, #23
1000638e:	0028      	movs	r0, r5
10006390:	4463      	add	r3, ip
10006392:	210a      	movs	r1, #10
10006394:	3401      	adds	r4, #1
10006396:	191e      	adds	r6, r3, r4
10006398:	f000 fe94 	bl	100070c4 <__wrap___aeabi_idiv>
1000639c:	3130      	adds	r1, #48	; 0x30
1000639e:	0028      	movs	r0, r5
100063a0:	7031      	strb	r1, [r6, #0]
100063a2:	210a      	movs	r1, #10
100063a4:	f000 fe8e 	bl	100070c4 <__wrap___aeabi_idiv>
100063a8:	1e05      	subs	r5, r0, #0
100063aa:	d1eb      	bne.n	10006384 <_ftoa+0x254>
100063ac:	2303      	movs	r3, #3
100063ae:	9a24      	ldr	r2, [sp, #144]	; 0x90
100063b0:	4013      	ands	r3, r2
100063b2:	2b01      	cmp	r3, #1
100063b4:	d01b      	beq.n	100063ee <_ftoa+0x2be>
100063b6:	2c20      	cmp	r4, #32
100063b8:	d100      	bne.n	100063bc <_ftoa+0x28c>
100063ba:	e780      	b.n	100062be <_ftoa+0x18e>
100063bc:	9b0d      	ldr	r3, [sp, #52]	; 0x34
100063be:	2b00      	cmp	r3, #0
100063c0:	d035      	beq.n	1000642e <_ftoa+0x2fe>
100063c2:	222d      	movs	r2, #45	; 0x2d
100063c4:	4641      	mov	r1, r8
100063c6:	1c63      	adds	r3, r4, #1
100063c8:	550a      	strb	r2, [r1, r4]
100063ca:	e779      	b.n	100062c0 <_ftoa+0x190>
100063cc:	2200      	movs	r2, #0
100063ce:	980a      	ldr	r0, [sp, #40]	; 0x28
100063d0:	990b      	ldr	r1, [sp, #44]	; 0x2c
100063d2:	4b34      	ldr	r3, [pc, #208]	; (100064a4 <_ftoa+0x374>)
100063d4:	f001 f94c 	bl	10007670 <__wrap___aeabi_dcmplt>
100063d8:	2800      	cmp	r0, #0
100063da:	d000      	beq.n	100063de <_ftoa+0x2ae>
100063dc:	e746      	b.n	1000626c <_ftoa+0x13c>
100063de:	4653      	mov	r3, sl
100063e0:	2b00      	cmp	r3, #0
100063e2:	d151      	bne.n	10006488 <_ftoa+0x358>
100063e4:	2301      	movs	r3, #1
100063e6:	469c      	mov	ip, r3
100063e8:	44e2      	add	sl, ip
100063ea:	e73f      	b.n	1000626c <_ftoa+0x13c>
100063ec:	2420      	movs	r4, #32
100063ee:	9b23      	ldr	r3, [sp, #140]	; 0x8c
100063f0:	2b00      	cmp	r3, #0
100063f2:	d0e0      	beq.n	100063b6 <_ftoa+0x286>
100063f4:	9b0d      	ldr	r3, [sp, #52]	; 0x34
100063f6:	2b00      	cmp	r3, #0
100063f8:	d103      	bne.n	10006402 <_ftoa+0x2d2>
100063fa:	9a24      	ldr	r2, [sp, #144]	; 0x90
100063fc:	330c      	adds	r3, #12
100063fe:	4213      	tst	r3, r2
10006400:	d002      	beq.n	10006408 <_ftoa+0x2d8>
10006402:	9b23      	ldr	r3, [sp, #140]	; 0x8c
10006404:	3b01      	subs	r3, #1
10006406:	9323      	str	r3, [sp, #140]	; 0x8c
10006408:	9b23      	ldr	r3, [sp, #140]	; 0x8c
1000640a:	42a3      	cmp	r3, r4
1000640c:	d9d3      	bls.n	100063b6 <_ftoa+0x286>
1000640e:	ab08      	add	r3, sp, #32
10006410:	469c      	mov	ip, r3
10006412:	2217      	movs	r2, #23
10006414:	2330      	movs	r3, #48	; 0x30
10006416:	4462      	add	r2, ip
10006418:	2c20      	cmp	r4, #32
1000641a:	d100      	bne.n	1000641e <_ftoa+0x2ee>
1000641c:	e74f      	b.n	100062be <_ftoa+0x18e>
1000641e:	9923      	ldr	r1, [sp, #140]	; 0x8c
10006420:	3401      	adds	r4, #1
10006422:	5513      	strb	r3, [r2, r4]
10006424:	428c      	cmp	r4, r1
10006426:	d0c6      	beq.n	100063b6 <_ftoa+0x286>
10006428:	2c20      	cmp	r4, #32
1000642a:	d1f8      	bne.n	1000641e <_ftoa+0x2ee>
1000642c:	e747      	b.n	100062be <_ftoa+0x18e>
1000642e:	9b24      	ldr	r3, [sp, #144]	; 0x90
10006430:	075b      	lsls	r3, r3, #29
10006432:	d424      	bmi.n	1000647e <_ftoa+0x34e>
10006434:	9a24      	ldr	r2, [sp, #144]	; 0x90
10006436:	0023      	movs	r3, r4
10006438:	0712      	lsls	r2, r2, #28
1000643a:	d400      	bmi.n	1000643e <_ftoa+0x30e>
1000643c:	e740      	b.n	100062c0 <_ftoa+0x190>
1000643e:	2220      	movs	r2, #32
10006440:	4641      	mov	r1, r8
10006442:	3301      	adds	r3, #1
10006444:	550a      	strb	r2, [r1, r4]
10006446:	e73b      	b.n	100062c0 <_ftoa+0x190>
10006448:	4657      	mov	r7, sl
1000644a:	9d08      	ldr	r5, [sp, #32]
1000644c:	2c20      	cmp	r4, #32
1000644e:	d100      	bne.n	10006452 <_ftoa+0x322>
10006450:	e72d      	b.n	100062ae <_ftoa+0x17e>
10006452:	0022      	movs	r2, r4
10006454:	2130      	movs	r1, #48	; 0x30
10006456:	4640      	mov	r0, r8
10006458:	2f00      	cmp	r7, #0
1000645a:	d009      	beq.n	10006470 <_ftoa+0x340>
1000645c:	3201      	adds	r2, #1
1000645e:	54b1      	strb	r1, [r6, r2]
10006460:	2a20      	cmp	r2, #32
10006462:	d100      	bne.n	10006466 <_ftoa+0x336>
10006464:	e723      	b.n	100062ae <_ftoa+0x17e>
10006466:	43d3      	mvns	r3, r2
10006468:	191b      	adds	r3, r3, r4
1000646a:	181b      	adds	r3, r3, r0
1000646c:	2b00      	cmp	r3, #0
1000646e:	d1f5      	bne.n	1000645c <_ftoa+0x32c>
10006470:	ab0e      	add	r3, sp, #56	; 0x38
10006472:	4698      	mov	r8, r3
10006474:	232e      	movs	r3, #46	; 0x2e
10006476:	4641      	mov	r1, r8
10006478:	1c54      	adds	r4, r2, #1
1000647a:	548b      	strb	r3, [r1, r2]
1000647c:	e782      	b.n	10006384 <_ftoa+0x254>
1000647e:	222b      	movs	r2, #43	; 0x2b
10006480:	4641      	mov	r1, r8
10006482:	1c63      	adds	r3, r4, #1
10006484:	550a      	strb	r2, [r1, r4]
10006486:	e71b      	b.n	100062c0 <_ftoa+0x190>
10006488:	07db      	lsls	r3, r3, #31
1000648a:	d400      	bmi.n	1000648e <_ftoa+0x35e>
1000648c:	e6ee      	b.n	1000626c <_ftoa+0x13c>
1000648e:	e7a9      	b.n	100063e4 <_ftoa+0x2b4>
10006490:	ffefffff 	.word	0xffefffff
10006494:	7fefffff 	.word	0x7fefffff
10006498:	41cdcd65 	.word	0x41cdcd65
1000649c:	c1cdcd65 	.word	0xc1cdcd65
100064a0:	100091f0 	.word	0x100091f0
100064a4:	3fe00000 	.word	0x3fe00000
100064a8:	10008ff4 	.word	0x10008ff4
100064ac:	10008ff8 	.word	0x10008ff8
100064b0:	10009004 	.word	0x10009004
100064b4:	9b24      	ldr	r3, [sp, #144]	; 0x90
100064b6:	9303      	str	r3, [sp, #12]
100064b8:	9b23      	ldr	r3, [sp, #140]	; 0x8c
100064ba:	9302      	str	r3, [sp, #8]
100064bc:	2303      	movs	r3, #3
100064be:	9301      	str	r3, [sp, #4]
100064c0:	4b00      	ldr	r3, [pc, #0]	; (100064c4 <_ftoa+0x394>)
100064c2:	e723      	b.n	1000630c <_ftoa+0x1dc>
100064c4:	10009000 	.word	0x10009000

100064c8 <_vsnprintf>:
100064c8:	b5f0      	push	{r4, r5, r6, r7, lr}
100064ca:	46de      	mov	lr, fp
100064cc:	464e      	mov	r6, r9
100064ce:	4657      	mov	r7, sl
100064d0:	4645      	mov	r5, r8
100064d2:	b5e0      	push	{r5, r6, r7, lr}
100064d4:	b09f      	sub	sp, #124	; 0x7c
100064d6:	001c      	movs	r4, r3
100064d8:	9b28      	ldr	r3, [sp, #160]	; 0xa0
100064da:	4691      	mov	r9, r2
100064dc:	9309      	str	r3, [sp, #36]	; 0x24
100064de:	4ac9      	ldr	r2, [pc, #804]	; (10006804 <_vsnprintf+0x33c>)
100064e0:	4bc9      	ldr	r3, [pc, #804]	; (10006808 <_vsnprintf+0x340>)
100064e2:	468b      	mov	fp, r1
100064e4:	9008      	str	r0, [sp, #32]
100064e6:	601a      	str	r2, [r3, #0]
100064e8:	2900      	cmp	r1, #0
100064ea:	d100      	bne.n	100064ee <_vsnprintf+0x26>
100064ec:	e218      	b.n	10006920 <_vsnprintf+0x458>
100064ee:	2300      	movs	r3, #0
100064f0:	7820      	ldrb	r0, [r4, #0]
100064f2:	469a      	mov	sl, r3
100064f4:	2800      	cmp	r0, #0
100064f6:	d100      	bne.n	100064fa <_vsnprintf+0x32>
100064f8:	e21a      	b.n	10006930 <_vsnprintf+0x468>
100064fa:	0026      	movs	r6, r4
100064fc:	001d      	movs	r5, r3
100064fe:	465c      	mov	r4, fp
10006500:	e00a      	b.n	10006518 <_vsnprintf+0x50>
10006502:	002a      	movs	r2, r5
10006504:	1c6f      	adds	r7, r5, #1
10006506:	464b      	mov	r3, r9
10006508:	9d08      	ldr	r5, [sp, #32]
1000650a:	0021      	movs	r1, r4
1000650c:	47a8      	blx	r5
1000650e:	003d      	movs	r5, r7
10006510:	3601      	adds	r6, #1
10006512:	7830      	ldrb	r0, [r6, #0]
10006514:	2800      	cmp	r0, #0
10006516:	d070      	beq.n	100065fa <_vsnprintf+0x132>
10006518:	2825      	cmp	r0, #37	; 0x25
1000651a:	d1f2      	bne.n	10006502 <_vsnprintf+0x3a>
1000651c:	2310      	movs	r3, #16
1000651e:	469b      	mov	fp, r3
10006520:	3b08      	subs	r3, #8
10006522:	469a      	mov	sl, r3
10006524:	3b04      	subs	r3, #4
10006526:	4698      	mov	r8, r3
10006528:	3b02      	subs	r3, #2
1000652a:	2100      	movs	r1, #0
1000652c:	469c      	mov	ip, r3
1000652e:	1c72      	adds	r2, r6, #1
10006530:	7810      	ldrb	r0, [r2, #0]
10006532:	0016      	movs	r6, r2
10006534:	0003      	movs	r3, r0
10006536:	3b20      	subs	r3, #32
10006538:	b2db      	uxtb	r3, r3
1000653a:	2b10      	cmp	r3, #16
1000653c:	d803      	bhi.n	10006546 <_vsnprintf+0x7e>
1000653e:	4fb3      	ldr	r7, [pc, #716]	; (1000680c <_vsnprintf+0x344>)
10006540:	009b      	lsls	r3, r3, #2
10006542:	58fb      	ldr	r3, [r7, r3]
10006544:	469f      	mov	pc, r3
10006546:	0003      	movs	r3, r0
10006548:	3b30      	subs	r3, #48	; 0x30
1000654a:	2b09      	cmp	r3, #9
1000654c:	d932      	bls.n	100065b4 <_vsnprintf+0xec>
1000654e:	2300      	movs	r3, #0
10006550:	930a      	str	r3, [sp, #40]	; 0x28
10006552:	282a      	cmp	r0, #42	; 0x2a
10006554:	d068      	beq.n	10006628 <_vsnprintf+0x160>
10006556:	2300      	movs	r3, #0
10006558:	4698      	mov	r8, r3
1000655a:	282e      	cmp	r0, #46	; 0x2e
1000655c:	d03e      	beq.n	100065dc <_vsnprintf+0x114>
1000655e:	0003      	movs	r3, r0
10006560:	3b68      	subs	r3, #104	; 0x68
10006562:	b2db      	uxtb	r3, r3
10006564:	2b12      	cmp	r3, #18
10006566:	d81c      	bhi.n	100065a2 <_vsnprintf+0xda>
10006568:	4aa9      	ldr	r2, [pc, #676]	; (10006810 <_vsnprintf+0x348>)
1000656a:	009b      	lsls	r3, r3, #2
1000656c:	58d3      	ldr	r3, [r2, r3]
1000656e:	469f      	mov	pc, r3
10006570:	2301      	movs	r3, #1
10006572:	3201      	adds	r2, #1
10006574:	4319      	orrs	r1, r3
10006576:	e7db      	b.n	10006530 <_vsnprintf+0x68>
10006578:	4663      	mov	r3, ip
1000657a:	3201      	adds	r2, #1
1000657c:	4319      	orrs	r1, r3
1000657e:	e7d7      	b.n	10006530 <_vsnprintf+0x68>
10006580:	4643      	mov	r3, r8
10006582:	3201      	adds	r2, #1
10006584:	4319      	orrs	r1, r3
10006586:	e7d3      	b.n	10006530 <_vsnprintf+0x68>
10006588:	465b      	mov	r3, fp
1000658a:	3201      	adds	r2, #1
1000658c:	4319      	orrs	r1, r3
1000658e:	e7cf      	b.n	10006530 <_vsnprintf+0x68>
10006590:	4653      	mov	r3, sl
10006592:	3201      	adds	r2, #1
10006594:	4319      	orrs	r1, r3
10006596:	e7cb      	b.n	10006530 <_vsnprintf+0x68>
10006598:	2380      	movs	r3, #128	; 0x80
1000659a:	005b      	lsls	r3, r3, #1
1000659c:	7870      	ldrb	r0, [r6, #1]
1000659e:	4319      	orrs	r1, r3
100065a0:	3601      	adds	r6, #1
100065a2:	0003      	movs	r3, r0
100065a4:	3b25      	subs	r3, #37	; 0x25
100065a6:	b2db      	uxtb	r3, r3
100065a8:	2b53      	cmp	r3, #83	; 0x53
100065aa:	d8aa      	bhi.n	10006502 <_vsnprintf+0x3a>
100065ac:	4a99      	ldr	r2, [pc, #612]	; (10006814 <_vsnprintf+0x34c>)
100065ae:	009b      	lsls	r3, r3, #2
100065b0:	58d3      	ldr	r3, [r2, r3]
100065b2:	469f      	mov	pc, r3
100065b4:	2700      	movs	r7, #0
100065b6:	0003      	movs	r3, r0
100065b8:	00b8      	lsls	r0, r7, #2
100065ba:	19c0      	adds	r0, r0, r7
100065bc:	3601      	adds	r6, #1
100065be:	0040      	lsls	r0, r0, #1
100065c0:	18c0      	adds	r0, r0, r3
100065c2:	7833      	ldrb	r3, [r6, #0]
100065c4:	3830      	subs	r0, #48	; 0x30
100065c6:	001a      	movs	r2, r3
100065c8:	3a30      	subs	r2, #48	; 0x30
100065ca:	0007      	movs	r7, r0
100065cc:	2a09      	cmp	r2, #9
100065ce:	d9f3      	bls.n	100065b8 <_vsnprintf+0xf0>
100065d0:	900a      	str	r0, [sp, #40]	; 0x28
100065d2:	0018      	movs	r0, r3
100065d4:	2300      	movs	r3, #0
100065d6:	4698      	mov	r8, r3
100065d8:	282e      	cmp	r0, #46	; 0x2e
100065da:	d1c0      	bne.n	1000655e <_vsnprintf+0x96>
100065dc:	2380      	movs	r3, #128	; 0x80
100065de:	7870      	ldrb	r0, [r6, #1]
100065e0:	00db      	lsls	r3, r3, #3
100065e2:	4319      	orrs	r1, r3
100065e4:	0003      	movs	r3, r0
100065e6:	3b30      	subs	r3, #48	; 0x30
100065e8:	1c72      	adds	r2, r6, #1
100065ea:	2b09      	cmp	r3, #9
100065ec:	d800      	bhi.n	100065f0 <_vsnprintf+0x128>
100065ee:	e1a1      	b.n	10006934 <_vsnprintf+0x46c>
100065f0:	282a      	cmp	r0, #42	; 0x2a
100065f2:	d100      	bne.n	100065f6 <_vsnprintf+0x12e>
100065f4:	e1b2      	b.n	1000695c <_vsnprintf+0x494>
100065f6:	0016      	movs	r6, r2
100065f8:	e7b1      	b.n	1000655e <_vsnprintf+0x96>
100065fa:	46a3      	mov	fp, r4
100065fc:	46aa      	mov	sl, r5
100065fe:	002c      	movs	r4, r5
10006600:	45d1      	cmp	r9, sl
10006602:	d803      	bhi.n	1000660c <_vsnprintf+0x144>
10006604:	2301      	movs	r3, #1
10006606:	425b      	negs	r3, r3
10006608:	444b      	add	r3, r9
1000660a:	469a      	mov	sl, r3
1000660c:	464b      	mov	r3, r9
1000660e:	4652      	mov	r2, sl
10006610:	4659      	mov	r1, fp
10006612:	2000      	movs	r0, #0
10006614:	9d08      	ldr	r5, [sp, #32]
10006616:	47a8      	blx	r5
10006618:	0020      	movs	r0, r4
1000661a:	b01f      	add	sp, #124	; 0x7c
1000661c:	bcf0      	pop	{r4, r5, r6, r7}
1000661e:	46bb      	mov	fp, r7
10006620:	46b2      	mov	sl, r6
10006622:	46a9      	mov	r9, r5
10006624:	46a0      	mov	r8, r4
10006626:	bdf0      	pop	{r4, r5, r6, r7, pc}
10006628:	9b09      	ldr	r3, [sp, #36]	; 0x24
1000662a:	cb40      	ldmia	r3!, {r6}
1000662c:	960a      	str	r6, [sp, #40]	; 0x28
1000662e:	2e00      	cmp	r6, #0
10006630:	db03      	blt.n	1000663a <_vsnprintf+0x172>
10006632:	7850      	ldrb	r0, [r2, #1]
10006634:	9309      	str	r3, [sp, #36]	; 0x24
10006636:	1c56      	adds	r6, r2, #1
10006638:	e78d      	b.n	10006556 <_vsnprintf+0x8e>
1000663a:	3828      	subs	r0, #40	; 0x28
1000663c:	4301      	orrs	r1, r0
1000663e:	4270      	negs	r0, r6
10006640:	900a      	str	r0, [sp, #40]	; 0x28
10006642:	9309      	str	r3, [sp, #36]	; 0x24
10006644:	7850      	ldrb	r0, [r2, #1]
10006646:	1c56      	adds	r6, r2, #1
10006648:	e785      	b.n	10006556 <_vsnprintf+0x8e>
1000664a:	2878      	cmp	r0, #120	; 0x78
1000664c:	d100      	bne.n	10006650 <_vsnprintf+0x188>
1000664e:	e1df      	b.n	10006a10 <_vsnprintf+0x548>
10006650:	2858      	cmp	r0, #88	; 0x58
10006652:	d100      	bne.n	10006656 <_vsnprintf+0x18e>
10006654:	e24c      	b.n	10006af0 <_vsnprintf+0x628>
10006656:	286f      	cmp	r0, #111	; 0x6f
10006658:	d100      	bne.n	1000665c <_vsnprintf+0x194>
1000665a:	e34f      	b.n	10006cfc <_vsnprintf+0x834>
1000665c:	2862      	cmp	r0, #98	; 0x62
1000665e:	d101      	bne.n	10006664 <_vsnprintf+0x19c>
10006660:	f000 fc30 	bl	10006ec4 <_vsnprintf+0x9fc>
10006664:	2310      	movs	r3, #16
10006666:	000a      	movs	r2, r1
10006668:	439a      	bics	r2, r3
1000666a:	920b      	str	r2, [sp, #44]	; 0x2c
1000666c:	2869      	cmp	r0, #105	; 0x69
1000666e:	d001      	beq.n	10006674 <_vsnprintf+0x1ac>
10006670:	f000 fca9 	bl	10006fc6 <_vsnprintf+0xafe>
10006674:	230a      	movs	r3, #10
10006676:	930c      	str	r3, [sp, #48]	; 0x30
10006678:	054b      	lsls	r3, r1, #21
1000667a:	d500      	bpl.n	1000667e <_vsnprintf+0x1b6>
1000667c:	e1d0      	b.n	10006a20 <_vsnprintf+0x558>
1000667e:	9a0b      	ldr	r2, [sp, #44]	; 0x2c
10006680:	2380      	movs	r3, #128	; 0x80
10006682:	0011      	movs	r1, r2
10006684:	009b      	lsls	r3, r3, #2
10006686:	4019      	ands	r1, r3
10006688:	468b      	mov	fp, r1
1000668a:	421a      	tst	r2, r3
1000668c:	d000      	beq.n	10006690 <_vsnprintf+0x1c8>
1000668e:	e2a1      	b.n	10006bd4 <_vsnprintf+0x70c>
10006690:	2380      	movs	r3, #128	; 0x80
10006692:	0011      	movs	r1, r2
10006694:	005b      	lsls	r3, r3, #1
10006696:	4019      	ands	r1, r3
10006698:	468a      	mov	sl, r1
1000669a:	421a      	tst	r2, r3
1000669c:	d000      	beq.n	100066a0 <_vsnprintf+0x1d8>
1000669e:	e3b6      	b.n	10006e0e <_vsnprintf+0x946>
100066a0:	0013      	movs	r3, r2
100066a2:	065b      	lsls	r3, r3, #25
100066a4:	d500      	bpl.n	100066a8 <_vsnprintf+0x1e0>
100066a6:	e2ed      	b.n	10006c84 <_vsnprintf+0x7bc>
100066a8:	0013      	movs	r3, r2
100066aa:	9909      	ldr	r1, [sp, #36]	; 0x24
100066ac:	061b      	lsls	r3, r3, #24
100066ae:	d401      	bmi.n	100066b4 <_vsnprintf+0x1ec>
100066b0:	f000 fc76 	bl	10006fa0 <_vsnprintf+0xad8>
100066b4:	c908      	ldmia	r1!, {r3}
100066b6:	b21b      	sxth	r3, r3
100066b8:	17d8      	asrs	r0, r3, #31
100066ba:	181a      	adds	r2, r3, r0
100066bc:	4042      	eors	r2, r0
100066be:	b292      	uxth	r2, r2
100066c0:	9109      	str	r1, [sp, #36]	; 0x24
100066c2:	4693      	mov	fp, r2
100066c4:	0fda      	lsrs	r2, r3, #31
100066c6:	9212      	str	r2, [sp, #72]	; 0x48
100066c8:	2b00      	cmp	r3, #0
100066ca:	d109      	bne.n	100066e0 <_vsnprintf+0x218>
100066cc:	2380      	movs	r3, #128	; 0x80
100066ce:	2210      	movs	r2, #16
100066d0:	990b      	ldr	r1, [sp, #44]	; 0x2c
100066d2:	00db      	lsls	r3, r3, #3
100066d4:	400b      	ands	r3, r1
100066d6:	4391      	bics	r1, r2
100066d8:	910b      	str	r1, [sp, #44]	; 0x2c
100066da:	2b00      	cmp	r3, #0
100066dc:	d000      	beq.n	100066e0 <_vsnprintf+0x218>
100066de:	e2e4      	b.n	10006caa <_vsnprintf+0x7e2>
100066e0:	9a0b      	ldr	r2, [sp, #44]	; 0x2c
100066e2:	2361      	movs	r3, #97	; 0x61
100066e4:	0692      	lsls	r2, r2, #26
100066e6:	d500      	bpl.n	100066ea <_vsnprintf+0x222>
100066e8:	2341      	movs	r3, #65	; 0x41
100066ea:	a90e      	add	r1, sp, #56	; 0x38
100066ec:	221f      	movs	r2, #31
100066ee:	468c      	mov	ip, r1
100066f0:	b2db      	uxtb	r3, r3
100066f2:	4462      	add	r2, ip
100066f4:	3b0a      	subs	r3, #10
100066f6:	465f      	mov	r7, fp
100066f8:	9513      	str	r5, [sp, #76]	; 0x4c
100066fa:	46a3      	mov	fp, r4
100066fc:	4655      	mov	r5, sl
100066fe:	9c0c      	ldr	r4, [sp, #48]	; 0x30
10006700:	46b2      	mov	sl, r6
10006702:	930d      	str	r3, [sp, #52]	; 0x34
10006704:	0016      	movs	r6, r2
10006706:	e00a      	b.n	1000671e <_vsnprintf+0x256>
10006708:	3330      	adds	r3, #48	; 0x30
1000670a:	b2db      	uxtb	r3, r3
1000670c:	3501      	adds	r5, #1
1000670e:	5573      	strb	r3, [r6, r5]
10006710:	42a7      	cmp	r7, r4
10006712:	d200      	bcs.n	10006716 <_vsnprintf+0x24e>
10006714:	e2ed      	b.n	10006cf2 <_vsnprintf+0x82a>
10006716:	2d20      	cmp	r5, #32
10006718:	d100      	bne.n	1000671c <_vsnprintf+0x254>
1000671a:	e2ea      	b.n	10006cf2 <_vsnprintf+0x82a>
1000671c:	0007      	movs	r7, r0
1000671e:	0021      	movs	r1, r4
10006720:	0038      	movs	r0, r7
10006722:	f000 fcf7 	bl	10007114 <__wrap___aeabi_uidiv>
10006726:	b2cb      	uxtb	r3, r1
10006728:	2909      	cmp	r1, #9
1000672a:	d9ed      	bls.n	10006708 <_vsnprintf+0x240>
1000672c:	9a0d      	ldr	r2, [sp, #52]	; 0x34
1000672e:	4694      	mov	ip, r2
10006730:	4463      	add	r3, ip
10006732:	b2db      	uxtb	r3, r3
10006734:	e7ea      	b.n	1000670c <_vsnprintf+0x244>
10006736:	2380      	movs	r3, #128	; 0x80
10006738:	009b      	lsls	r3, r3, #2
1000673a:	7870      	ldrb	r0, [r6, #1]
1000673c:	4319      	orrs	r1, r3
1000673e:	3601      	adds	r6, #1
10006740:	e72f      	b.n	100065a2 <_vsnprintf+0xda>
10006742:	7870      	ldrb	r0, [r6, #1]
10006744:	2868      	cmp	r0, #104	; 0x68
10006746:	d100      	bne.n	1000674a <_vsnprintf+0x282>
10006748:	e1cd      	b.n	10006ae6 <_vsnprintf+0x61e>
1000674a:	2380      	movs	r3, #128	; 0x80
1000674c:	3601      	adds	r6, #1
1000674e:	4319      	orrs	r1, r3
10006750:	e727      	b.n	100065a2 <_vsnprintf+0xda>
10006752:	7870      	ldrb	r0, [r6, #1]
10006754:	286c      	cmp	r0, #108	; 0x6c
10006756:	d100      	bne.n	1000675a <_vsnprintf+0x292>
10006758:	e1bf      	b.n	10006ada <_vsnprintf+0x612>
1000675a:	2380      	movs	r3, #128	; 0x80
1000675c:	005b      	lsls	r3, r3, #1
1000675e:	4319      	orrs	r1, r3
10006760:	3601      	adds	r6, #1
10006762:	e71e      	b.n	100065a2 <_vsnprintf+0xda>
10006764:	2846      	cmp	r0, #70	; 0x46
10006766:	d100      	bne.n	1000676a <_vsnprintf+0x2a2>
10006768:	e19b      	b.n	10006aa2 <_vsnprintf+0x5da>
1000676a:	2207      	movs	r2, #7
1000676c:	9b09      	ldr	r3, [sp, #36]	; 0x24
1000676e:	9104      	str	r1, [sp, #16]
10006770:	3307      	adds	r3, #7
10006772:	4393      	bics	r3, r2
10006774:	9a0a      	ldr	r2, [sp, #40]	; 0x28
10006776:	0019      	movs	r1, r3
10006778:	9203      	str	r2, [sp, #12]
1000677a:	4642      	mov	r2, r8
1000677c:	9202      	str	r2, [sp, #8]
1000677e:	c90c      	ldmia	r1!, {r2, r3}
10006780:	9808      	ldr	r0, [sp, #32]
10006782:	9200      	str	r2, [sp, #0]
10006784:	9301      	str	r3, [sp, #4]
10006786:	9109      	str	r1, [sp, #36]	; 0x24
10006788:	002a      	movs	r2, r5
1000678a:	464b      	mov	r3, r9
1000678c:	0021      	movs	r1, r4
1000678e:	f7ff fccf 	bl	10006130 <_ftoa>
10006792:	3601      	adds	r6, #1
10006794:	0005      	movs	r5, r0
10006796:	e6bc      	b.n	10006512 <_vsnprintf+0x4a>
10006798:	002a      	movs	r2, r5
1000679a:	1c6f      	adds	r7, r5, #1
1000679c:	464b      	mov	r3, r9
1000679e:	9d08      	ldr	r5, [sp, #32]
100067a0:	0021      	movs	r1, r4
100067a2:	2025      	movs	r0, #37	; 0x25
100067a4:	47a8      	blx	r5
100067a6:	3601      	adds	r6, #1
100067a8:	003d      	movs	r5, r7
100067aa:	e6b2      	b.n	10006512 <_vsnprintf+0x4a>
100067ac:	078b      	lsls	r3, r1, #30
100067ae:	d400      	bmi.n	100067b2 <_vsnprintf+0x2ea>
100067b0:	e1ad      	b.n	10006b0e <_vsnprintf+0x646>
100067b2:	9b09      	ldr	r3, [sp, #36]	; 0x24
100067b4:	002a      	movs	r2, r5
100067b6:	469a      	mov	sl, r3
100067b8:	1c6b      	adds	r3, r5, #1
100067ba:	4698      	mov	r8, r3
100067bc:	4653      	mov	r3, sl
100067be:	cb01      	ldmia	r3!, {r0}
100067c0:	0021      	movs	r1, r4
100067c2:	469a      	mov	sl, r3
100067c4:	9f08      	ldr	r7, [sp, #32]
100067c6:	464b      	mov	r3, r9
100067c8:	b2c0      	uxtb	r0, r0
100067ca:	47b8      	blx	r7
100067cc:	9b0a      	ldr	r3, [sp, #40]	; 0x28
100067ce:	469c      	mov	ip, r3
100067d0:	4465      	add	r5, ip
100067d2:	2b01      	cmp	r3, #1
100067d4:	d800      	bhi.n	100067d8 <_vsnprintf+0x310>
100067d6:	e286      	b.n	10006ce6 <_vsnprintf+0x81e>
100067d8:	9b08      	ldr	r3, [sp, #32]
100067da:	4647      	mov	r7, r8
100067dc:	46b0      	mov	r8, r6
100067de:	0026      	movs	r6, r4
100067e0:	464c      	mov	r4, r9
100067e2:	4699      	mov	r9, r3
100067e4:	003a      	movs	r2, r7
100067e6:	0023      	movs	r3, r4
100067e8:	3701      	adds	r7, #1
100067ea:	0031      	movs	r1, r6
100067ec:	2020      	movs	r0, #32
100067ee:	47c8      	blx	r9
100067f0:	42af      	cmp	r7, r5
100067f2:	d1f7      	bne.n	100067e4 <_vsnprintf+0x31c>
100067f4:	46a1      	mov	r9, r4
100067f6:	4653      	mov	r3, sl
100067f8:	0034      	movs	r4, r6
100067fa:	4646      	mov	r6, r8
100067fc:	9309      	str	r3, [sp, #36]	; 0x24
100067fe:	3601      	adds	r6, #1
10006800:	e687      	b.n	10006512 <_vsnprintf+0x4a>
10006802:	46c0      	nop			; (mov r8, r8)
10006804:	100064c9 	.word	0x100064c9
10006808:	20000658 	.word	0x20000658
1000680c:	1000900c 	.word	0x1000900c
10006810:	10009050 	.word	0x10009050
10006814:	1000909c 	.word	0x1000909c
10006818:	9b09      	ldr	r3, [sp, #36]	; 0x24
1000681a:	cb04      	ldmia	r3!, {r2}
1000681c:	469b      	mov	fp, r3
1000681e:	4643      	mov	r3, r8
10006820:	9209      	str	r2, [sp, #36]	; 0x24
10006822:	2b00      	cmp	r3, #0
10006824:	d100      	bne.n	10006828 <_vsnprintf+0x360>
10006826:	e0c6      	b.n	100069b6 <_vsnprintf+0x4ee>
10006828:	7813      	ldrb	r3, [r2, #0]
1000682a:	469c      	mov	ip, r3
1000682c:	2b00      	cmp	r3, #0
1000682e:	d100      	bne.n	10006832 <_vsnprintf+0x36a>
10006830:	e3bd      	b.n	10006fae <_vsnprintf+0xae6>
10006832:	4643      	mov	r3, r8
10006834:	3b01      	subs	r3, #1
10006836:	9a09      	ldr	r2, [sp, #36]	; 0x24
10006838:	3301      	adds	r3, #1
1000683a:	18d0      	adds	r0, r2, r3
1000683c:	9f0a      	ldr	r7, [sp, #40]	; 0x28
1000683e:	0013      	movs	r3, r2
10006840:	e001      	b.n	10006846 <_vsnprintf+0x37e>
10006842:	4283      	cmp	r3, r0
10006844:	d003      	beq.n	1000684e <_vsnprintf+0x386>
10006846:	785a      	ldrb	r2, [r3, #1]
10006848:	3301      	adds	r3, #1
1000684a:	2a00      	cmp	r2, #0
1000684c:	d1f9      	bne.n	10006842 <_vsnprintf+0x37a>
1000684e:	9a09      	ldr	r2, [sp, #36]	; 0x24
10006850:	970a      	str	r7, [sp, #40]	; 0x28
10006852:	1a9b      	subs	r3, r3, r2
10006854:	930b      	str	r3, [sp, #44]	; 0x2c
10006856:	2380      	movs	r3, #128	; 0x80
10006858:	000a      	movs	r2, r1
1000685a:	00db      	lsls	r3, r3, #3
1000685c:	401a      	ands	r2, r3
1000685e:	920c      	str	r2, [sp, #48]	; 0x30
10006860:	4219      	tst	r1, r3
10006862:	d004      	beq.n	1000686e <_vsnprintf+0x3a6>
10006864:	9b0b      	ldr	r3, [sp, #44]	; 0x2c
10006866:	4543      	cmp	r3, r8
10006868:	d901      	bls.n	1000686e <_vsnprintf+0x3a6>
1000686a:	4643      	mov	r3, r8
1000686c:	930b      	str	r3, [sp, #44]	; 0x2c
1000686e:	2302      	movs	r3, #2
10006870:	001a      	movs	r2, r3
10006872:	400a      	ands	r2, r1
10006874:	920d      	str	r2, [sp, #52]	; 0x34
10006876:	420b      	tst	r3, r1
10006878:	d100      	bne.n	1000687c <_vsnprintf+0x3b4>
1000687a:	e187      	b.n	10006b8c <_vsnprintf+0x6c4>
1000687c:	4660      	mov	r0, ip
1000687e:	2800      	cmp	r0, #0
10006880:	d100      	bne.n	10006884 <_vsnprintf+0x3bc>
10006882:	e168      	b.n	10006b56 <_vsnprintf+0x68e>
10006884:	9b0c      	ldr	r3, [sp, #48]	; 0x30
10006886:	2b00      	cmp	r3, #0
10006888:	d100      	bne.n	1000688c <_vsnprintf+0x3c4>
1000688a:	e10d      	b.n	10006aa8 <_vsnprintf+0x5e0>
1000688c:	44a8      	add	r8, r5
1000688e:	46c2      	mov	sl, r8
10006890:	9b09      	ldr	r3, [sp, #36]	; 0x24
10006892:	4657      	mov	r7, sl
10006894:	1b5b      	subs	r3, r3, r5
10006896:	4698      	mov	r8, r3
10006898:	9b08      	ldr	r3, [sp, #32]
1000689a:	46b2      	mov	sl, r6
1000689c:	002a      	movs	r2, r5
1000689e:	0026      	movs	r6, r4
100068a0:	464c      	mov	r4, r9
100068a2:	4699      	mov	r9, r3
100068a4:	e009      	b.n	100068ba <_vsnprintf+0x3f2>
100068a6:	0023      	movs	r3, r4
100068a8:	0031      	movs	r1, r6
100068aa:	1c55      	adds	r5, r2, #1
100068ac:	47c8      	blx	r9
100068ae:	4643      	mov	r3, r8
100068b0:	5d58      	ldrb	r0, [r3, r5]
100068b2:	2800      	cmp	r0, #0
100068b4:	d100      	bne.n	100068b8 <_vsnprintf+0x3f0>
100068b6:	e126      	b.n	10006b06 <_vsnprintf+0x63e>
100068b8:	002a      	movs	r2, r5
100068ba:	4297      	cmp	r7, r2
100068bc:	d1f3      	bne.n	100068a6 <_vsnprintf+0x3de>
100068be:	46a1      	mov	r9, r4
100068c0:	003d      	movs	r5, r7
100068c2:	0034      	movs	r4, r6
100068c4:	4656      	mov	r6, sl
100068c6:	9b0d      	ldr	r3, [sp, #52]	; 0x34
100068c8:	2b00      	cmp	r3, #0
100068ca:	d000      	beq.n	100068ce <_vsnprintf+0x406>
100068cc:	e143      	b.n	10006b56 <_vsnprintf+0x68e>
100068ce:	465b      	mov	r3, fp
100068d0:	3601      	adds	r6, #1
100068d2:	9309      	str	r3, [sp, #36]	; 0x24
100068d4:	e61d      	b.n	10006512 <_vsnprintf+0x4a>
100068d6:	9b09      	ldr	r3, [sp, #36]	; 0x24
100068d8:	001a      	movs	r2, r3
100068da:	ca08      	ldmia	r2!, {r3}
100068dc:	4692      	mov	sl, r2
100068de:	2b00      	cmp	r3, #0
100068e0:	d048      	beq.n	10006974 <_vsnprintf+0x4ac>
100068e2:	2221      	movs	r2, #33	; 0x21
100068e4:	4311      	orrs	r1, r2
100068e6:	468b      	mov	fp, r1
100068e8:	a80e      	add	r0, sp, #56	; 0x38
100068ea:	4684      	mov	ip, r0
100068ec:	211f      	movs	r1, #31
100068ee:	4461      	add	r1, ip
100068f0:	9509      	str	r5, [sp, #36]	; 0x24
100068f2:	2200      	movs	r2, #0
100068f4:	270f      	movs	r7, #15
100068f6:	46a4      	mov	ip, r4
100068f8:	000d      	movs	r5, r1
100068fa:	e002      	b.n	10006902 <_vsnprintf+0x43a>
100068fc:	2a20      	cmp	r2, #32
100068fe:	d00c      	beq.n	1000691a <_vsnprintf+0x452>
10006900:	000b      	movs	r3, r1
10006902:	003c      	movs	r4, r7
10006904:	401c      	ands	r4, r3
10006906:	0020      	movs	r0, r4
10006908:	3037      	adds	r0, #55	; 0x37
1000690a:	2c09      	cmp	r4, #9
1000690c:	d800      	bhi.n	10006910 <_vsnprintf+0x448>
1000690e:	3807      	subs	r0, #7
10006910:	3201      	adds	r2, #1
10006912:	54a8      	strb	r0, [r5, r2]
10006914:	0919      	lsrs	r1, r3, #4
10006916:	2b0f      	cmp	r3, #15
10006918:	d8f0      	bhi.n	100068fc <_vsnprintf+0x434>
1000691a:	4664      	mov	r4, ip
1000691c:	9d09      	ldr	r5, [sp, #36]	; 0x24
1000691e:	e032      	b.n	10006986 <_vsnprintf+0x4be>
10006920:	4bdc      	ldr	r3, [pc, #880]	; (10006c94 <_vsnprintf+0x7cc>)
10006922:	7820      	ldrb	r0, [r4, #0]
10006924:	9308      	str	r3, [sp, #32]
10006926:	2300      	movs	r3, #0
10006928:	469a      	mov	sl, r3
1000692a:	2800      	cmp	r0, #0
1000692c:	d000      	beq.n	10006930 <_vsnprintf+0x468>
1000692e:	e5e4      	b.n	100064fa <_vsnprintf+0x32>
10006930:	2400      	movs	r4, #0
10006932:	e665      	b.n	10006600 <_vsnprintf+0x138>
10006934:	4643      	mov	r3, r8
10006936:	0006      	movs	r6, r0
10006938:	9f0a      	ldr	r7, [sp, #40]	; 0x28
1000693a:	0098      	lsls	r0, r3, #2
1000693c:	18c0      	adds	r0, r0, r3
1000693e:	3201      	adds	r2, #1
10006940:	0040      	lsls	r0, r0, #1
10006942:	1980      	adds	r0, r0, r6
10006944:	7816      	ldrb	r6, [r2, #0]
10006946:	0003      	movs	r3, r0
10006948:	0030      	movs	r0, r6
1000694a:	3830      	subs	r0, #48	; 0x30
1000694c:	3b30      	subs	r3, #48	; 0x30
1000694e:	2809      	cmp	r0, #9
10006950:	d9f3      	bls.n	1000693a <_vsnprintf+0x472>
10006952:	0030      	movs	r0, r6
10006954:	4698      	mov	r8, r3
10006956:	0016      	movs	r6, r2
10006958:	970a      	str	r7, [sp, #40]	; 0x28
1000695a:	e600      	b.n	1000655e <_vsnprintf+0x96>
1000695c:	9b09      	ldr	r3, [sp, #36]	; 0x24
1000695e:	3602      	adds	r6, #2
10006960:	cb04      	ldmia	r3!, {r2}
10006962:	4690      	mov	r8, r2
10006964:	43d2      	mvns	r2, r2
10006966:	4640      	mov	r0, r8
10006968:	17d2      	asrs	r2, r2, #31
1000696a:	4010      	ands	r0, r2
1000696c:	4680      	mov	r8, r0
1000696e:	9309      	str	r3, [sp, #36]	; 0x24
10006970:	7830      	ldrb	r0, [r6, #0]
10006972:	e5f4      	b.n	1000655e <_vsnprintf+0x96>
10006974:	2210      	movs	r2, #16
10006976:	0008      	movs	r0, r1
10006978:	4390      	bics	r0, r2
1000697a:	3211      	adds	r2, #17
1000697c:	4310      	orrs	r0, r2
1000697e:	4683      	mov	fp, r0
10006980:	2200      	movs	r2, #0
10006982:	0549      	lsls	r1, r1, #21
10006984:	d5b0      	bpl.n	100068e8 <_vsnprintf+0x420>
10006986:	465b      	mov	r3, fp
10006988:	9306      	str	r3, [sp, #24]
1000698a:	2308      	movs	r3, #8
1000698c:	9305      	str	r3, [sp, #20]
1000698e:	4643      	mov	r3, r8
10006990:	9304      	str	r3, [sp, #16]
10006992:	2310      	movs	r3, #16
10006994:	9303      	str	r3, [sp, #12]
10006996:	2300      	movs	r3, #0
10006998:	9302      	str	r3, [sp, #8]
1000699a:	ab16      	add	r3, sp, #88	; 0x58
1000699c:	9201      	str	r2, [sp, #4]
1000699e:	9300      	str	r3, [sp, #0]
100069a0:	002a      	movs	r2, r5
100069a2:	464b      	mov	r3, r9
100069a4:	0021      	movs	r1, r4
100069a6:	9808      	ldr	r0, [sp, #32]
100069a8:	f7ff f8a6 	bl	10005af8 <_ntoa_format>
100069ac:	4653      	mov	r3, sl
100069ae:	0005      	movs	r5, r0
100069b0:	3601      	adds	r6, #1
100069b2:	9309      	str	r3, [sp, #36]	; 0x24
100069b4:	e5ad      	b.n	10006512 <_vsnprintf+0x4a>
100069b6:	7813      	ldrb	r3, [r2, #0]
100069b8:	469c      	mov	ip, r3
100069ba:	2b00      	cmp	r3, #0
100069bc:	d100      	bne.n	100069c0 <_vsnprintf+0x4f8>
100069be:	e2f7      	b.n	10006fb0 <_vsnprintf+0xae8>
100069c0:	2302      	movs	r3, #2
100069c2:	425b      	negs	r3, r3
100069c4:	e737      	b.n	10006836 <_vsnprintf+0x36e>
100069c6:	2320      	movs	r3, #32
100069c8:	0002      	movs	r2, r0
100069ca:	439a      	bics	r2, r3
100069cc:	2a47      	cmp	r2, #71	; 0x47
100069ce:	d104      	bne.n	100069da <_vsnprintf+0x512>
100069d0:	2380      	movs	r3, #128	; 0x80
100069d2:	011b      	lsls	r3, r3, #4
100069d4:	4319      	orrs	r1, r3
100069d6:	2302      	movs	r3, #2
100069d8:	4398      	bics	r0, r3
100069da:	2845      	cmp	r0, #69	; 0x45
100069dc:	d101      	bne.n	100069e2 <_vsnprintf+0x51a>
100069de:	2320      	movs	r3, #32
100069e0:	4319      	orrs	r1, r3
100069e2:	2207      	movs	r2, #7
100069e4:	9b09      	ldr	r3, [sp, #36]	; 0x24
100069e6:	9104      	str	r1, [sp, #16]
100069e8:	3307      	adds	r3, #7
100069ea:	4393      	bics	r3, r2
100069ec:	9a0a      	ldr	r2, [sp, #40]	; 0x28
100069ee:	0019      	movs	r1, r3
100069f0:	9203      	str	r2, [sp, #12]
100069f2:	4642      	mov	r2, r8
100069f4:	9202      	str	r2, [sp, #8]
100069f6:	c90c      	ldmia	r1!, {r2, r3}
100069f8:	9808      	ldr	r0, [sp, #32]
100069fa:	9200      	str	r2, [sp, #0]
100069fc:	9301      	str	r3, [sp, #4]
100069fe:	9109      	str	r1, [sp, #36]	; 0x24
10006a00:	002a      	movs	r2, r5
10006a02:	464b      	mov	r3, r9
10006a04:	0021      	movs	r1, r4
10006a06:	f7ff f96d 	bl	10005ce4 <_etoa>
10006a0a:	3601      	adds	r6, #1
10006a0c:	0005      	movs	r5, r0
10006a0e:	e580      	b.n	10006512 <_vsnprintf+0x4a>
10006a10:	2310      	movs	r3, #16
10006a12:	930c      	str	r3, [sp, #48]	; 0x30
10006a14:	230c      	movs	r3, #12
10006a16:	000a      	movs	r2, r1
10006a18:	439a      	bics	r2, r3
10006a1a:	920b      	str	r2, [sp, #44]	; 0x2c
10006a1c:	054b      	lsls	r3, r1, #21
10006a1e:	d503      	bpl.n	10006a28 <_vsnprintf+0x560>
10006a20:	2301      	movs	r3, #1
10006a22:	9a0b      	ldr	r2, [sp, #44]	; 0x2c
10006a24:	439a      	bics	r2, r3
10006a26:	920b      	str	r2, [sp, #44]	; 0x2c
10006a28:	2869      	cmp	r0, #105	; 0x69
10006a2a:	d100      	bne.n	10006a2e <_vsnprintf+0x566>
10006a2c:	e627      	b.n	1000667e <_vsnprintf+0x1b6>
10006a2e:	2864      	cmp	r0, #100	; 0x64
10006a30:	d100      	bne.n	10006a34 <_vsnprintf+0x56c>
10006a32:	e624      	b.n	1000667e <_vsnprintf+0x1b6>
10006a34:	9a0b      	ldr	r2, [sp, #44]	; 0x2c
10006a36:	2380      	movs	r3, #128	; 0x80
10006a38:	0011      	movs	r1, r2
10006a3a:	009b      	lsls	r3, r3, #2
10006a3c:	4019      	ands	r1, r3
10006a3e:	468b      	mov	fp, r1
10006a40:	421a      	tst	r2, r3
10006a42:	d000      	beq.n	10006a46 <_vsnprintf+0x57e>
10006a44:	e166      	b.n	10006d14 <_vsnprintf+0x84c>
10006a46:	2380      	movs	r3, #128	; 0x80
10006a48:	0011      	movs	r1, r2
10006a4a:	005b      	lsls	r3, r3, #1
10006a4c:	4019      	ands	r1, r3
10006a4e:	468a      	mov	sl, r1
10006a50:	421a      	tst	r2, r3
10006a52:	d000      	beq.n	10006a56 <_vsnprintf+0x58e>
10006a54:	e239      	b.n	10006eca <_vsnprintf+0xa02>
10006a56:	0013      	movs	r3, r2
10006a58:	065b      	lsls	r3, r3, #25
10006a5a:	d500      	bpl.n	10006a5e <_vsnprintf+0x596>
10006a5c:	e13c      	b.n	10006cd8 <_vsnprintf+0x810>
10006a5e:	0013      	movs	r3, r2
10006a60:	061b      	lsls	r3, r3, #24
10006a62:	d400      	bmi.n	10006a66 <_vsnprintf+0x59e>
10006a64:	e2a6      	b.n	10006fb4 <_vsnprintf+0xaec>
10006a66:	9b09      	ldr	r3, [sp, #36]	; 0x24
10006a68:	cb04      	ldmia	r3!, {r2}
10006a6a:	0412      	lsls	r2, r2, #16
10006a6c:	0c12      	lsrs	r2, r2, #16
10006a6e:	4693      	mov	fp, r2
10006a70:	9309      	str	r3, [sp, #36]	; 0x24
10006a72:	465b      	mov	r3, fp
10006a74:	2b00      	cmp	r3, #0
10006a76:	d000      	beq.n	10006a7a <_vsnprintf+0x5b2>
10006a78:	e19a      	b.n	10006db0 <_vsnprintf+0x8e8>
10006a7a:	9a0b      	ldr	r2, [sp, #44]	; 0x2c
10006a7c:	3310      	adds	r3, #16
10006a7e:	0011      	movs	r1, r2
10006a80:	4399      	bics	r1, r3
10006a82:	910b      	str	r1, [sp, #44]	; 0x2c
10006a84:	0552      	lsls	r2, r2, #21
10006a86:	d400      	bmi.n	10006a8a <_vsnprintf+0x5c2>
10006a88:	e192      	b.n	10006db0 <_vsnprintf+0x8e8>
10006a8a:	2300      	movs	r3, #0
10006a8c:	469a      	mov	sl, r3
10006a8e:	9b0b      	ldr	r3, [sp, #44]	; 0x2c
10006a90:	9306      	str	r3, [sp, #24]
10006a92:	9b0a      	ldr	r3, [sp, #40]	; 0x28
10006a94:	9305      	str	r3, [sp, #20]
10006a96:	4643      	mov	r3, r8
10006a98:	9304      	str	r3, [sp, #16]
10006a9a:	9b0c      	ldr	r3, [sp, #48]	; 0x30
10006a9c:	9303      	str	r3, [sp, #12]
10006a9e:	2300      	movs	r3, #0
10006aa0:	e10c      	b.n	10006cbc <_vsnprintf+0x7f4>
10006aa2:	2320      	movs	r3, #32
10006aa4:	4319      	orrs	r1, r3
10006aa6:	e660      	b.n	1000676a <_vsnprintf+0x2a2>
10006aa8:	9b09      	ldr	r3, [sp, #36]	; 0x24
10006aaa:	9a0a      	ldr	r2, [sp, #40]	; 0x28
10006aac:	1b5b      	subs	r3, r3, r5
10006aae:	4698      	mov	r8, r3
10006ab0:	464b      	mov	r3, r9
10006ab2:	4691      	mov	r9, r2
10006ab4:	001f      	movs	r7, r3
10006ab6:	46b2      	mov	sl, r6
10006ab8:	0026      	movs	r6, r4
10006aba:	9c08      	ldr	r4, [sp, #32]
10006abc:	002a      	movs	r2, r5
10006abe:	003b      	movs	r3, r7
10006ac0:	0031      	movs	r1, r6
10006ac2:	47a0      	blx	r4
10006ac4:	4643      	mov	r3, r8
10006ac6:	3501      	adds	r5, #1
10006ac8:	5d58      	ldrb	r0, [r3, r5]
10006aca:	2800      	cmp	r0, #0
10006acc:	d1f6      	bne.n	10006abc <_vsnprintf+0x5f4>
10006ace:	464a      	mov	r2, r9
10006ad0:	0034      	movs	r4, r6
10006ad2:	46b9      	mov	r9, r7
10006ad4:	4656      	mov	r6, sl
10006ad6:	920a      	str	r2, [sp, #40]	; 0x28
10006ad8:	e6f5      	b.n	100068c6 <_vsnprintf+0x3fe>
10006ada:	23c0      	movs	r3, #192	; 0xc0
10006adc:	009b      	lsls	r3, r3, #2
10006ade:	78b0      	ldrb	r0, [r6, #2]
10006ae0:	4319      	orrs	r1, r3
10006ae2:	3602      	adds	r6, #2
10006ae4:	e55d      	b.n	100065a2 <_vsnprintf+0xda>
10006ae6:	23c0      	movs	r3, #192	; 0xc0
10006ae8:	78b0      	ldrb	r0, [r6, #2]
10006aea:	4319      	orrs	r1, r3
10006aec:	3602      	adds	r6, #2
10006aee:	e558      	b.n	100065a2 <_vsnprintf+0xda>
10006af0:	230c      	movs	r3, #12
10006af2:	000a      	movs	r2, r1
10006af4:	439a      	bics	r2, r3
10006af6:	3314      	adds	r3, #20
10006af8:	431a      	orrs	r2, r3
10006afa:	3b10      	subs	r3, #16
10006afc:	920b      	str	r2, [sp, #44]	; 0x2c
10006afe:	930c      	str	r3, [sp, #48]	; 0x30
10006b00:	054b      	lsls	r3, r1, #21
10006b02:	d48d      	bmi.n	10006a20 <_vsnprintf+0x558>
10006b04:	e796      	b.n	10006a34 <_vsnprintf+0x56c>
10006b06:	46a1      	mov	r9, r4
10006b08:	0034      	movs	r4, r6
10006b0a:	4656      	mov	r6, sl
10006b0c:	e6db      	b.n	100068c6 <_vsnprintf+0x3fe>
10006b0e:	9a0a      	ldr	r2, [sp, #40]	; 0x28
10006b10:	2a01      	cmp	r2, #1
10006b12:	d800      	bhi.n	10006b16 <_vsnprintf+0x64e>
10006b14:	e253      	b.n	10006fbe <_vsnprintf+0xaf6>
10006b16:	1e6b      	subs	r3, r5, #1
10006b18:	189f      	adds	r7, r3, r2
10006b1a:	9b08      	ldr	r3, [sp, #32]
10006b1c:	46b0      	mov	r8, r6
10006b1e:	0026      	movs	r6, r4
10006b20:	464c      	mov	r4, r9
10006b22:	4699      	mov	r9, r3
10006b24:	002a      	movs	r2, r5
10006b26:	0023      	movs	r3, r4
10006b28:	3501      	adds	r5, #1
10006b2a:	0031      	movs	r1, r6
10006b2c:	2020      	movs	r0, #32
10006b2e:	47c8      	blx	r9
10006b30:	42bd      	cmp	r5, r7
10006b32:	d1f7      	bne.n	10006b24 <_vsnprintf+0x65c>
10006b34:	46a1      	mov	r9, r4
10006b36:	0034      	movs	r4, r6
10006b38:	4646      	mov	r6, r8
10006b3a:	9b09      	ldr	r3, [sp, #36]	; 0x24
10006b3c:	003a      	movs	r2, r7
10006b3e:	cb01      	ldmia	r3!, {r0}
10006b40:	0021      	movs	r1, r4
10006b42:	4698      	mov	r8, r3
10006b44:	1c7d      	adds	r5, r7, #1
10006b46:	464b      	mov	r3, r9
10006b48:	9f08      	ldr	r7, [sp, #32]
10006b4a:	b2c0      	uxtb	r0, r0
10006b4c:	47b8      	blx	r7
10006b4e:	4643      	mov	r3, r8
10006b50:	3601      	adds	r6, #1
10006b52:	9309      	str	r3, [sp, #36]	; 0x24
10006b54:	e4dd      	b.n	10006512 <_vsnprintf+0x4a>
10006b56:	9b0b      	ldr	r3, [sp, #44]	; 0x2c
10006b58:	9a0a      	ldr	r2, [sp, #40]	; 0x28
10006b5a:	46a8      	mov	r8, r5
10006b5c:	429a      	cmp	r2, r3
10006b5e:	d800      	bhi.n	10006b62 <_vsnprintf+0x69a>
10006b60:	e6b5      	b.n	100068ce <_vsnprintf+0x406>
10006b62:	4694      	mov	ip, r2
10006b64:	4465      	add	r5, ip
10006b66:	1aed      	subs	r5, r5, r3
10006b68:	9b08      	ldr	r3, [sp, #32]
10006b6a:	4647      	mov	r7, r8
10006b6c:	46b0      	mov	r8, r6
10006b6e:	0026      	movs	r6, r4
10006b70:	464c      	mov	r4, r9
10006b72:	4699      	mov	r9, r3
10006b74:	003a      	movs	r2, r7
10006b76:	0023      	movs	r3, r4
10006b78:	3701      	adds	r7, #1
10006b7a:	0031      	movs	r1, r6
10006b7c:	2020      	movs	r0, #32
10006b7e:	47c8      	blx	r9
10006b80:	42af      	cmp	r7, r5
10006b82:	d1f7      	bne.n	10006b74 <_vsnprintf+0x6ac>
10006b84:	46a1      	mov	r9, r4
10006b86:	0034      	movs	r4, r6
10006b88:	4646      	mov	r6, r8
10006b8a:	e6a0      	b.n	100068ce <_vsnprintf+0x406>
10006b8c:	9a0b      	ldr	r2, [sp, #44]	; 0x2c
10006b8e:	990a      	ldr	r1, [sp, #40]	; 0x28
10006b90:	1c53      	adds	r3, r2, #1
10006b92:	4291      	cmp	r1, r2
10006b94:	d800      	bhi.n	10006b98 <_vsnprintf+0x6d0>
10006b96:	e214      	b.n	10006fc2 <_vsnprintf+0xafa>
10006b98:	194b      	adds	r3, r1, r5
10006b9a:	1a9b      	subs	r3, r3, r2
10006b9c:	001f      	movs	r7, r3
10006b9e:	9b08      	ldr	r3, [sp, #32]
10006ba0:	46b2      	mov	sl, r6
10006ba2:	0026      	movs	r6, r4
10006ba4:	464c      	mov	r4, r9
10006ba6:	4699      	mov	r9, r3
10006ba8:	002a      	movs	r2, r5
10006baa:	0023      	movs	r3, r4
10006bac:	3501      	adds	r5, #1
10006bae:	0031      	movs	r1, r6
10006bb0:	2020      	movs	r0, #32
10006bb2:	47c8      	blx	r9
10006bb4:	42bd      	cmp	r5, r7
10006bb6:	d1f7      	bne.n	10006ba8 <_vsnprintf+0x6e0>
10006bb8:	9b0a      	ldr	r3, [sp, #40]	; 0x28
10006bba:	46a1      	mov	r9, r4
10006bbc:	3301      	adds	r3, #1
10006bbe:	930b      	str	r3, [sp, #44]	; 0x2c
10006bc0:	9b09      	ldr	r3, [sp, #36]	; 0x24
10006bc2:	0034      	movs	r4, r6
10006bc4:	781b      	ldrb	r3, [r3, #0]
10006bc6:	4656      	mov	r6, sl
10006bc8:	469c      	mov	ip, r3
10006bca:	4660      	mov	r0, ip
10006bcc:	2800      	cmp	r0, #0
10006bce:	d000      	beq.n	10006bd2 <_vsnprintf+0x70a>
10006bd0:	e658      	b.n	10006884 <_vsnprintf+0x3bc>
10006bd2:	e67c      	b.n	100068ce <_vsnprintf+0x406>
10006bd4:	2207      	movs	r2, #7
10006bd6:	9b09      	ldr	r3, [sp, #36]	; 0x24
10006bd8:	3307      	adds	r3, #7
10006bda:	4393      	bics	r3, r2
10006bdc:	3201      	adds	r2, #1
10006bde:	4694      	mov	ip, r2
10006be0:	449c      	add	ip, r3
10006be2:	4662      	mov	r2, ip
10006be4:	685f      	ldr	r7, [r3, #4]
10006be6:	9209      	str	r2, [sp, #36]	; 0x24
10006be8:	681a      	ldr	r2, [r3, #0]
10006bea:	17fb      	asrs	r3, r7, #31
10006bec:	9310      	str	r3, [sp, #64]	; 0x40
10006bee:	9311      	str	r3, [sp, #68]	; 0x44
10006bf0:	9810      	ldr	r0, [sp, #64]	; 0x40
10006bf2:	9911      	ldr	r1, [sp, #68]	; 0x44
10006bf4:	0003      	movs	r3, r0
10006bf6:	4053      	eors	r3, r2
10006bf8:	930e      	str	r3, [sp, #56]	; 0x38
10006bfa:	000b      	movs	r3, r1
10006bfc:	407b      	eors	r3, r7
10006bfe:	930f      	str	r3, [sp, #60]	; 0x3c
10006c00:	4694      	mov	ip, r2
10006c02:	9a0e      	ldr	r2, [sp, #56]	; 0x38
10006c04:	9b0f      	ldr	r3, [sp, #60]	; 0x3c
10006c06:	1a12      	subs	r2, r2, r0
10006c08:	418b      	sbcs	r3, r1
10006c0a:	920e      	str	r2, [sp, #56]	; 0x38
10006c0c:	930f      	str	r3, [sp, #60]	; 0x3c
10006c0e:	0ffb      	lsrs	r3, r7, #31
10006c10:	4662      	mov	r2, ip
10006c12:	9312      	str	r3, [sp, #72]	; 0x48
10006c14:	2300      	movs	r3, #0
10006c16:	433a      	orrs	r2, r7
10006c18:	469b      	mov	fp, r3
10006c1a:	d03d      	beq.n	10006c98 <_vsnprintf+0x7d0>
10006c1c:	9a0b      	ldr	r2, [sp, #44]	; 0x2c
10006c1e:	2361      	movs	r3, #97	; 0x61
10006c20:	0692      	lsls	r2, r2, #26
10006c22:	d500      	bpl.n	10006c26 <_vsnprintf+0x75e>
10006c24:	2341      	movs	r3, #65	; 0x41
10006c26:	2200      	movs	r2, #0
10006c28:	b2db      	uxtb	r3, r3
10006c2a:	a90e      	add	r1, sp, #56	; 0x38
10006c2c:	3b0a      	subs	r3, #10
10006c2e:	468c      	mov	ip, r1
10006c30:	4692      	mov	sl, r2
10006c32:	930d      	str	r3, [sp, #52]	; 0x34
10006c34:	4643      	mov	r3, r8
10006c36:	321f      	adds	r2, #31
10006c38:	4462      	add	r2, ip
10006c3a:	9513      	str	r5, [sp, #76]	; 0x4c
10006c3c:	9615      	str	r6, [sp, #84]	; 0x54
10006c3e:	4655      	mov	r5, sl
10006c40:	9e0e      	ldr	r6, [sp, #56]	; 0x38
10006c42:	9f0f      	ldr	r7, [sp, #60]	; 0x3c
10006c44:	46a2      	mov	sl, r4
10006c46:	4690      	mov	r8, r2
10006c48:	9c0c      	ldr	r4, [sp, #48]	; 0x30
10006c4a:	9314      	str	r3, [sp, #80]	; 0x50
10006c4c:	e00c      	b.n	10006c68 <_vsnprintf+0x7a0>
10006c4e:	3230      	adds	r2, #48	; 0x30
10006c50:	b2d2      	uxtb	r2, r2
10006c52:	4643      	mov	r3, r8
10006c54:	3501      	adds	r5, #1
10006c56:	555a      	strb	r2, [r3, r5]
10006c58:	45bb      	cmp	fp, r7
10006c5a:	d100      	bne.n	10006c5e <_vsnprintf+0x796>
10006c5c:	e18a      	b.n	10006f74 <_vsnprintf+0xaac>
10006c5e:	2d20      	cmp	r5, #32
10006c60:	d100      	bne.n	10006c64 <_vsnprintf+0x79c>
10006c62:	e18a      	b.n	10006f7a <_vsnprintf+0xab2>
10006c64:	0006      	movs	r6, r0
10006c66:	000f      	movs	r7, r1
10006c68:	0022      	movs	r2, r4
10006c6a:	2300      	movs	r3, #0
10006c6c:	0030      	movs	r0, r6
10006c6e:	0039      	movs	r1, r7
10006c70:	f000 fa8e 	bl	10007190 <__wrap___aeabi_uldivmod>
10006c74:	b2d2      	uxtb	r2, r2
10006c76:	2a09      	cmp	r2, #9
10006c78:	d9e9      	bls.n	10006c4e <_vsnprintf+0x786>
10006c7a:	9b0d      	ldr	r3, [sp, #52]	; 0x34
10006c7c:	469c      	mov	ip, r3
10006c7e:	4462      	add	r2, ip
10006c80:	b2d2      	uxtb	r2, r2
10006c82:	e7e6      	b.n	10006c52 <_vsnprintf+0x78a>
10006c84:	23ff      	movs	r3, #255	; 0xff
10006c86:	9909      	ldr	r1, [sp, #36]	; 0x24
10006c88:	c904      	ldmia	r1!, {r2}
10006c8a:	4013      	ands	r3, r2
10006c8c:	001a      	movs	r2, r3
10006c8e:	9109      	str	r1, [sp, #36]	; 0x24
10006c90:	e517      	b.n	100066c2 <_vsnprintf+0x1fa>
10006c92:	46c0      	nop			; (mov r8, r8)
10006c94:	10005a59 	.word	0x10005a59
10006c98:	9a0b      	ldr	r2, [sp, #44]	; 0x2c
10006c9a:	3310      	adds	r3, #16
10006c9c:	0011      	movs	r1, r2
10006c9e:	4399      	bics	r1, r3
10006ca0:	910b      	str	r1, [sp, #44]	; 0x2c
10006ca2:	0552      	lsls	r2, r2, #21
10006ca4:	d5ba      	bpl.n	10006c1c <_vsnprintf+0x754>
10006ca6:	2300      	movs	r3, #0
10006ca8:	469a      	mov	sl, r3
10006caa:	9b0b      	ldr	r3, [sp, #44]	; 0x2c
10006cac:	9306      	str	r3, [sp, #24]
10006cae:	9b0a      	ldr	r3, [sp, #40]	; 0x28
10006cb0:	9305      	str	r3, [sp, #20]
10006cb2:	4643      	mov	r3, r8
10006cb4:	9304      	str	r3, [sp, #16]
10006cb6:	9b0c      	ldr	r3, [sp, #48]	; 0x30
10006cb8:	9303      	str	r3, [sp, #12]
10006cba:	9b12      	ldr	r3, [sp, #72]	; 0x48
10006cbc:	9302      	str	r3, [sp, #8]
10006cbe:	4653      	mov	r3, sl
10006cc0:	9301      	str	r3, [sp, #4]
10006cc2:	ab16      	add	r3, sp, #88	; 0x58
10006cc4:	002a      	movs	r2, r5
10006cc6:	9300      	str	r3, [sp, #0]
10006cc8:	0021      	movs	r1, r4
10006cca:	464b      	mov	r3, r9
10006ccc:	9808      	ldr	r0, [sp, #32]
10006cce:	f7fe ff13 	bl	10005af8 <_ntoa_format>
10006cd2:	3601      	adds	r6, #1
10006cd4:	0005      	movs	r5, r0
10006cd6:	e41c      	b.n	10006512 <_vsnprintf+0x4a>
10006cd8:	22ff      	movs	r2, #255	; 0xff
10006cda:	9b09      	ldr	r3, [sp, #36]	; 0x24
10006cdc:	cb02      	ldmia	r3!, {r1}
10006cde:	4011      	ands	r1, r2
10006ce0:	468b      	mov	fp, r1
10006ce2:	9309      	str	r3, [sp, #36]	; 0x24
10006ce4:	e6c5      	b.n	10006a72 <_vsnprintf+0x5aa>
10006ce6:	4653      	mov	r3, sl
10006ce8:	4645      	mov	r5, r8
10006cea:	9309      	str	r3, [sp, #36]	; 0x24
10006cec:	3601      	adds	r6, #1
10006cee:	f7ff fc10 	bl	10006512 <_vsnprintf+0x4a>
10006cf2:	4656      	mov	r6, sl
10006cf4:	465c      	mov	r4, fp
10006cf6:	46aa      	mov	sl, r5
10006cf8:	9d13      	ldr	r5, [sp, #76]	; 0x4c
10006cfa:	e7d6      	b.n	10006caa <_vsnprintf+0x7e2>
10006cfc:	2308      	movs	r3, #8
10006cfe:	930c      	str	r3, [sp, #48]	; 0x30
10006d00:	910b      	str	r1, [sp, #44]	; 0x2c
10006d02:	990b      	ldr	r1, [sp, #44]	; 0x2c
10006d04:	2864      	cmp	r0, #100	; 0x64
10006d06:	d000      	beq.n	10006d0a <_vsnprintf+0x842>
10006d08:	e684      	b.n	10006a14 <_vsnprintf+0x54c>
10006d0a:	9b0b      	ldr	r3, [sp, #44]	; 0x2c
10006d0c:	055b      	lsls	r3, r3, #21
10006d0e:	d500      	bpl.n	10006d12 <_vsnprintf+0x84a>
10006d10:	e686      	b.n	10006a20 <_vsnprintf+0x558>
10006d12:	e4b4      	b.n	1000667e <_vsnprintf+0x1b6>
10006d14:	2207      	movs	r2, #7
10006d16:	9b09      	ldr	r3, [sp, #36]	; 0x24
10006d18:	3307      	adds	r3, #7
10006d1a:	4393      	bics	r3, r2
10006d1c:	3201      	adds	r2, #1
10006d1e:	4694      	mov	ip, r2
10006d20:	449c      	add	ip, r3
10006d22:	4662      	mov	r2, ip
10006d24:	9209      	str	r2, [sp, #36]	; 0x24
10006d26:	681a      	ldr	r2, [r3, #0]
10006d28:	685b      	ldr	r3, [r3, #4]
10006d2a:	0010      	movs	r0, r2
10006d2c:	469b      	mov	fp, r3
10006d2e:	0013      	movs	r3, r2
10006d30:	465a      	mov	r2, fp
10006d32:	4313      	orrs	r3, r2
10006d34:	d107      	bne.n	10006d46 <_vsnprintf+0x87e>
10006d36:	9a0b      	ldr	r2, [sp, #44]	; 0x2c
10006d38:	3310      	adds	r3, #16
10006d3a:	0011      	movs	r1, r2
10006d3c:	4399      	bics	r1, r3
10006d3e:	910b      	str	r1, [sp, #44]	; 0x2c
10006d40:	0552      	lsls	r2, r2, #21
10006d42:	d500      	bpl.n	10006d46 <_vsnprintf+0x87e>
10006d44:	e6a1      	b.n	10006a8a <_vsnprintf+0x5c2>
10006d46:	9a0b      	ldr	r2, [sp, #44]	; 0x2c
10006d48:	2361      	movs	r3, #97	; 0x61
10006d4a:	0692      	lsls	r2, r2, #26
10006d4c:	d500      	bpl.n	10006d50 <_vsnprintf+0x888>
10006d4e:	2341      	movs	r3, #65	; 0x41
10006d50:	2200      	movs	r2, #0
10006d52:	b2db      	uxtb	r3, r3
10006d54:	a90e      	add	r1, sp, #56	; 0x38
10006d56:	3b0a      	subs	r3, #10
10006d58:	468c      	mov	ip, r1
10006d5a:	4692      	mov	sl, r2
10006d5c:	930d      	str	r3, [sp, #52]	; 0x34
10006d5e:	4643      	mov	r3, r8
10006d60:	321f      	adds	r2, #31
10006d62:	4462      	add	r2, ip
10006d64:	465f      	mov	r7, fp
10006d66:	9512      	str	r5, [sp, #72]	; 0x48
10006d68:	46a3      	mov	fp, r4
10006d6a:	4655      	mov	r5, sl
10006d6c:	0004      	movs	r4, r0
10006d6e:	46b2      	mov	sl, r6
10006d70:	4690      	mov	r8, r2
10006d72:	9e0c      	ldr	r6, [sp, #48]	; 0x30
10006d74:	9313      	str	r3, [sp, #76]	; 0x4c
10006d76:	e00d      	b.n	10006d94 <_vsnprintf+0x8cc>
10006d78:	3230      	adds	r2, #48	; 0x30
10006d7a:	b2d2      	uxtb	r2, r2
10006d7c:	4643      	mov	r3, r8
10006d7e:	3501      	adds	r5, #1
10006d80:	555a      	strb	r2, [r3, r5]
10006d82:	2300      	movs	r3, #0
10006d84:	42bb      	cmp	r3, r7
10006d86:	d100      	bne.n	10006d8a <_vsnprintf+0x8c2>
10006d88:	e100      	b.n	10006f8c <_vsnprintf+0xac4>
10006d8a:	2d20      	cmp	r5, #32
10006d8c:	d100      	bne.n	10006d90 <_vsnprintf+0x8c8>
10006d8e:	e100      	b.n	10006f92 <_vsnprintf+0xaca>
10006d90:	0004      	movs	r4, r0
10006d92:	000f      	movs	r7, r1
10006d94:	0032      	movs	r2, r6
10006d96:	2300      	movs	r3, #0
10006d98:	0020      	movs	r0, r4
10006d9a:	0039      	movs	r1, r7
10006d9c:	f000 f9f8 	bl	10007190 <__wrap___aeabi_uldivmod>
10006da0:	b2d2      	uxtb	r2, r2
10006da2:	2a09      	cmp	r2, #9
10006da4:	d9e8      	bls.n	10006d78 <_vsnprintf+0x8b0>
10006da6:	9b0d      	ldr	r3, [sp, #52]	; 0x34
10006da8:	469c      	mov	ip, r3
10006daa:	4462      	add	r2, ip
10006dac:	b2d2      	uxtb	r2, r2
10006dae:	e7e5      	b.n	10006d7c <_vsnprintf+0x8b4>
10006db0:	9a0b      	ldr	r2, [sp, #44]	; 0x2c
10006db2:	2361      	movs	r3, #97	; 0x61
10006db4:	0692      	lsls	r2, r2, #26
10006db6:	d500      	bpl.n	10006dba <_vsnprintf+0x8f2>
10006db8:	2341      	movs	r3, #65	; 0x41
10006dba:	b2db      	uxtb	r3, r3
10006dbc:	a90e      	add	r1, sp, #56	; 0x38
10006dbe:	3b0a      	subs	r3, #10
10006dc0:	221f      	movs	r2, #31
10006dc2:	468c      	mov	ip, r1
10006dc4:	930d      	str	r3, [sp, #52]	; 0x34
10006dc6:	0023      	movs	r3, r4
10006dc8:	4462      	add	r2, ip
10006dca:	465c      	mov	r4, fp
10006dcc:	9512      	str	r5, [sp, #72]	; 0x48
10006dce:	0017      	movs	r7, r2
10006dd0:	4655      	mov	r5, sl
10006dd2:	469b      	mov	fp, r3
10006dd4:	46b2      	mov	sl, r6
10006dd6:	9e0c      	ldr	r6, [sp, #48]	; 0x30
10006dd8:	e008      	b.n	10006dec <_vsnprintf+0x924>
10006dda:	3330      	adds	r3, #48	; 0x30
10006ddc:	b2db      	uxtb	r3, r3
10006dde:	3501      	adds	r5, #1
10006de0:	557b      	strb	r3, [r7, r5]
10006de2:	42b4      	cmp	r4, r6
10006de4:	d30e      	bcc.n	10006e04 <_vsnprintf+0x93c>
10006de6:	2d20      	cmp	r5, #32
10006de8:	d00c      	beq.n	10006e04 <_vsnprintf+0x93c>
10006dea:	0004      	movs	r4, r0
10006dec:	0031      	movs	r1, r6
10006dee:	0020      	movs	r0, r4
10006df0:	f000 f990 	bl	10007114 <__wrap___aeabi_uidiv>
10006df4:	b2cb      	uxtb	r3, r1
10006df6:	2909      	cmp	r1, #9
10006df8:	d9ef      	bls.n	10006dda <_vsnprintf+0x912>
10006dfa:	9a0d      	ldr	r2, [sp, #52]	; 0x34
10006dfc:	4694      	mov	ip, r2
10006dfe:	4463      	add	r3, ip
10006e00:	b2db      	uxtb	r3, r3
10006e02:	e7ec      	b.n	10006dde <_vsnprintf+0x916>
10006e04:	4656      	mov	r6, sl
10006e06:	465c      	mov	r4, fp
10006e08:	46aa      	mov	sl, r5
10006e0a:	9d12      	ldr	r5, [sp, #72]	; 0x48
10006e0c:	e63f      	b.n	10006a8e <_vsnprintf+0x5c6>
10006e0e:	9b09      	ldr	r3, [sp, #36]	; 0x24
10006e10:	001a      	movs	r2, r3
10006e12:	ca08      	ldmia	r2!, {r3}
10006e14:	17d9      	asrs	r1, r3, #31
10006e16:	9213      	str	r2, [sp, #76]	; 0x4c
10006e18:	185a      	adds	r2, r3, r1
10006e1a:	404a      	eors	r2, r1
10006e1c:	4692      	mov	sl, r2
10006e1e:	0fda      	lsrs	r2, r3, #31
10006e20:	9212      	str	r2, [sp, #72]	; 0x48
10006e22:	2b00      	cmp	r3, #0
10006e24:	d108      	bne.n	10006e38 <_vsnprintf+0x970>
10006e26:	2380      	movs	r3, #128	; 0x80
10006e28:	2210      	movs	r2, #16
10006e2a:	990b      	ldr	r1, [sp, #44]	; 0x2c
10006e2c:	00db      	lsls	r3, r3, #3
10006e2e:	400b      	ands	r3, r1
10006e30:	4391      	bics	r1, r2
10006e32:	910b      	str	r1, [sp, #44]	; 0x2c
10006e34:	2b00      	cmp	r3, #0
10006e36:	d12b      	bne.n	10006e90 <_vsnprintf+0x9c8>
10006e38:	9a0b      	ldr	r2, [sp, #44]	; 0x2c
10006e3a:	2361      	movs	r3, #97	; 0x61
10006e3c:	0692      	lsls	r2, r2, #26
10006e3e:	d500      	bpl.n	10006e42 <_vsnprintf+0x97a>
10006e40:	2341      	movs	r3, #65	; 0x41
10006e42:	aa0e      	add	r2, sp, #56	; 0x38
10006e44:	271f      	movs	r7, #31
10006e46:	4694      	mov	ip, r2
10006e48:	b2db      	uxtb	r3, r3
10006e4a:	3b0a      	subs	r3, #10
10006e4c:	950d      	str	r5, [sp, #52]	; 0x34
10006e4e:	4467      	add	r7, ip
10006e50:	465d      	mov	r5, fp
10006e52:	9309      	str	r3, [sp, #36]	; 0x24
10006e54:	46a3      	mov	fp, r4
10006e56:	4654      	mov	r4, sl
10006e58:	46b2      	mov	sl, r6
10006e5a:	9e0c      	ldr	r6, [sp, #48]	; 0x30
10006e5c:	e008      	b.n	10006e70 <_vsnprintf+0x9a8>
10006e5e:	3330      	adds	r3, #48	; 0x30
10006e60:	b2db      	uxtb	r3, r3
10006e62:	3501      	adds	r5, #1
10006e64:	557b      	strb	r3, [r7, r5]
10006e66:	42b4      	cmp	r4, r6
10006e68:	d30e      	bcc.n	10006e88 <_vsnprintf+0x9c0>
10006e6a:	2d20      	cmp	r5, #32
10006e6c:	d00c      	beq.n	10006e88 <_vsnprintf+0x9c0>
10006e6e:	0004      	movs	r4, r0
10006e70:	0031      	movs	r1, r6
10006e72:	0020      	movs	r0, r4
10006e74:	f000 f94e 	bl	10007114 <__wrap___aeabi_uidiv>
10006e78:	b2cb      	uxtb	r3, r1
10006e7a:	2909      	cmp	r1, #9
10006e7c:	d9ef      	bls.n	10006e5e <_vsnprintf+0x996>
10006e7e:	9a09      	ldr	r2, [sp, #36]	; 0x24
10006e80:	4694      	mov	ip, r2
10006e82:	4463      	add	r3, ip
10006e84:	b2db      	uxtb	r3, r3
10006e86:	e7ec      	b.n	10006e62 <_vsnprintf+0x99a>
10006e88:	4656      	mov	r6, sl
10006e8a:	465c      	mov	r4, fp
10006e8c:	46ab      	mov	fp, r5
10006e8e:	9d0d      	ldr	r5, [sp, #52]	; 0x34
10006e90:	9b0b      	ldr	r3, [sp, #44]	; 0x2c
10006e92:	002a      	movs	r2, r5
10006e94:	9306      	str	r3, [sp, #24]
10006e96:	9b0a      	ldr	r3, [sp, #40]	; 0x28
10006e98:	0021      	movs	r1, r4
10006e9a:	9305      	str	r3, [sp, #20]
10006e9c:	4643      	mov	r3, r8
10006e9e:	9304      	str	r3, [sp, #16]
10006ea0:	9b0c      	ldr	r3, [sp, #48]	; 0x30
10006ea2:	9808      	ldr	r0, [sp, #32]
10006ea4:	9303      	str	r3, [sp, #12]
10006ea6:	9b12      	ldr	r3, [sp, #72]	; 0x48
10006ea8:	3601      	adds	r6, #1
10006eaa:	9302      	str	r3, [sp, #8]
10006eac:	465b      	mov	r3, fp
10006eae:	9301      	str	r3, [sp, #4]
10006eb0:	ab16      	add	r3, sp, #88	; 0x58
10006eb2:	9300      	str	r3, [sp, #0]
10006eb4:	464b      	mov	r3, r9
10006eb6:	f7fe fe1f 	bl	10005af8 <_ntoa_format>
10006eba:	9b13      	ldr	r3, [sp, #76]	; 0x4c
10006ebc:	0005      	movs	r5, r0
10006ebe:	9309      	str	r3, [sp, #36]	; 0x24
10006ec0:	f7ff fb27 	bl	10006512 <_vsnprintf+0x4a>
10006ec4:	2302      	movs	r3, #2
10006ec6:	930c      	str	r3, [sp, #48]	; 0x30
10006ec8:	e71a      	b.n	10006d00 <_vsnprintf+0x838>
10006eca:	9b09      	ldr	r3, [sp, #36]	; 0x24
10006ecc:	cb04      	ldmia	r3!, {r2}
10006ece:	4692      	mov	sl, r2
10006ed0:	9312      	str	r3, [sp, #72]	; 0x48
10006ed2:	2a00      	cmp	r2, #0
10006ed4:	d108      	bne.n	10006ee8 <_vsnprintf+0xa20>
10006ed6:	2380      	movs	r3, #128	; 0x80
10006ed8:	2210      	movs	r2, #16
10006eda:	990b      	ldr	r1, [sp, #44]	; 0x2c
10006edc:	00db      	lsls	r3, r3, #3
10006ede:	400b      	ands	r3, r1
10006ee0:	4391      	bics	r1, r2
10006ee2:	910b      	str	r1, [sp, #44]	; 0x2c
10006ee4:	2b00      	cmp	r3, #0
10006ee6:	d12b      	bne.n	10006f40 <_vsnprintf+0xa78>
10006ee8:	9a0b      	ldr	r2, [sp, #44]	; 0x2c
10006eea:	2361      	movs	r3, #97	; 0x61
10006eec:	0692      	lsls	r2, r2, #26
10006eee:	d500      	bpl.n	10006ef2 <_vsnprintf+0xa2a>
10006ef0:	2341      	movs	r3, #65	; 0x41
10006ef2:	aa0e      	add	r2, sp, #56	; 0x38
10006ef4:	271f      	movs	r7, #31
10006ef6:	4694      	mov	ip, r2
10006ef8:	b2db      	uxtb	r3, r3
10006efa:	3b0a      	subs	r3, #10
10006efc:	950d      	str	r5, [sp, #52]	; 0x34
10006efe:	4467      	add	r7, ip
10006f00:	465d      	mov	r5, fp
10006f02:	9309      	str	r3, [sp, #36]	; 0x24
10006f04:	46a3      	mov	fp, r4
10006f06:	4654      	mov	r4, sl
10006f08:	46b2      	mov	sl, r6
10006f0a:	9e0c      	ldr	r6, [sp, #48]	; 0x30
10006f0c:	e008      	b.n	10006f20 <_vsnprintf+0xa58>
10006f0e:	3330      	adds	r3, #48	; 0x30
10006f10:	b2db      	uxtb	r3, r3
10006f12:	3501      	adds	r5, #1
10006f14:	557b      	strb	r3, [r7, r5]
10006f16:	42b4      	cmp	r4, r6
10006f18:	d30e      	bcc.n	10006f38 <_vsnprintf+0xa70>
10006f1a:	2d20      	cmp	r5, #32
10006f1c:	d00c      	beq.n	10006f38 <_vsnprintf+0xa70>
10006f1e:	0004      	movs	r4, r0
10006f20:	0031      	movs	r1, r6
10006f22:	0020      	movs	r0, r4
10006f24:	f000 f8f6 	bl	10007114 <__wrap___aeabi_uidiv>
10006f28:	b2cb      	uxtb	r3, r1
10006f2a:	2909      	cmp	r1, #9
10006f2c:	d9ef      	bls.n	10006f0e <_vsnprintf+0xa46>
10006f2e:	9a09      	ldr	r2, [sp, #36]	; 0x24
10006f30:	4694      	mov	ip, r2
10006f32:	4463      	add	r3, ip
10006f34:	b2db      	uxtb	r3, r3
10006f36:	e7ec      	b.n	10006f12 <_vsnprintf+0xa4a>
10006f38:	4656      	mov	r6, sl
10006f3a:	465c      	mov	r4, fp
10006f3c:	46ab      	mov	fp, r5
10006f3e:	9d0d      	ldr	r5, [sp, #52]	; 0x34
10006f40:	9b0b      	ldr	r3, [sp, #44]	; 0x2c
10006f42:	002a      	movs	r2, r5
10006f44:	9306      	str	r3, [sp, #24]
10006f46:	9b0a      	ldr	r3, [sp, #40]	; 0x28
10006f48:	0021      	movs	r1, r4
10006f4a:	9305      	str	r3, [sp, #20]
10006f4c:	4643      	mov	r3, r8
10006f4e:	9304      	str	r3, [sp, #16]
10006f50:	9b0c      	ldr	r3, [sp, #48]	; 0x30
10006f52:	9808      	ldr	r0, [sp, #32]
10006f54:	9303      	str	r3, [sp, #12]
10006f56:	2300      	movs	r3, #0
10006f58:	9302      	str	r3, [sp, #8]
10006f5a:	465b      	mov	r3, fp
10006f5c:	9301      	str	r3, [sp, #4]
10006f5e:	ab16      	add	r3, sp, #88	; 0x58
10006f60:	9300      	str	r3, [sp, #0]
10006f62:	464b      	mov	r3, r9
10006f64:	f7fe fdc8 	bl	10005af8 <_ntoa_format>
10006f68:	9b12      	ldr	r3, [sp, #72]	; 0x48
10006f6a:	0005      	movs	r5, r0
10006f6c:	9309      	str	r3, [sp, #36]	; 0x24
10006f6e:	3601      	adds	r6, #1
10006f70:	f7ff facf 	bl	10006512 <_vsnprintf+0x4a>
10006f74:	42b4      	cmp	r4, r6
10006f76:	d800      	bhi.n	10006f7a <_vsnprintf+0xab2>
10006f78:	e671      	b.n	10006c5e <_vsnprintf+0x796>
10006f7a:	9b14      	ldr	r3, [sp, #80]	; 0x50
10006f7c:	4654      	mov	r4, sl
10006f7e:	960e      	str	r6, [sp, #56]	; 0x38
10006f80:	970f      	str	r7, [sp, #60]	; 0x3c
10006f82:	46aa      	mov	sl, r5
10006f84:	4698      	mov	r8, r3
10006f86:	9e15      	ldr	r6, [sp, #84]	; 0x54
10006f88:	9d13      	ldr	r5, [sp, #76]	; 0x4c
10006f8a:	e68e      	b.n	10006caa <_vsnprintf+0x7e2>
10006f8c:	42a6      	cmp	r6, r4
10006f8e:	d800      	bhi.n	10006f92 <_vsnprintf+0xaca>
10006f90:	e6fb      	b.n	10006d8a <_vsnprintf+0x8c2>
10006f92:	9b13      	ldr	r3, [sp, #76]	; 0x4c
10006f94:	4656      	mov	r6, sl
10006f96:	4698      	mov	r8, r3
10006f98:	46aa      	mov	sl, r5
10006f9a:	465c      	mov	r4, fp
10006f9c:	9d12      	ldr	r5, [sp, #72]	; 0x48
10006f9e:	e576      	b.n	10006a8e <_vsnprintf+0x5c6>
10006fa0:	c908      	ldmia	r1!, {r3}
10006fa2:	17d8      	asrs	r0, r3, #31
10006fa4:	181a      	adds	r2, r3, r0
10006fa6:	4042      	eors	r2, r0
10006fa8:	9109      	str	r1, [sp, #36]	; 0x24
10006faa:	f7ff fb8a 	bl	100066c2 <_vsnprintf+0x1fa>
10006fae:	2300      	movs	r3, #0
10006fb0:	930b      	str	r3, [sp, #44]	; 0x2c
10006fb2:	e450      	b.n	10006856 <_vsnprintf+0x38e>
10006fb4:	9b09      	ldr	r3, [sp, #36]	; 0x24
10006fb6:	cb04      	ldmia	r3!, {r2}
10006fb8:	4693      	mov	fp, r2
10006fba:	9309      	str	r3, [sp, #36]	; 0x24
10006fbc:	e559      	b.n	10006a72 <_vsnprintf+0x5aa>
10006fbe:	002f      	movs	r7, r5
10006fc0:	e5bb      	b.n	10006b3a <_vsnprintf+0x672>
10006fc2:	930b      	str	r3, [sp, #44]	; 0x2c
10006fc4:	e601      	b.n	10006bca <_vsnprintf+0x702>
10006fc6:	3b06      	subs	r3, #6
10006fc8:	930c      	str	r3, [sp, #48]	; 0x30
10006fca:	e69a      	b.n	10006d02 <_vsnprintf+0x83a>

10006fcc <__wrap_sprintf>:
10006fcc:	b40e      	push	{r1, r2, r3}
10006fce:	2201      	movs	r2, #1
10006fd0:	b510      	push	{r4, lr}
10006fd2:	b085      	sub	sp, #20
10006fd4:	ac07      	add	r4, sp, #28
10006fd6:	cc08      	ldmia	r4!, {r3}
10006fd8:	0001      	movs	r1, r0
10006fda:	9400      	str	r4, [sp, #0]
10006fdc:	4252      	negs	r2, r2
10006fde:	4804      	ldr	r0, [pc, #16]	; (10006ff0 <__wrap_sprintf+0x24>)
10006fe0:	9403      	str	r4, [sp, #12]
10006fe2:	f7ff fa71 	bl	100064c8 <_vsnprintf>
10006fe6:	b005      	add	sp, #20
10006fe8:	bc10      	pop	{r4}
10006fea:	bc08      	pop	{r3}
10006fec:	b003      	add	sp, #12
10006fee:	4718      	bx	r3
10006ff0:	10005a51 	.word	0x10005a51

10006ff4 <vfctprintf>:
10006ff4:	b500      	push	{lr}
10006ff6:	b085      	sub	sp, #20
10006ff8:	9103      	str	r1, [sp, #12]
10006ffa:	2101      	movs	r1, #1
10006ffc:	9002      	str	r0, [sp, #8]
10006ffe:	9300      	str	r3, [sp, #0]
10007000:	4803      	ldr	r0, [pc, #12]	; (10007010 <vfctprintf+0x1c>)
10007002:	0013      	movs	r3, r2
10007004:	424a      	negs	r2, r1
10007006:	a902      	add	r1, sp, #8
10007008:	f7ff fa5e 	bl	100064c8 <_vsnprintf>
1000700c:	b005      	add	sp, #20
1000700e:	bd00      	pop	{pc}
10007010:	10005cd5 	.word	0x10005cd5

10007014 <weak_raw_vprintf>:
10007014:	b510      	push	{r4, lr}
10007016:	4a09      	ldr	r2, [pc, #36]	; (1000703c <weak_raw_vprintf+0x28>)
10007018:	0003      	movs	r3, r0
1000701a:	6814      	ldr	r4, [r2, #0]
1000701c:	b084      	sub	sp, #16
1000701e:	2c00      	cmp	r4, #0
10007020:	d008      	beq.n	10007034 <weak_raw_vprintf+0x20>
10007022:	2201      	movs	r2, #1
10007024:	9100      	str	r1, [sp, #0]
10007026:	4806      	ldr	r0, [pc, #24]	; (10007040 <weak_raw_vprintf+0x2c>)
10007028:	4252      	negs	r2, r2
1000702a:	a903      	add	r1, sp, #12
1000702c:	47a0      	blx	r4
1000702e:	2001      	movs	r0, #1
10007030:	b004      	add	sp, #16
10007032:	bd10      	pop	{r4, pc}
10007034:	f001 f912 	bl	1000825c <__wrap_puts>
10007038:	2000      	movs	r0, #0
1000703a:	e7f9      	b.n	10007030 <weak_raw_vprintf+0x1c>
1000703c:	20000658 	.word	0x20000658
10007040:	10005cc5 	.word	0x10005cc5

10007044 <__aeabi_bits_init>:
10007044:	4801      	ldr	r0, [pc, #4]	; (1000704c <__aeabi_bits_init+0x8>)
10007046:	2104      	movs	r1, #4
10007048:	4b01      	ldr	r3, [pc, #4]	; (10007050 <__aeabi_bits_init+0xc>)
1000704a:	4718      	bx	r3
1000704c:	20000220 	.word	0x20000220
10007050:	10007081 	.word	0x10007081

10007054 <__wrap___ctzsi2>:
10007054:	4b01      	ldr	r3, [pc, #4]	; (1000705c <__wrap___ctzsi2+0x8>)
10007056:	689b      	ldr	r3, [r3, #8]
10007058:	4718      	bx	r3
1000705a:	0000      	.short	0x0000
1000705c:	20000220 	.word	0x20000220

10007060 <rom_func_lookup>:
10007060:	2314      	movs	r3, #20
10007062:	b510      	push	{r4, lr}
10007064:	0001      	movs	r1, r0
10007066:	8818      	ldrh	r0, [r3, #0]
10007068:	3304      	adds	r3, #4
1000706a:	881b      	ldrh	r3, [r3, #0]
1000706c:	4798      	blx	r3
1000706e:	bd10      	pop	{r4, pc}

10007070 <rom_data_lookup>:
10007070:	2316      	movs	r3, #22
10007072:	b510      	push	{r4, lr}
10007074:	0001      	movs	r1, r0
10007076:	8818      	ldrh	r0, [r3, #0]
10007078:	3302      	adds	r3, #2
1000707a:	881b      	ldrh	r3, [r3, #0]
1000707c:	4798      	blx	r3
1000707e:	bd10      	pop	{r4, pc}

10007080 <rom_funcs_lookup>:
10007080:	b5f8      	push	{r3, r4, r5, r6, r7, lr}
10007082:	4647      	mov	r7, r8
10007084:	46ce      	mov	lr, r9
10007086:	b580      	push	{r7, lr}
10007088:	1e0f      	subs	r7, r1, #0
1000708a:	d019      	beq.n	100070c0 <rom_funcs_lookup+0x40>
1000708c:	2314      	movs	r3, #20
1000708e:	4699      	mov	r9, r3
10007090:	3304      	adds	r3, #4
10007092:	0004      	movs	r4, r0
10007094:	2500      	movs	r5, #0
10007096:	2601      	movs	r6, #1
10007098:	4698      	mov	r8, r3
1000709a:	464b      	mov	r3, r9
1000709c:	8818      	ldrh	r0, [r3, #0]
1000709e:	4643      	mov	r3, r8
100070a0:	6821      	ldr	r1, [r4, #0]
100070a2:	881b      	ldrh	r3, [r3, #0]
100070a4:	4798      	blx	r3
100070a6:	c401      	stmia	r4!, {r0}
100070a8:	1e43      	subs	r3, r0, #1
100070aa:	4198      	sbcs	r0, r3
100070ac:	3501      	adds	r5, #1
100070ae:	4240      	negs	r0, r0
100070b0:	4006      	ands	r6, r0
100070b2:	42af      	cmp	r7, r5
100070b4:	d1f1      	bne.n	1000709a <rom_funcs_lookup+0x1a>
100070b6:	0030      	movs	r0, r6
100070b8:	bcc0      	pop	{r6, r7}
100070ba:	46b9      	mov	r9, r7
100070bc:	46b0      	mov	r8, r6
100070be:	bdf8      	pop	{r3, r4, r5, r6, r7, pc}
100070c0:	2601      	movs	r6, #1
100070c2:	e7f8      	b.n	100070b6 <rom_funcs_lookup+0x36>

100070c4 <__wrap___aeabi_idiv>:
100070c4:	4a12      	ldr	r2, [pc, #72]	; (10007110 <divmod_s32s32_savestate+0x18>)
100070c6:	6f93      	ldr	r3, [r2, #120]	; 0x78
100070c8:	089b      	lsrs	r3, r3, #2
100070ca:	d215      	bcs.n	100070f8 <divmod_s32s32_savestate>

100070cc <divmod_s32s32_unsafe>:
100070cc:	6690      	str	r0, [r2, #104]	; 0x68
100070ce:	66d1      	str	r1, [r2, #108]	; 0x6c
100070d0:	2900      	cmp	r1, #0
100070d2:	d005      	beq.n	100070e0 <divmod_s32s32_unsafe+0x14>
100070d4:	e7ff      	b.n	100070d6 <divmod_s32s32_unsafe+0xa>
100070d6:	e7ff      	b.n	100070d8 <divmod_s32s32_unsafe+0xc>
100070d8:	e7ff      	b.n	100070da <divmod_s32s32_unsafe+0xe>
100070da:	6f51      	ldr	r1, [r2, #116]	; 0x74
100070dc:	6f10      	ldr	r0, [r2, #112]	; 0x70
100070de:	4770      	bx	lr
100070e0:	b504      	push	{r2, lr}
100070e2:	2180      	movs	r1, #128	; 0x80
100070e4:	0609      	lsls	r1, r1, #24
100070e6:	17c2      	asrs	r2, r0, #31
100070e8:	4051      	eors	r1, r2
100070ea:	2800      	cmp	r0, #0
100070ec:	d000      	beq.n	100070f0 <divmod_s32s32_unsafe+0x24>
100070ee:	43c8      	mvns	r0, r1
100070f0:	f001 fc2a 	bl	10008948 <____aeabi_idiv0_veneer>
100070f4:	2100      	movs	r1, #0
100070f6:	bd04      	pop	{r2, pc}

100070f8 <divmod_s32s32_savestate>:
100070f8:	b5f0      	push	{r4, r5, r6, r7, lr}
100070fa:	6e14      	ldr	r4, [r2, #96]	; 0x60
100070fc:	6e55      	ldr	r5, [r2, #100]	; 0x64
100070fe:	6f57      	ldr	r7, [r2, #116]	; 0x74
10007100:	6f16      	ldr	r6, [r2, #112]	; 0x70
10007102:	f7ff ffe3 	bl	100070cc <divmod_s32s32_unsafe>
10007106:	6614      	str	r4, [r2, #96]	; 0x60
10007108:	6655      	str	r5, [r2, #100]	; 0x64
1000710a:	6757      	str	r7, [r2, #116]	; 0x74
1000710c:	6716      	str	r6, [r2, #112]	; 0x70
1000710e:	bdf0      	pop	{r4, r5, r6, r7, pc}
10007110:	d0000000 	.word	0xd0000000

10007114 <__wrap___aeabi_uidiv>:
10007114:	4a11      	ldr	r2, [pc, #68]	; (1000715c <divmod_u32u32_savestate+0x18>)
10007116:	6f93      	ldr	r3, [r2, #120]	; 0x78
10007118:	089b      	lsrs	r3, r3, #2
1000711a:	d213      	bcs.n	10007144 <divmod_u32u32_savestate>

1000711c <divmod_u32u32_unsafe>:
1000711c:	6610      	str	r0, [r2, #96]	; 0x60
1000711e:	6651      	str	r1, [r2, #100]	; 0x64
10007120:	2900      	cmp	r1, #0
10007122:	d005      	beq.n	10007130 <divmod_u32u32_unsafe+0x14>
10007124:	e7ff      	b.n	10007126 <divmod_u32u32_unsafe+0xa>
10007126:	e7ff      	b.n	10007128 <divmod_u32u32_unsafe+0xc>
10007128:	e7ff      	b.n	1000712a <divmod_u32u32_unsafe+0xe>
1000712a:	6f51      	ldr	r1, [r2, #116]	; 0x74
1000712c:	6f10      	ldr	r0, [r2, #112]	; 0x70
1000712e:	4770      	bx	lr
10007130:	b504      	push	{r2, lr}
10007132:	2800      	cmp	r0, #0
10007134:	d001      	beq.n	1000713a <divmod_u32u32_unsafe+0x1e>
10007136:	2000      	movs	r0, #0
10007138:	43c0      	mvns	r0, r0
1000713a:	f001 fc05 	bl	10008948 <____aeabi_idiv0_veneer>
1000713e:	2100      	movs	r1, #0
10007140:	bd04      	pop	{r2, pc}
10007142:	46c0      	nop			; (mov r8, r8)

10007144 <divmod_u32u32_savestate>:
10007144:	b5f0      	push	{r4, r5, r6, r7, lr}
10007146:	6e14      	ldr	r4, [r2, #96]	; 0x60
10007148:	6e55      	ldr	r5, [r2, #100]	; 0x64
1000714a:	6f57      	ldr	r7, [r2, #116]	; 0x74
1000714c:	6f16      	ldr	r6, [r2, #112]	; 0x70
1000714e:	f7ff ffe5 	bl	1000711c <divmod_u32u32_unsafe>
10007152:	6614      	str	r4, [r2, #96]	; 0x60
10007154:	6655      	str	r5, [r2, #100]	; 0x64
10007156:	6757      	str	r7, [r2, #116]	; 0x74
10007158:	6716      	str	r6, [r2, #112]	; 0x70
1000715a:	bdf0      	pop	{r4, r5, r6, r7, pc}
1000715c:	d0000000 	.word	0xd0000000

10007160 <__wrap___aeabi_ldivmod>:
10007160:	4694      	mov	ip, r2
10007162:	4a4a      	ldr	r2, [pc, #296]	; (1000728c <udiv0+0x1a>)
10007164:	6f92      	ldr	r2, [r2, #120]	; 0x78
10007166:	0892      	lsrs	r2, r2, #2
10007168:	4662      	mov	r2, ip
1000716a:	d201      	bcs.n	10007170 <divmod_s64s64_savestate>
1000716c:	e028      	b.n	100071c0 <divmod_s64s64_unsafe>
1000716e:	46c0      	nop			; (mov r8, r8)

10007170 <divmod_s64s64_savestate>:
10007170:	b5f0      	push	{r4, r5, r6, r7, lr}
10007172:	4e46      	ldr	r6, [pc, #280]	; (1000728c <udiv0+0x1a>)
10007174:	6e34      	ldr	r4, [r6, #96]	; 0x60
10007176:	6e75      	ldr	r5, [r6, #100]	; 0x64
10007178:	6f77      	ldr	r7, [r6, #116]	; 0x74
1000717a:	6f36      	ldr	r6, [r6, #112]	; 0x70
1000717c:	f000 f820 	bl	100071c0 <divmod_s64s64_unsafe>
10007180:	4694      	mov	ip, r2
10007182:	4a42      	ldr	r2, [pc, #264]	; (1000728c <udiv0+0x1a>)
10007184:	6614      	str	r4, [r2, #96]	; 0x60
10007186:	6655      	str	r5, [r2, #100]	; 0x64
10007188:	6757      	str	r7, [r2, #116]	; 0x74
1000718a:	6716      	str	r6, [r2, #112]	; 0x70
1000718c:	4662      	mov	r2, ip
1000718e:	bdf0      	pop	{r4, r5, r6, r7, pc}

10007190 <__wrap___aeabi_uldivmod>:
10007190:	4694      	mov	ip, r2
10007192:	4a3e      	ldr	r2, [pc, #248]	; (1000728c <udiv0+0x1a>)
10007194:	6f92      	ldr	r2, [r2, #120]	; 0x78
10007196:	0892      	lsrs	r2, r2, #2
10007198:	4662      	mov	r2, ip
1000719a:	d201      	bcs.n	100071a0 <divmod_u64u64_savestate>
1000719c:	e054      	b.n	10007248 <divmod_u64u64_unsafe>
1000719e:	46c0      	nop			; (mov r8, r8)

100071a0 <divmod_u64u64_savestate>:
100071a0:	b5f0      	push	{r4, r5, r6, r7, lr}
100071a2:	4e3a      	ldr	r6, [pc, #232]	; (1000728c <udiv0+0x1a>)
100071a4:	6e34      	ldr	r4, [r6, #96]	; 0x60
100071a6:	6e75      	ldr	r5, [r6, #100]	; 0x64
100071a8:	6f77      	ldr	r7, [r6, #116]	; 0x74
100071aa:	6f36      	ldr	r6, [r6, #112]	; 0x70
100071ac:	f000 f84c 	bl	10007248 <divmod_u64u64_unsafe>
100071b0:	4694      	mov	ip, r2
100071b2:	4a36      	ldr	r2, [pc, #216]	; (1000728c <udiv0+0x1a>)
100071b4:	6614      	str	r4, [r2, #96]	; 0x60
100071b6:	6655      	str	r5, [r2, #100]	; 0x64
100071b8:	6757      	str	r7, [r2, #116]	; 0x74
100071ba:	6716      	str	r6, [r2, #112]	; 0x70
100071bc:	4662      	mov	r2, ip
100071be:	bdf0      	pop	{r4, r5, r6, r7, pc}

100071c0 <divmod_s64s64_unsafe>:
100071c0:	2b00      	cmp	r3, #0
100071c2:	db24      	blt.n	1000720e <l42_1+0x26>
100071c4:	d011      	beq.n	100071ea <l42_1+0x2>
100071c6:	2900      	cmp	r1, #0
100071c8:	da3e      	bge.n	10007248 <divmod_u64u64_unsafe>
100071ca:	b500      	push	{lr}
100071cc:	43c9      	mvns	r1, r1
100071ce:	4240      	negs	r0, r0
100071d0:	d100      	bne.n	100071d4 <l40_1>
100071d2:	3101      	adds	r1, #1

100071d4 <l40_1>:
100071d4:	f000 f838 	bl	10007248 <divmod_u64u64_unsafe>
100071d8:	43c9      	mvns	r1, r1
100071da:	4240      	negs	r0, r0
100071dc:	d100      	bne.n	100071e0 <l41_1>
100071de:	3101      	adds	r1, #1

100071e0 <l41_1>:
100071e0:	43db      	mvns	r3, r3
100071e2:	4252      	negs	r2, r2
100071e4:	d100      	bne.n	100071e8 <l42_1>
100071e6:	3301      	adds	r3, #1

100071e8 <l42_1>:
100071e8:	bd00      	pop	{pc}
100071ea:	2a00      	cmp	r2, #0
100071ec:	d1eb      	bne.n	100071c6 <divmod_s64s64_unsafe+0x6>
100071ee:	2800      	cmp	r0, #0
100071f0:	d101      	bne.n	100071f6 <l42_1+0xe>
100071f2:	2900      	cmp	r1, #0
100071f4:	d005      	beq.n	10007202 <l42_1+0x1a>
100071f6:	2000      	movs	r0, #0
100071f8:	0fc9      	lsrs	r1, r1, #31
100071fa:	07c9      	lsls	r1, r1, #31
100071fc:	d101      	bne.n	10007202 <l42_1+0x1a>
100071fe:	43c0      	mvns	r0, r0
10007200:	0841      	lsrs	r1, r0, #1
10007202:	b500      	push	{lr}
10007204:	f001 fb98 	bl	10008938 <____aeabi_ldiv0_veneer>
10007208:	2200      	movs	r2, #0
1000720a:	2300      	movs	r3, #0
1000720c:	bd00      	pop	{pc}
1000720e:	b500      	push	{lr}
10007210:	2900      	cmp	r1, #0
10007212:	db0a      	blt.n	1000722a <l44_1+0x2>
10007214:	43db      	mvns	r3, r3
10007216:	4252      	negs	r2, r2
10007218:	d100      	bne.n	1000721c <l43_1>
1000721a:	3301      	adds	r3, #1

1000721c <l43_1>:
1000721c:	f000 f814 	bl	10007248 <divmod_u64u64_unsafe>
10007220:	43c9      	mvns	r1, r1
10007222:	4240      	negs	r0, r0
10007224:	d100      	bne.n	10007228 <l44_1>
10007226:	3101      	adds	r1, #1

10007228 <l44_1>:
10007228:	bd00      	pop	{pc}
1000722a:	43c9      	mvns	r1, r1
1000722c:	4240      	negs	r0, r0
1000722e:	d100      	bne.n	10007232 <l45_1>
10007230:	3101      	adds	r1, #1

10007232 <l45_1>:
10007232:	43db      	mvns	r3, r3
10007234:	4252      	negs	r2, r2
10007236:	d100      	bne.n	1000723a <l46_1>
10007238:	3301      	adds	r3, #1

1000723a <l46_1>:
1000723a:	f000 f805 	bl	10007248 <divmod_u64u64_unsafe>
1000723e:	43db      	mvns	r3, r3
10007240:	4252      	negs	r2, r2
10007242:	d100      	bne.n	10007246 <l47_1>
10007244:	3301      	adds	r3, #1

10007246 <l47_1>:
10007246:	bd00      	pop	{pc}

10007248 <divmod_u64u64_unsafe>:
10007248:	2900      	cmp	r1, #0
1000724a:	d123      	bne.n	10007294 <y64>
1000724c:	2b00      	cmp	r3, #0
1000724e:	d118      	bne.n	10007282 <udiv0+0x10>
10007250:	2a00      	cmp	r2, #0
10007252:	d00c      	beq.n	1000726e <divmod_u64u64_unsafe+0x26>
10007254:	46bc      	mov	ip, r7
10007256:	4f0d      	ldr	r7, [pc, #52]	; (1000728c <udiv0+0x1a>)
10007258:	6638      	str	r0, [r7, #96]	; 0x60
1000725a:	667a      	str	r2, [r7, #100]	; 0x64
1000725c:	2100      	movs	r1, #0
1000725e:	2300      	movs	r3, #0
10007260:	e7ff      	b.n	10007262 <divmod_u64u64_unsafe+0x1a>
10007262:	e7ff      	b.n	10007264 <divmod_u64u64_unsafe+0x1c>
10007264:	e7ff      	b.n	10007266 <divmod_u64u64_unsafe+0x1e>
10007266:	6f7a      	ldr	r2, [r7, #116]	; 0x74
10007268:	6f38      	ldr	r0, [r7, #112]	; 0x70
1000726a:	4667      	mov	r7, ip
1000726c:	4770      	bx	lr
1000726e:	2800      	cmp	r0, #0
10007270:	d001      	beq.n	10007276 <udiv0+0x4>

10007272 <udiv0>:
10007272:	4807      	ldr	r0, [pc, #28]	; (10007290 <udiv0+0x1e>)
10007274:	0001      	movs	r1, r0
10007276:	b500      	push	{lr}
10007278:	f001 fb5e 	bl	10008938 <____aeabi_ldiv0_veneer>
1000727c:	2200      	movs	r2, #0
1000727e:	2300      	movs	r3, #0
10007280:	bd00      	pop	{pc}
10007282:	0002      	movs	r2, r0
10007284:	000b      	movs	r3, r1
10007286:	2000      	movs	r0, #0
10007288:	2100      	movs	r1, #0
1000728a:	4770      	bx	lr
1000728c:	d0000000 	.word	0xd0000000
10007290:	ffffffff 	.word	0xffffffff

10007294 <y64>:
10007294:	2b00      	cmp	r3, #0
10007296:	d000      	beq.n	1000729a <y64+0x6>
10007298:	e0bf      	b.n	1000741a <y64_x48>
1000729a:	0c13      	lsrs	r3, r2, #16
1000729c:	d128      	bne.n	100072f0 <y64_x32>
1000729e:	2a00      	cmp	r2, #0
100072a0:	d0e7      	beq.n	10007272 <udiv0>
100072a2:	b480      	push	{r7}
100072a4:	4f11      	ldr	r7, [pc, #68]	; (100072ec <y64+0x58>)
100072a6:	6639      	str	r1, [r7, #96]	; 0x60
100072a8:	667a      	str	r2, [r7, #100]	; 0x64
100072aa:	e7ff      	b.n	100072ac <y64+0x18>
100072ac:	e7ff      	b.n	100072ae <y64+0x1a>
100072ae:	b430      	push	{r4, r5}
100072b0:	0c04      	lsrs	r4, r0, #16
100072b2:	6f7b      	ldr	r3, [r7, #116]	; 0x74
100072b4:	6f39      	ldr	r1, [r7, #112]	; 0x70
100072b6:	041b      	lsls	r3, r3, #16
100072b8:	4323      	orrs	r3, r4
100072ba:	663b      	str	r3, [r7, #96]	; 0x60
100072bc:	667a      	str	r2, [r7, #100]	; 0x64
100072be:	e7ff      	b.n	100072c0 <y64+0x2c>
100072c0:	e7ff      	b.n	100072c2 <y64+0x2e>
100072c2:	e7ff      	b.n	100072c4 <y64+0x30>
100072c4:	46c0      	nop			; (mov r8, r8)
100072c6:	b284      	uxth	r4, r0
100072c8:	6f7b      	ldr	r3, [r7, #116]	; 0x74
100072ca:	6f3d      	ldr	r5, [r7, #112]	; 0x70
100072cc:	041b      	lsls	r3, r3, #16
100072ce:	4323      	orrs	r3, r4
100072d0:	663b      	str	r3, [r7, #96]	; 0x60
100072d2:	667a      	str	r2, [r7, #100]	; 0x64
100072d4:	e7ff      	b.n	100072d6 <y64+0x42>
100072d6:	e7ff      	b.n	100072d8 <y64+0x44>
100072d8:	46c0      	nop			; (mov r8, r8)
100072da:	2300      	movs	r3, #0
100072dc:	042c      	lsls	r4, r5, #16
100072de:	0c2d      	lsrs	r5, r5, #16
100072e0:	6f7a      	ldr	r2, [r7, #116]	; 0x74
100072e2:	6f38      	ldr	r0, [r7, #112]	; 0x70
100072e4:	1900      	adds	r0, r0, r4
100072e6:	4169      	adcs	r1, r5
100072e8:	bcb0      	pop	{r4, r5, r7}
100072ea:	4770      	bx	lr
100072ec:	d0000000 	.word	0xd0000000

100072f0 <y64_x32>:
100072f0:	b5f0      	push	{r4, r5, r6, r7, lr}
100072f2:	4694      	mov	ip, r2
100072f4:	2500      	movs	r5, #0
100072f6:	0e14      	lsrs	r4, r2, #24
100072f8:	d101      	bne.n	100072fe <y64_x32+0xe>
100072fa:	0212      	lsls	r2, r2, #8
100072fc:	3508      	adds	r5, #8
100072fe:	0f14      	lsrs	r4, r2, #28
10007300:	d101      	bne.n	10007306 <y64_x32+0x16>
10007302:	0112      	lsls	r2, r2, #4
10007304:	3504      	adds	r5, #4
10007306:	0f94      	lsrs	r4, r2, #30
10007308:	d101      	bne.n	1000730e <y64_x32+0x1e>
1000730a:	0092      	lsls	r2, r2, #2
1000730c:	3502      	adds	r5, #2
1000730e:	0fd4      	lsrs	r4, r2, #31
10007310:	d101      	bne.n	10007316 <y64_x32+0x26>
10007312:	0052      	lsls	r2, r2, #1
10007314:	3501      	adds	r5, #1
10007316:	0bd4      	lsrs	r4, r2, #15
10007318:	3401      	adds	r4, #1
1000731a:	4f25      	ldr	r7, [pc, #148]	; (100073b0 <y64_x32+0xc0>)
1000731c:	667c      	str	r4, [r7, #100]	; 0x64
1000731e:	4c25      	ldr	r4, [pc, #148]	; (100073b4 <y64_x32+0xc4>)
10007320:	663c      	str	r4, [r7, #96]	; 0x60
10007322:	0c0e      	lsrs	r6, r1, #16
10007324:	b293      	uxth	r3, r2
10007326:	e7ff      	b.n	10007328 <y64_x32+0x38>
10007328:	e7ff      	b.n	1000732a <y64_x32+0x3a>
1000732a:	e7ff      	b.n	1000732c <y64_x32+0x3c>
1000732c:	6f3c      	ldr	r4, [r7, #112]	; 0x70
1000732e:	4366      	muls	r6, r4
10007330:	0c36      	lsrs	r6, r6, #16
10007332:	0377      	lsls	r7, r6, #13
10007334:	46be      	mov	lr, r7
10007336:	4373      	muls	r3, r6
10007338:	0bdf      	lsrs	r7, r3, #15
1000733a:	045b      	lsls	r3, r3, #17
1000733c:	1ac0      	subs	r0, r0, r3
1000733e:	41b9      	sbcs	r1, r7
10007340:	0c13      	lsrs	r3, r2, #16
10007342:	4373      	muls	r3, r6
10007344:	18db      	adds	r3, r3, r3
10007346:	1ac9      	subs	r1, r1, r3
10007348:	08ce      	lsrs	r6, r1, #3
1000734a:	4366      	muls	r6, r4
1000734c:	0c36      	lsrs	r6, r6, #16
1000734e:	44b6      	add	lr, r6
10007350:	b293      	uxth	r3, r2
10007352:	4373      	muls	r3, r6
10007354:	0f1f      	lsrs	r7, r3, #28
10007356:	011b      	lsls	r3, r3, #4
10007358:	1ac0      	subs	r0, r0, r3
1000735a:	41b9      	sbcs	r1, r7
1000735c:	0c13      	lsrs	r3, r2, #16
1000735e:	4373      	muls	r3, r6
10007360:	0b1f      	lsrs	r7, r3, #12
10007362:	051b      	lsls	r3, r3, #20
10007364:	1ac0      	subs	r0, r0, r3
10007366:	41b9      	sbcs	r1, r7
10007368:	0d86      	lsrs	r6, r0, #22
1000736a:	028f      	lsls	r7, r1, #10
1000736c:	433e      	orrs	r6, r7
1000736e:	4366      	muls	r6, r4
10007370:	0c36      	lsrs	r6, r6, #16
10007372:	2d09      	cmp	r5, #9
10007374:	db24      	blt.n	100073c0 <last0>
10007376:	0a52      	lsrs	r2, r2, #9
10007378:	4372      	muls	r2, r6
1000737a:	1a80      	subs	r0, r0, r2
1000737c:	0377      	lsls	r7, r6, #13
1000737e:	0a46      	lsrs	r6, r0, #9
10007380:	4366      	muls	r6, r4
10007382:	0c36      	lsrs	r6, r6, #16
10007384:	2316      	movs	r3, #22
10007386:	1b5b      	subs	r3, r3, r5
10007388:	40de      	lsrs	r6, r3
1000738a:	40df      	lsrs	r7, r3
1000738c:	19bf      	adds	r7, r7, r6
1000738e:	4664      	mov	r4, ip
10007390:	4366      	muls	r6, r4
10007392:	1b82      	subs	r2, r0, r6
10007394:	4670      	mov	r0, lr
10007396:	3504      	adds	r5, #4
10007398:	3306      	adds	r3, #6
1000739a:	0001      	movs	r1, r0
1000739c:	40d9      	lsrs	r1, r3
1000739e:	40a8      	lsls	r0, r5
100073a0:	19c0      	adds	r0, r0, r7
100073a2:	d300      	bcc.n	100073a6 <y64_x32+0xb6>
100073a4:	3101      	adds	r1, #1
100073a6:	42a2      	cmp	r2, r4
100073a8:	d206      	bcs.n	100073b8 <y64_x32+0xc8>
100073aa:	2300      	movs	r3, #0
100073ac:	bdf0      	pop	{r4, r5, r6, r7, pc}
100073ae:	0000      	.short	0x0000
100073b0:	d0000000 	.word	0xd0000000
100073b4:	ffffffff 	.word	0xffffffff
100073b8:	1b12      	subs	r2, r2, r4
100073ba:	3001      	adds	r0, #1
100073bc:	d3f3      	bcc.n	100073a6 <y64_x32+0xb6>
100073be:	e7f1      	b.n	100073a4 <y64_x32+0xb4>

100073c0 <last0>:
100073c0:	2709      	movs	r7, #9
100073c2:	1b7f      	subs	r7, r7, r5
100073c4:	40fe      	lsrs	r6, r7
100073c6:	4664      	mov	r4, ip
100073c8:	b2a2      	uxth	r2, r4
100073ca:	4372      	muls	r2, r6
100073cc:	1a80      	subs	r0, r0, r2
100073ce:	d200      	bcs.n	100073d2 <last0+0x12>
100073d0:	3901      	subs	r1, #1
100073d2:	0c22      	lsrs	r2, r4, #16
100073d4:	4372      	muls	r2, r6
100073d6:	0c13      	lsrs	r3, r2, #16
100073d8:	0412      	lsls	r2, r2, #16
100073da:	1a82      	subs	r2, r0, r2
100073dc:	4199      	sbcs	r1, r3
100073de:	000b      	movs	r3, r1
100073e0:	4670      	mov	r0, lr
100073e2:	3504      	adds	r5, #4
100073e4:	3713      	adds	r7, #19
100073e6:	0001      	movs	r1, r0
100073e8:	40f9      	lsrs	r1, r7
100073ea:	40a8      	lsls	r0, r5
100073ec:	1980      	adds	r0, r0, r6
100073ee:	d300      	bcc.n	100073f2 <last0+0x32>
100073f0:	3101      	adds	r1, #1
100073f2:	2b00      	cmp	r3, #0
100073f4:	d102      	bne.n	100073fc <last0+0x3c>
100073f6:	42a2      	cmp	r2, r4
100073f8:	d20a      	bcs.n	10007410 <last0+0x50>
100073fa:	bdf0      	pop	{r4, r5, r6, r7, pc}
100073fc:	3001      	adds	r0, #1
100073fe:	d300      	bcc.n	10007402 <last0+0x42>
10007400:	3101      	adds	r1, #1
10007402:	1b12      	subs	r2, r2, r4
10007404:	d2fa      	bcs.n	100073fc <last0+0x3c>
10007406:	3b01      	subs	r3, #1
10007408:	d1f8      	bne.n	100073fc <last0+0x3c>
1000740a:	42a2      	cmp	r2, r4
1000740c:	d200      	bcs.n	10007410 <last0+0x50>
1000740e:	bdf0      	pop	{r4, r5, r6, r7, pc}
10007410:	3001      	adds	r0, #1
10007412:	d300      	bcc.n	10007416 <last0+0x56>
10007414:	3101      	adds	r1, #1
10007416:	1b12      	subs	r2, r2, r4
10007418:	e7f7      	b.n	1000740a <last0+0x4a>

1000741a <y64_x48>:
1000741a:	b5f0      	push	{r4, r5, r6, r7, lr}
1000741c:	0c1c      	lsrs	r4, r3, #16
1000741e:	d000      	beq.n	10007422 <y64_x48+0x8>
10007420:	e080      	b.n	10007524 <y64_x64>
10007422:	b40c      	push	{r2, r3}
10007424:	2500      	movs	r5, #0
10007426:	0a1c      	lsrs	r4, r3, #8
10007428:	d104      	bne.n	10007434 <y64_x48+0x1a>
1000742a:	021b      	lsls	r3, r3, #8
1000742c:	0e16      	lsrs	r6, r2, #24
1000742e:	4333      	orrs	r3, r6
10007430:	0212      	lsls	r2, r2, #8
10007432:	3508      	adds	r5, #8
10007434:	0b1c      	lsrs	r4, r3, #12
10007436:	d104      	bne.n	10007442 <y64_x48+0x28>
10007438:	011b      	lsls	r3, r3, #4
1000743a:	0f16      	lsrs	r6, r2, #28
1000743c:	4333      	orrs	r3, r6
1000743e:	0112      	lsls	r2, r2, #4
10007440:	3504      	adds	r5, #4
10007442:	0b9c      	lsrs	r4, r3, #14
10007444:	d104      	bne.n	10007450 <y64_x48+0x36>
10007446:	009b      	lsls	r3, r3, #2
10007448:	0f96      	lsrs	r6, r2, #30
1000744a:	4333      	orrs	r3, r6
1000744c:	0092      	lsls	r2, r2, #2
1000744e:	3502      	adds	r5, #2
10007450:	0bdc      	lsrs	r4, r3, #15
10007452:	d102      	bne.n	1000745a <y64_x48+0x40>
10007454:	1892      	adds	r2, r2, r2
10007456:	415b      	adcs	r3, r3
10007458:	3501      	adds	r5, #1
1000745a:	001c      	movs	r4, r3
1000745c:	1897      	adds	r7, r2, r2
1000745e:	4164      	adcs	r4, r4
10007460:	3401      	adds	r4, #1
10007462:	4f46      	ldr	r7, [pc, #280]	; (1000757c <y64_x64+0x58>)
10007464:	667c      	str	r4, [r7, #100]	; 0x64
10007466:	4c46      	ldr	r4, [pc, #280]	; (10007580 <y64_x64+0x5c>)
10007468:	663c      	str	r4, [r7, #96]	; 0x60
1000746a:	0c0e      	lsrs	r6, r1, #16
1000746c:	e7ff      	b.n	1000746e <y64_x48+0x54>
1000746e:	e7ff      	b.n	10007470 <y64_x48+0x56>
10007470:	e7ff      	b.n	10007472 <y64_x48+0x58>
10007472:	46c0      	nop			; (mov r8, r8)
10007474:	6f3c      	ldr	r4, [r7, #112]	; 0x70
10007476:	4366      	muls	r6, r4
10007478:	0c36      	lsrs	r6, r6, #16
1000747a:	0377      	lsls	r7, r6, #13
1000747c:	46be      	mov	lr, r7
1000747e:	b297      	uxth	r7, r2
10007480:	4377      	muls	r7, r6
10007482:	1bc0      	subs	r0, r0, r7
10007484:	d200      	bcs.n	10007488 <y64_x48+0x6e>
10007486:	3901      	subs	r1, #1
10007488:	1bc0      	subs	r0, r0, r7
1000748a:	d200      	bcs.n	1000748e <y64_x48+0x74>
1000748c:	3901      	subs	r1, #1
1000748e:	b29f      	uxth	r7, r3
10007490:	4377      	muls	r7, r6
10007492:	1bc9      	subs	r1, r1, r7
10007494:	1bc9      	subs	r1, r1, r7
10007496:	0c17      	lsrs	r7, r2, #16
10007498:	4377      	muls	r7, r6
1000749a:	047e      	lsls	r6, r7, #17
1000749c:	0bff      	lsrs	r7, r7, #15
1000749e:	1b80      	subs	r0, r0, r6
100074a0:	41b9      	sbcs	r1, r7
100074a2:	08ce      	lsrs	r6, r1, #3
100074a4:	4366      	muls	r6, r4
100074a6:	0c36      	lsrs	r6, r6, #16
100074a8:	2d0c      	cmp	r5, #12
100074aa:	db33      	blt.n	10007514 <last1>
100074ac:	44b6      	add	lr, r6
100074ae:	0b12      	lsrs	r2, r2, #12
100074b0:	051f      	lsls	r7, r3, #20
100074b2:	433a      	orrs	r2, r7
100074b4:	0b1b      	lsrs	r3, r3, #12
100074b6:	b297      	uxth	r7, r2
100074b8:	4377      	muls	r7, r6
100074ba:	1bc0      	subs	r0, r0, r7
100074bc:	d200      	bcs.n	100074c0 <y64_x48+0xa6>
100074be:	3901      	subs	r1, #1
100074c0:	b29f      	uxth	r7, r3
100074c2:	4377      	muls	r7, r6
100074c4:	1bc9      	subs	r1, r1, r7
100074c6:	0c17      	lsrs	r7, r2, #16
100074c8:	4377      	muls	r7, r6
100074ca:	043e      	lsls	r6, r7, #16
100074cc:	0c3f      	lsrs	r7, r7, #16
100074ce:	1b80      	subs	r0, r0, r6
100074d0:	41b9      	sbcs	r1, r7
100074d2:	0d86      	lsrs	r6, r0, #22
100074d4:	028f      	lsls	r7, r1, #10
100074d6:	433e      	orrs	r6, r7
100074d8:	4366      	muls	r6, r4
100074da:	2729      	movs	r7, #41	; 0x29
100074dc:	1b7f      	subs	r7, r7, r5
100074de:	40fe      	lsrs	r6, r7
100074e0:	3d0c      	subs	r5, #12
100074e2:	4677      	mov	r7, lr
100074e4:	40af      	lsls	r7, r5
100074e6:	19bf      	adds	r7, r7, r6
100074e8:	bc30      	pop	{r4, r5}
100074ea:	b2a2      	uxth	r2, r4
100074ec:	b2ab      	uxth	r3, r5
100074ee:	4372      	muls	r2, r6
100074f0:	4373      	muls	r3, r6
100074f2:	1a80      	subs	r0, r0, r2
100074f4:	4199      	sbcs	r1, r3
100074f6:	0c22      	lsrs	r2, r4, #16
100074f8:	4372      	muls	r2, r6
100074fa:	0c13      	lsrs	r3, r2, #16
100074fc:	0412      	lsls	r2, r2, #16
100074fe:	1a80      	subs	r0, r0, r2
10007500:	4199      	sbcs	r1, r3
10007502:	0002      	movs	r2, r0
10007504:	000b      	movs	r3, r1
10007506:	3701      	adds	r7, #1
10007508:	1b00      	subs	r0, r0, r4
1000750a:	41a9      	sbcs	r1, r5
1000750c:	d2f9      	bcs.n	10007502 <y64_x48+0xe8>
1000750e:	1e78      	subs	r0, r7, #1
10007510:	2100      	movs	r1, #0
10007512:	bdf0      	pop	{r4, r5, r6, r7, pc}

10007514 <last1>:
10007514:	270c      	movs	r7, #12
10007516:	1b7f      	subs	r7, r7, r5
10007518:	40fe      	lsrs	r6, r7
1000751a:	4677      	mov	r7, lr
1000751c:	0b7f      	lsrs	r7, r7, #13
1000751e:	40af      	lsls	r7, r5
10007520:	19ff      	adds	r7, r7, r7
10007522:	e7e0      	b.n	100074e6 <y64_x48+0xcc>

10007524 <y64_x64>:
10007524:	2400      	movs	r4, #0
10007526:	1c5d      	adds	r5, r3, #1
10007528:	d007      	beq.n	1000753a <y64_x64+0x16>
1000752a:	4f14      	ldr	r7, [pc, #80]	; (1000757c <y64_x64+0x58>)
1000752c:	667d      	str	r5, [r7, #100]	; 0x64
1000752e:	6639      	str	r1, [r7, #96]	; 0x60
10007530:	e7ff      	b.n	10007532 <y64_x64+0xe>
10007532:	e7ff      	b.n	10007534 <y64_x64+0x10>
10007534:	e7ff      	b.n	10007536 <y64_x64+0x12>
10007536:	e7ff      	b.n	10007538 <y64_x64+0x14>
10007538:	6f3c      	ldr	r4, [r7, #112]	; 0x70
1000753a:	b295      	uxth	r5, r2
1000753c:	b29e      	uxth	r6, r3
1000753e:	4365      	muls	r5, r4
10007540:	4366      	muls	r6, r4
10007542:	1b40      	subs	r0, r0, r5
10007544:	41b1      	sbcs	r1, r6
10007546:	0c15      	lsrs	r5, r2, #16
10007548:	0c1e      	lsrs	r6, r3, #16
1000754a:	4365      	muls	r5, r4
1000754c:	4366      	muls	r6, r4
1000754e:	0436      	lsls	r6, r6, #16
10007550:	0c2f      	lsrs	r7, r5, #16
10007552:	433e      	orrs	r6, r7
10007554:	042d      	lsls	r5, r5, #16
10007556:	1b40      	subs	r0, r0, r5
10007558:	41b1      	sbcs	r1, r6
1000755a:	4299      	cmp	r1, r3
1000755c:	d204      	bcs.n	10007568 <y64_x64+0x44>
1000755e:	0002      	movs	r2, r0
10007560:	000b      	movs	r3, r1
10007562:	0020      	movs	r0, r4
10007564:	2100      	movs	r1, #0
10007566:	bdf0      	pop	{r4, r5, r6, r7, pc}
10007568:	d101      	bne.n	1000756e <y64_x64+0x4a>
1000756a:	4290      	cmp	r0, r2
1000756c:	d3f7      	bcc.n	1000755e <y64_x64+0x3a>
1000756e:	1a80      	subs	r0, r0, r2
10007570:	4199      	sbcs	r1, r3
10007572:	3401      	adds	r4, #1
10007574:	4299      	cmp	r1, r3
10007576:	d3f2      	bcc.n	1000755e <y64_x64+0x3a>
10007578:	e7f6      	b.n	10007568 <y64_x64+0x44>
1000757a:	0000      	.short	0x0000
1000757c:	d0000000 	.word	0xd0000000
10007580:	ffffffff 	.word	0xffffffff

10007584 <__wrap___aeabi_drsub>:
10007584:	4048      	eors	r0, r1
10007586:	4041      	eors	r1, r0
10007588:	4048      	eors	r0, r1

1000758a <__wrap___aeabi_dsub>:
1000758a:	b418      	push	{r3, r4}
1000758c:	4b1b      	ldr	r3, [pc, #108]	; (100075fc <__wrap___aeabi_dmul+0x12>)
1000758e:	685b      	ldr	r3, [r3, #4]
10007590:	46fc      	mov	ip, pc
10007592:	9301      	str	r3, [sp, #4]
10007594:	bd08      	pop	{r3, pc}
10007596:	df04      	.short	0xdf04
10007598:	10007823 	.word	0x10007823

1000759c <__wrap___aeabi_dadd>:
1000759c:	b418      	push	{r3, r4}
1000759e:	4b17      	ldr	r3, [pc, #92]	; (100075fc <__wrap___aeabi_dmul+0x12>)
100075a0:	681b      	ldr	r3, [r3, #0]
100075a2:	46fc      	mov	ip, pc
100075a4:	9301      	str	r3, [sp, #4]
100075a6:	bd08      	pop	{r3, pc}
100075a8:	782ddf00 	.word	0x782ddf00
100075ac:	1000      	.short	0x1000

100075ae <__wrap___aeabi_ddiv>:
100075ae:	4694      	mov	ip, r2
100075b0:	4a13      	ldr	r2, [pc, #76]	; (10007600 <__wrap___aeabi_dmul+0x16>)
100075b2:	6f92      	ldr	r2, [r2, #120]	; 0x78
100075b4:	0892      	lsrs	r2, r2, #2
100075b6:	d209      	bcs.n	100075cc <ddiv_save_state>
100075b8:	4662      	mov	r2, ip

100075ba <ddiv_shim_call>:
100075ba:	b418      	push	{r3, r4}
100075bc:	4b0f      	ldr	r3, [pc, #60]	; (100075fc <__wrap___aeabi_dmul+0x12>)
100075be:	68db      	ldr	r3, [r3, #12]
100075c0:	46fc      	mov	ip, pc
100075c2:	9301      	str	r3, [sp, #4]
100075c4:	bd08      	pop	{r3, pc}
100075c6:	df0c      	.short	0xdf0c
100075c8:	10007ae5 	.word	0x10007ae5

100075cc <ddiv_save_state>:
100075cc:	4a0c      	ldr	r2, [pc, #48]	; (10007600 <__wrap___aeabi_dmul+0x16>)
100075ce:	b5f0      	push	{r4, r5, r6, r7, lr}
100075d0:	6e14      	ldr	r4, [r2, #96]	; 0x60
100075d2:	6e55      	ldr	r5, [r2, #100]	; 0x64
100075d4:	6f57      	ldr	r7, [r2, #116]	; 0x74
100075d6:	6f16      	ldr	r6, [r2, #112]	; 0x70
100075d8:	4662      	mov	r2, ip
100075da:	f7ff ffee 	bl	100075ba <ddiv_shim_call>
100075de:	4a08      	ldr	r2, [pc, #32]	; (10007600 <__wrap___aeabi_dmul+0x16>)
100075e0:	6614      	str	r4, [r2, #96]	; 0x60
100075e2:	6655      	str	r5, [r2, #100]	; 0x64
100075e4:	6757      	str	r7, [r2, #116]	; 0x74
100075e6:	6716      	str	r6, [r2, #112]	; 0x70
100075e8:	bdf0      	pop	{r4, r5, r6, r7, pc}

100075ea <__wrap___aeabi_dmul>:
100075ea:	b418      	push	{r3, r4}
100075ec:	4b03      	ldr	r3, [pc, #12]	; (100075fc <__wrap___aeabi_dmul+0x12>)
100075ee:	689b      	ldr	r3, [r3, #8]
100075f0:	46fc      	mov	ip, pc
100075f2:	9301      	str	r3, [sp, #4]
100075f4:	bd08      	pop	{r3, pc}
100075f6:	df08      	.short	0xdf08
100075f8:	10007989 	.word	0x10007989
100075fc:	20000388 	.word	0x20000388
10007600:	d0000000 	.word	0xd0000000

10007604 <__wrap___aeabi_cdrcmple>:
10007604:	b5ff      	push	{r0, r1, r2, r3, r4, r5, r6, r7, lr}
10007606:	4050      	eors	r0, r2
10007608:	4042      	eors	r2, r0
1000760a:	4050      	eors	r0, r2
1000760c:	4059      	eors	r1, r3
1000760e:	404b      	eors	r3, r1
10007610:	4059      	eors	r1, r3
10007612:	e000      	b.n	10007616 <__aeabi_dfcmple_guts>

10007614 <__wrap___aeabi_cdcmpeq>:
10007614:	b5ff      	push	{r0, r1, r2, r3, r4, r5, r6, r7, lr}

10007616 <__aeabi_dfcmple_guts>:
10007616:	4f15      	ldr	r7, [pc, #84]	; (1000766c <__aeabi_dfcmple_guts+0x56>)
10007618:	004c      	lsls	r4, r1, #1
1000761a:	0d64      	lsrs	r4, r4, #21
1000761c:	d003      	beq.n	10007626 <__aeabi_dfcmple_guts+0x10>
1000761e:	42bc      	cmp	r4, r7
10007620:	d104      	bne.n	1000762c <__aeabi_dfcmple_guts+0x16>
10007622:	030c      	lsls	r4, r1, #12
10007624:	d814      	bhi.n	10007650 <__aeabi_dfcmple_guts+0x3a>
10007626:	2000      	movs	r0, #0
10007628:	0d09      	lsrs	r1, r1, #20
1000762a:	0509      	lsls	r1, r1, #20
1000762c:	005c      	lsls	r4, r3, #1
1000762e:	0d64      	lsrs	r4, r4, #21
10007630:	d003      	beq.n	1000763a <__aeabi_dfcmple_guts+0x24>
10007632:	42bc      	cmp	r4, r7
10007634:	d104      	bne.n	10007640 <__aeabi_dfcmple_guts+0x2a>
10007636:	031c      	lsls	r4, r3, #12
10007638:	d80a      	bhi.n	10007650 <__aeabi_dfcmple_guts+0x3a>
1000763a:	2200      	movs	r2, #0
1000763c:	0d1b      	lsrs	r3, r3, #20
1000763e:	051b      	lsls	r3, r3, #20
10007640:	2601      	movs	r6, #1
10007642:	404b      	eors	r3, r1
10007644:	d409      	bmi.n	1000765a <__aeabi_dfcmple_guts+0x44>
10007646:	404b      	eors	r3, r1
10007648:	d503      	bpl.n	10007652 <__aeabi_dfcmple_guts+0x3c>
1000764a:	428b      	cmp	r3, r1
1000764c:	d100      	bne.n	10007650 <__aeabi_dfcmple_guts+0x3a>
1000764e:	4282      	cmp	r2, r0
10007650:	bdff      	pop	{r0, r1, r2, r3, r4, r5, r6, r7, pc}
10007652:	4299      	cmp	r1, r3
10007654:	d1fc      	bne.n	10007650 <__aeabi_dfcmple_guts+0x3a>
10007656:	4290      	cmp	r0, r2
10007658:	bdff      	pop	{r0, r1, r2, r3, r4, r5, r6, r7, pc}
1000765a:	430b      	orrs	r3, r1
1000765c:	18db      	adds	r3, r3, r3
1000765e:	4303      	orrs	r3, r0
10007660:	4313      	orrs	r3, r2
10007662:	d0f5      	beq.n	10007650 <__aeabi_dfcmple_guts+0x3a>
10007664:	43c9      	mvns	r1, r1
10007666:	1849      	adds	r1, r1, r1
10007668:	bdff      	pop	{r0, r1, r2, r3, r4, r5, r6, r7, pc}
1000766a:	0000      	.short	0x0000
1000766c:	000007ff 	.word	0x000007ff

10007670 <__wrap___aeabi_dcmplt>:
10007670:	b500      	push	{lr}
10007672:	f7ff ffcf 	bl	10007614 <__wrap___aeabi_cdcmpeq>
10007676:	4180      	sbcs	r0, r0
10007678:	bd00      	pop	{pc}
1000767a:	46c0      	nop			; (mov r8, r8)

1000767c <__wrap___aeabi_dcmple>:
1000767c:	b500      	push	{lr}
1000767e:	f7ff ffc9 	bl	10007614 <__wrap___aeabi_cdcmpeq>
10007682:	d901      	bls.n	10007688 <__wrap___aeabi_dcmple+0xc>
10007684:	2000      	movs	r0, #0
10007686:	bd00      	pop	{pc}
10007688:	2001      	movs	r0, #1
1000768a:	bd00      	pop	{pc}

1000768c <__wrap___aeabi_dcmpge>:
1000768c:	b500      	push	{lr}
1000768e:	f7ff ffb9 	bl	10007604 <__wrap___aeabi_cdrcmple>
10007692:	d901      	bls.n	10007698 <__wrap___aeabi_dcmpge+0xc>
10007694:	2000      	movs	r0, #0
10007696:	bd00      	pop	{pc}
10007698:	2001      	movs	r0, #1
1000769a:	bd00      	pop	{pc}

1000769c <__wrap___aeabi_dcmpgt>:
1000769c:	b500      	push	{lr}
1000769e:	f7ff ffb1 	bl	10007604 <__wrap___aeabi_cdrcmple>
100076a2:	4180      	sbcs	r0, r0
100076a4:	bd00      	pop	{pc}

100076a6 <__wrap___aeabi_dcmpun>:
100076a6:	2001      	movs	r0, #1
100076a8:	0540      	lsls	r0, r0, #21
100076aa:	004a      	lsls	r2, r1, #1
100076ac:	1812      	adds	r2, r2, r0
100076ae:	d804      	bhi.n	100076ba <__wrap___aeabi_dcmpun+0x14>
100076b0:	005a      	lsls	r2, r3, #1
100076b2:	1812      	adds	r2, r2, r0
100076b4:	d801      	bhi.n	100076ba <__wrap___aeabi_dcmpun+0x14>
100076b6:	2000      	movs	r0, #0
100076b8:	4770      	bx	lr
100076ba:	2001      	movs	r0, #1
100076bc:	4770      	bx	lr
100076be:	2000      	movs	r0, #0
100076c0:	4770      	bx	lr
	...

100076c4 <__wrap___aeabi_ui2d>:
100076c4:	2100      	movs	r1, #0
100076c6:	2800      	cmp	r0, #0
100076c8:	d105      	bne.n	100076d6 <__wrap___aeabi_i2d+0xa>
100076ca:	4770      	bx	lr

100076cc <__wrap___aeabi_i2d>:
100076cc:	17c1      	asrs	r1, r0, #31
100076ce:	4048      	eors	r0, r1
100076d0:	1a40      	subs	r0, r0, r1
100076d2:	d0fa      	beq.n	100076ca <__wrap___aeabi_ui2d+0x6>
100076d4:	07c9      	lsls	r1, r1, #31
100076d6:	b513      	push	{r0, r1, r4, lr}
100076d8:	4b06      	ldr	r3, [pc, #24]	; (100076f4 <__wrap___aeabi_i2d+0x28>)
100076da:	681b      	ldr	r3, [r3, #0]
100076dc:	4798      	blx	r3
100076de:	bc0c      	pop	{r2, r3}
100076e0:	1c44      	adds	r4, r0, #1
100076e2:	40a2      	lsls	r2, r4
100076e4:	0510      	lsls	r0, r2, #20
100076e6:	0b12      	lsrs	r2, r2, #12
100076e8:	4903      	ldr	r1, [pc, #12]	; (100076f8 <__wrap___aeabi_i2d+0x2c>)
100076ea:	1b09      	subs	r1, r1, r4
100076ec:	0509      	lsls	r1, r1, #20
100076ee:	4319      	orrs	r1, r3
100076f0:	4311      	orrs	r1, r2
100076f2:	bd10      	pop	{r4, pc}
100076f4:	200006f0 	.word	0x200006f0
100076f8:	0000041f 	.word	0x0000041f

100076fc <__wrap___aeabi_d2iz>:
100076fc:	b510      	push	{r4, lr}
100076fe:	004c      	lsls	r4, r1, #1
10007700:	0d62      	lsrs	r2, r4, #21
10007702:	2380      	movs	r3, #128	; 0x80
10007704:	18d2      	adds	r2, r2, r3
10007706:	00db      	lsls	r3, r3, #3
10007708:	1ad2      	subs	r2, r2, r3
1000770a:	055b      	lsls	r3, r3, #21
1000770c:	2a7e      	cmp	r2, #126	; 0x7e
1000770e:	dd10      	ble.n	10007732 <__wrap___aeabi_d2iz+0x36>
10007710:	3a9e      	subs	r2, #158	; 0x9e
10007712:	da13      	bge.n	1000773c <__wrap___aeabi_d2iz+0x40>
10007714:	17cc      	asrs	r4, r1, #31
10007716:	0309      	lsls	r1, r1, #12
10007718:	0849      	lsrs	r1, r1, #1
1000771a:	4319      	orrs	r1, r3
1000771c:	4252      	negs	r2, r2
1000771e:	40d1      	lsrs	r1, r2
10007720:	0064      	lsls	r4, r4, #1
10007722:	3401      	adds	r4, #1
10007724:	3215      	adds	r2, #21
10007726:	2a20      	cmp	r2, #32
10007728:	da05      	bge.n	10007736 <__wrap___aeabi_d2iz+0x3a>
1000772a:	40d0      	lsrs	r0, r2
1000772c:	4308      	orrs	r0, r1
1000772e:	4360      	muls	r0, r4
10007730:	bd10      	pop	{r4, pc}
10007732:	2000      	movs	r0, #0
10007734:	bd10      	pop	{r4, pc}
10007736:	4608      	mov	r0, r1
10007738:	4360      	muls	r0, r4
1000773a:	bd10      	pop	{r4, pc}
1000773c:	0fc8      	lsrs	r0, r1, #31
1000773e:	18c0      	adds	r0, r0, r3
10007740:	3801      	subs	r0, #1
10007742:	bd10      	pop	{r4, pc}

10007744 <__wrap___aeabi_d2uiz>:
10007744:	b418      	push	{r3, r4}
10007746:	4b04      	ldr	r3, [pc, #16]	; (10007758 <__wrap___aeabi_d2uiz+0x14>)
10007748:	6a5b      	ldr	r3, [r3, #36]	; 0x24
1000774a:	46fc      	mov	ip, pc
1000774c:	9301      	str	r3, [sp, #4]
1000774e:	bd08      	pop	{r3, pc}
10007750:	7c95df24 	.word	0x7c95df24
10007754:	00001000 	.word	0x00001000
10007758:	20000388 	.word	0x20000388

1000775c <__aeabi_double_init>:
1000775c:	2313      	movs	r3, #19
1000775e:	b570      	push	{r4, r5, r6, lr}
10007760:	781d      	ldrb	r5, [r3, #0]
10007762:	2d01      	cmp	r5, #1
10007764:	d015      	beq.n	10007792 <__aeabi_double_init+0x36>
10007766:	dd10      	ble.n	1000778a <__aeabi_double_init+0x2e>
10007768:	481c      	ldr	r0, [pc, #112]	; (100077dc <__aeabi_double_init+0x80>)
1000776a:	f7ff fc81 	bl	10007070 <rom_data_lookup>
1000776e:	4c1c      	ldr	r4, [pc, #112]	; (100077e0 <__aeabi_double_init+0x84>)
10007770:	0001      	movs	r1, r0
10007772:	2280      	movs	r2, #128	; 0x80
10007774:	0020      	movs	r0, r4
10007776:	f000 fc0d 	bl	10007f94 <__wrap___aeabi_memcpy>
1000777a:	2d02      	cmp	r5, #2
1000777c:	d006      	beq.n	1000778c <__aeabi_double_init+0x30>
1000777e:	4819      	ldr	r0, [pc, #100]	; (100077e4 <__aeabi_double_init+0x88>)
10007780:	f7ff fc6e 	bl	10007060 <rom_func_lookup>
10007784:	4b18      	ldr	r3, [pc, #96]	; (100077e8 <__aeabi_double_init+0x8c>)
10007786:	6018      	str	r0, [r3, #0]
10007788:	bd70      	pop	{r4, r5, r6, pc}
1000778a:	4c15      	ldr	r4, [pc, #84]	; (100077e0 <__aeabi_double_init+0x84>)
1000778c:	4b17      	ldr	r3, [pc, #92]	; (100077ec <__aeabi_double_init+0x90>)
1000778e:	64a3      	str	r3, [r4, #72]	; 0x48
10007790:	e7f5      	b.n	1000777e <__aeabi_double_init+0x22>
10007792:	4b16      	ldr	r3, [pc, #88]	; (100077ec <__aeabi_double_init+0x90>)
10007794:	4c12      	ldr	r4, [pc, #72]	; (100077e0 <__aeabi_double_init+0x84>)
10007796:	6023      	str	r3, [r4, #0]
10007798:	6063      	str	r3, [r4, #4]
1000779a:	60a3      	str	r3, [r4, #8]
1000779c:	60e3      	str	r3, [r4, #12]
1000779e:	6123      	str	r3, [r4, #16]
100077a0:	6163      	str	r3, [r4, #20]
100077a2:	61a3      	str	r3, [r4, #24]
100077a4:	61e3      	str	r3, [r4, #28]
100077a6:	6223      	str	r3, [r4, #32]
100077a8:	6263      	str	r3, [r4, #36]	; 0x24
100077aa:	62a3      	str	r3, [r4, #40]	; 0x28
100077ac:	62e3      	str	r3, [r4, #44]	; 0x2c
100077ae:	6323      	str	r3, [r4, #48]	; 0x30
100077b0:	6363      	str	r3, [r4, #52]	; 0x34
100077b2:	63a3      	str	r3, [r4, #56]	; 0x38
100077b4:	63e3      	str	r3, [r4, #60]	; 0x3c
100077b6:	6423      	str	r3, [r4, #64]	; 0x40
100077b8:	6463      	str	r3, [r4, #68]	; 0x44
100077ba:	64a3      	str	r3, [r4, #72]	; 0x48
100077bc:	64e3      	str	r3, [r4, #76]	; 0x4c
100077be:	6523      	str	r3, [r4, #80]	; 0x50
100077c0:	6563      	str	r3, [r4, #84]	; 0x54
100077c2:	65a3      	str	r3, [r4, #88]	; 0x58
100077c4:	65e3      	str	r3, [r4, #92]	; 0x5c
100077c6:	6623      	str	r3, [r4, #96]	; 0x60
100077c8:	6663      	str	r3, [r4, #100]	; 0x64
100077ca:	66a3      	str	r3, [r4, #104]	; 0x68
100077cc:	66e3      	str	r3, [r4, #108]	; 0x6c
100077ce:	6723      	str	r3, [r4, #112]	; 0x70
100077d0:	6763      	str	r3, [r4, #116]	; 0x74
100077d2:	67a3      	str	r3, [r4, #120]	; 0x78
100077d4:	67e3      	str	r3, [r4, #124]	; 0x7c
100077d6:	64a3      	str	r3, [r4, #72]	; 0x48
100077d8:	e7d1      	b.n	1000777e <__aeabi_double_init+0x22>
100077da:	46c0      	nop			; (mov r8, r8)
100077dc:	00004453 	.word	0x00004453
100077e0:	20000388 	.word	0x20000388
100077e4:	0000334c 	.word	0x0000334c
100077e8:	200006f0 	.word	0x200006f0
100077ec:	100077f1 	.word	0x100077f1

100077f0 <double_table_shim_on_use_helper>:
100077f0:	b507      	push	{r0, r1, r2, lr}
100077f2:	4660      	mov	r0, ip
100077f4:	8801      	ldrh	r1, [r0, #0]
100077f6:	0a0a      	lsrs	r2, r1, #8
100077f8:	3002      	adds	r0, #2
100077fa:	2adf      	cmp	r2, #223	; 0xdf
100077fc:	d1fa      	bne.n	100077f4 <double_table_shim_on_use_helper+0x4>
100077fe:	b2c9      	uxtb	r1, r1
10007800:	0882      	lsrs	r2, r0, #2
10007802:	d304      	bcc.n	1000780e <double_table_shim_on_use_helper+0x1e>
10007804:	8802      	ldrh	r2, [r0, #0]
10007806:	8840      	ldrh	r0, [r0, #2]
10007808:	0400      	lsls	r0, r0, #16
1000780a:	4310      	orrs	r0, r2
1000780c:	e000      	b.n	10007810 <double_table_shim_on_use_helper+0x20>
1000780e:	6800      	ldr	r0, [r0, #0]
10007810:	4a01      	ldr	r2, [pc, #4]	; (10007818 <double_table_shim_on_use_helper+0x28>)
10007812:	5050      	str	r0, [r2, r1]
10007814:	9003      	str	r0, [sp, #12]
10007816:	bd07      	pop	{r0, r1, r2, pc}
10007818:	20000388 	.word	0x20000388

1000781c <drsub_shim>:
1000781c:	b40f      	push	{r0, r1, r2, r3}
1000781e:	bc03      	pop	{r0, r1}
10007820:	bc0c      	pop	{r2, r3}

10007822 <dsub_shim>:
10007822:	b5f0      	push	{r4, r5, r6, r7, lr}
10007824:	2401      	movs	r4, #1
10007826:	07e4      	lsls	r4, r4, #31
10007828:	4063      	eors	r3, r4
1000782a:	e000      	b.n	1000782e <da_entry>

1000782c <dadd_shim>:
1000782c:	b5f0      	push	{r4, r5, r6, r7, lr}

1000782e <da_entry>:
1000782e:	0d0c      	lsrs	r4, r1, #20
10007830:	0fcf      	lsrs	r7, r1, #31
10007832:	1e66      	subs	r6, r4, #1
10007834:	0536      	lsls	r6, r6, #20
10007836:	1b89      	subs	r1, r1, r6
10007838:	0564      	lsls	r4, r4, #21
1000783a:	d303      	bcc.n	10007844 <l8_1>
1000783c:	43c9      	mvns	r1, r1
1000783e:	4240      	negs	r0, r0
10007840:	d300      	bcc.n	10007844 <l8_1>
10007842:	3101      	adds	r1, #1

10007844 <l8_1>:
10007844:	0d64      	lsrs	r4, r4, #21
10007846:	d003      	beq.n	10007850 <l8_2>
10007848:	1c66      	adds	r6, r4, #1
1000784a:	0af6      	lsrs	r6, r6, #11
1000784c:	d007      	beq.n	1000785e <l8_3>
1000784e:	1be4      	subs	r4, r4, r7

10007850 <l8_2>:
10007850:	2000      	movs	r0, #0
10007852:	007f      	lsls	r7, r7, #1
10007854:	1c79      	adds	r1, r7, #1
10007856:	0789      	lsls	r1, r1, #30
10007858:	1289      	asrs	r1, r1, #10
1000785a:	3c80      	subs	r4, #128	; 0x80
1000785c:	0324      	lsls	r4, r4, #12

1000785e <l8_3>:
1000785e:	0d1d      	lsrs	r5, r3, #20
10007860:	0fdf      	lsrs	r7, r3, #31
10007862:	1e6e      	subs	r6, r5, #1
10007864:	0536      	lsls	r6, r6, #20
10007866:	1b9b      	subs	r3, r3, r6
10007868:	056d      	lsls	r5, r5, #21
1000786a:	d303      	bcc.n	10007874 <l9_1>
1000786c:	43db      	mvns	r3, r3
1000786e:	4252      	negs	r2, r2
10007870:	d300      	bcc.n	10007874 <l9_1>
10007872:	3301      	adds	r3, #1

10007874 <l9_1>:
10007874:	0d6d      	lsrs	r5, r5, #21
10007876:	d003      	beq.n	10007880 <l9_2>
10007878:	1c6e      	adds	r6, r5, #1
1000787a:	0af6      	lsrs	r6, r6, #11
1000787c:	d007      	beq.n	1000788e <l9_3>
1000787e:	1bed      	subs	r5, r5, r7

10007880 <l9_2>:
10007880:	2200      	movs	r2, #0
10007882:	007f      	lsls	r7, r7, #1
10007884:	1c7b      	adds	r3, r7, #1
10007886:	079b      	lsls	r3, r3, #30
10007888:	129b      	asrs	r3, r3, #10
1000788a:	3d80      	subs	r5, #128	; 0x80
1000788c:	032d      	lsls	r5, r5, #12

1000788e <l9_3>:
1000788e:	1b2f      	subs	r7, r5, r4
10007890:	1b66      	subs	r6, r4, r5
10007892:	d458      	bmi.n	10007946 <da_ygtx>
10007894:	46a4      	mov	ip, r4
10007896:	2e20      	cmp	r6, #32
10007898:	da46      	bge.n	10007928 <da_xrgty>
1000789a:	3720      	adds	r7, #32
1000789c:	0014      	movs	r4, r2
1000789e:	40bc      	lsls	r4, r7

100078a0 <da_xgty0>:
100078a0:	001d      	movs	r5, r3
100078a2:	40bd      	lsls	r5, r7
100078a4:	40f2      	lsrs	r2, r6
100078a6:	4133      	asrs	r3, r6
100078a8:	432a      	orrs	r2, r5

100078aa <da_add>:
100078aa:	1880      	adds	r0, r0, r2
100078ac:	4159      	adcs	r1, r3

100078ae <da_pack>:
100078ae:	0fcb      	lsrs	r3, r1, #31
100078b0:	d005      	beq.n	100078be <da_pack+0x10>
100078b2:	43c9      	mvns	r1, r1
100078b4:	43c0      	mvns	r0, r0
100078b6:	2200      	movs	r2, #0
100078b8:	4264      	negs	r4, r4
100078ba:	4150      	adcs	r0, r2
100078bc:	4151      	adcs	r1, r2
100078be:	4662      	mov	r2, ip
100078c0:	0d4d      	lsrs	r5, r1, #21
100078c2:	d128      	bne.n	10007916 <da_0>
100078c4:	0d0d      	lsrs	r5, r1, #20
100078c6:	d107      	bne.n	100078d8 <da_1>
100078c8:	2800      	cmp	r0, #0
100078ca:	d01f      	beq.n	1000790c <da_5>

100078cc <da_2>:
100078cc:	1924      	adds	r4, r4, r4
100078ce:	4140      	adcs	r0, r0
100078d0:	4149      	adcs	r1, r1
100078d2:	3a01      	subs	r2, #1
100078d4:	0d0d      	lsrs	r5, r1, #20
100078d6:	d0f9      	beq.n	100078cc <da_2>

100078d8 <da_1>:
100078d8:	0064      	lsls	r4, r4, #1
100078da:	d306      	bcc.n	100078ea <da_3>

100078dc <da_4>:
100078dc:	3001      	adds	r0, #1
100078de:	d300      	bcc.n	100078e2 <da_4+0x6>
100078e0:	3101      	adds	r1, #1
100078e2:	2c00      	cmp	r4, #0
100078e4:	d101      	bne.n	100078ea <da_3>
100078e6:	0840      	lsrs	r0, r0, #1
100078e8:	0040      	lsls	r0, r0, #1

100078ea <da_3>:
100078ea:	3a01      	subs	r2, #1
100078ec:	d40b      	bmi.n	10007906 <da_6>
100078ee:	1c94      	adds	r4, r2, #2
100078f0:	0ae4      	lsrs	r4, r4, #11
100078f2:	d104      	bne.n	100078fe <da_7>
100078f4:	0512      	lsls	r2, r2, #20
100078f6:	4411      	add	r1, r2
100078f8:	07db      	lsls	r3, r3, #31
100078fa:	4419      	add	r1, r3
100078fc:	bdf0      	pop	{r4, r5, r6, r7, pc}

100078fe <da_7>:
100078fe:	07d9      	lsls	r1, r3, #31
10007900:	4b20      	ldr	r3, [pc, #128]	; (10007984 <da_xmgty+0x4>)
10007902:	4319      	orrs	r1, r3
10007904:	e000      	b.n	10007908 <da_6+0x2>

10007906 <da_6>:
10007906:	07d9      	lsls	r1, r3, #31
10007908:	2000      	movs	r0, #0
1000790a:	bdf0      	pop	{r4, r5, r6, r7, pc}

1000790c <da_5>:
1000790c:	2900      	cmp	r1, #0
1000790e:	d1dd      	bne.n	100078cc <da_2>
10007910:	2c00      	cmp	r4, #0
10007912:	d1db      	bne.n	100078cc <da_2>
10007914:	bdf0      	pop	{r4, r5, r6, r7, pc}

10007916 <da_0>:
10007916:	3201      	adds	r2, #1
10007918:	07c6      	lsls	r6, r0, #31
1000791a:	0840      	lsrs	r0, r0, #1
1000791c:	07cd      	lsls	r5, r1, #31
1000791e:	4328      	orrs	r0, r5
10007920:	0849      	lsrs	r1, r1, #1
10007922:	2e00      	cmp	r6, #0
10007924:	d0e1      	beq.n	100078ea <da_3>
10007926:	e7d9      	b.n	100078dc <da_4>

10007928 <da_xrgty>:
10007928:	2e3c      	cmp	r6, #60	; 0x3c
1000792a:	da29      	bge.n	10007980 <da_xmgty>
1000792c:	3e20      	subs	r6, #32
1000792e:	3740      	adds	r7, #64	; 0x40
10007930:	0014      	movs	r4, r2
10007932:	40bc      	lsls	r4, r7
10007934:	d000      	beq.n	10007938 <da_xrgty+0x10>
10007936:	2401      	movs	r4, #1
10007938:	40f2      	lsrs	r2, r6
1000793a:	4314      	orrs	r4, r2
1000793c:	001a      	movs	r2, r3
1000793e:	40bb      	lsls	r3, r7
10007940:	431c      	orrs	r4, r3
10007942:	17d3      	asrs	r3, r2, #31
10007944:	e7ac      	b.n	100078a0 <da_xgty0>

10007946 <da_ygtx>:
10007946:	46ac      	mov	ip, r5
10007948:	2f20      	cmp	r7, #32
1000794a:	da08      	bge.n	1000795e <da_yrgtx>
1000794c:	3620      	adds	r6, #32
1000794e:	0004      	movs	r4, r0
10007950:	40b4      	lsls	r4, r6

10007952 <da_ygtx0>:
10007952:	000d      	movs	r5, r1
10007954:	40b5      	lsls	r5, r6
10007956:	40f8      	lsrs	r0, r7
10007958:	4139      	asrs	r1, r7
1000795a:	4328      	orrs	r0, r5
1000795c:	e7a5      	b.n	100078aa <da_add>

1000795e <da_yrgtx>:
1000795e:	2f3c      	cmp	r7, #60	; 0x3c
10007960:	da0c      	bge.n	1000797c <da_ymgtx>
10007962:	3f20      	subs	r7, #32
10007964:	3640      	adds	r6, #64	; 0x40
10007966:	0004      	movs	r4, r0
10007968:	40b4      	lsls	r4, r6
1000796a:	d000      	beq.n	1000796e <da_yrgtx+0x10>
1000796c:	2401      	movs	r4, #1
1000796e:	40f8      	lsrs	r0, r7
10007970:	4304      	orrs	r4, r0
10007972:	0008      	movs	r0, r1
10007974:	40b1      	lsls	r1, r6
10007976:	430c      	orrs	r4, r1
10007978:	17c1      	asrs	r1, r0, #31
1000797a:	e7ea      	b.n	10007952 <da_ygtx0>

1000797c <da_ymgtx>:
1000797c:	0010      	movs	r0, r2
1000797e:	0019      	movs	r1, r3

10007980 <da_xmgty>:
10007980:	2400      	movs	r4, #0
10007982:	e794      	b.n	100078ae <da_pack>
10007984:	7ff00000 	.word	0x7ff00000

10007988 <dmul_shim>:
10007988:	b5f0      	push	{r4, r5, r6, r7, lr}
1000798a:	0d0c      	lsrs	r4, r1, #20
1000798c:	1e66      	subs	r6, r4, #1
1000798e:	0536      	lsls	r6, r6, #20
10007990:	1b89      	subs	r1, r1, r6
10007992:	0ae6      	lsrs	r6, r4, #11
10007994:	0564      	lsls	r4, r4, #21
10007996:	0d64      	lsrs	r4, r4, #21
10007998:	d002      	beq.n	100079a0 <l12_1>
1000799a:	1c65      	adds	r5, r4, #1
1000799c:	0aed      	lsrs	r5, r5, #11
1000799e:	d004      	beq.n	100079aa <l12_2>

100079a0 <l12_1>:
100079a0:	2000      	movs	r0, #0
100079a2:	2101      	movs	r1, #1
100079a4:	0509      	lsls	r1, r1, #20
100079a6:	3c80      	subs	r4, #128	; 0x80
100079a8:	0324      	lsls	r4, r4, #12

100079aa <l12_2>:
100079aa:	46a4      	mov	ip, r4
100079ac:	0d1c      	lsrs	r4, r3, #20
100079ae:	1e67      	subs	r7, r4, #1
100079b0:	053f      	lsls	r7, r7, #20
100079b2:	1bdb      	subs	r3, r3, r7
100079b4:	0ae7      	lsrs	r7, r4, #11
100079b6:	0564      	lsls	r4, r4, #21
100079b8:	0d64      	lsrs	r4, r4, #21
100079ba:	d002      	beq.n	100079c2 <l13_1>
100079bc:	1c65      	adds	r5, r4, #1
100079be:	0aed      	lsrs	r5, r5, #11
100079c0:	d004      	beq.n	100079cc <l13_2>

100079c2 <l13_1>:
100079c2:	2200      	movs	r2, #0
100079c4:	2301      	movs	r3, #1
100079c6:	051b      	lsls	r3, r3, #20
100079c8:	3c80      	subs	r4, #128	; 0x80
100079ca:	0324      	lsls	r4, r4, #12

100079cc <l13_2>:
100079cc:	4077      	eors	r7, r6
100079ce:	4464      	add	r4, ip
100079d0:	b497      	push	{r0, r1, r2, r4, r7}
100079d2:	b284      	uxth	r4, r0
100079d4:	b296      	uxth	r6, r2
100079d6:	4374      	muls	r4, r6
100079d8:	0c07      	lsrs	r7, r0, #16
100079da:	437e      	muls	r6, r7
100079dc:	0c15      	lsrs	r5, r2, #16
100079de:	436f      	muls	r7, r5
100079e0:	b280      	uxth	r0, r0
100079e2:	4368      	muls	r0, r5
100079e4:	1836      	adds	r6, r6, r0
100079e6:	d302      	bcc.n	100079ee <l14_1>
100079e8:	2001      	movs	r0, #1
100079ea:	0400      	lsls	r0, r0, #16
100079ec:	183f      	adds	r7, r7, r0

100079ee <l14_1>:
100079ee:	0430      	lsls	r0, r6, #16
100079f0:	0c35      	lsrs	r5, r6, #16
100079f2:	1900      	adds	r0, r0, r4
100079f4:	417d      	adcs	r5, r7
100079f6:	4684      	mov	ip, r0
100079f8:	b288      	uxth	r0, r1
100079fa:	b29a      	uxth	r2, r3
100079fc:	4350      	muls	r0, r2
100079fe:	0c0c      	lsrs	r4, r1, #16
10007a00:	4362      	muls	r2, r4
10007a02:	0c1f      	lsrs	r7, r3, #16
10007a04:	437c      	muls	r4, r7
10007a06:	b28e      	uxth	r6, r1
10007a08:	437e      	muls	r6, r7
10007a0a:	1992      	adds	r2, r2, r6
10007a0c:	d302      	bcc.n	10007a14 <l15_1>
10007a0e:	2601      	movs	r6, #1
10007a10:	0436      	lsls	r6, r6, #16
10007a12:	19a4      	adds	r4, r4, r6

10007a14 <l15_1>:
10007a14:	0416      	lsls	r6, r2, #16
10007a16:	0c17      	lsrs	r7, r2, #16
10007a18:	1836      	adds	r6, r6, r0
10007a1a:	4167      	adcs	r7, r4
10007a1c:	bc01      	pop	{r0}
10007a1e:	b281      	uxth	r1, r0
10007a20:	b29a      	uxth	r2, r3
10007a22:	4351      	muls	r1, r2
10007a24:	0c04      	lsrs	r4, r0, #16
10007a26:	4362      	muls	r2, r4
10007a28:	0c1b      	lsrs	r3, r3, #16
10007a2a:	435c      	muls	r4, r3
10007a2c:	b280      	uxth	r0, r0
10007a2e:	4358      	muls	r0, r3
10007a30:	1812      	adds	r2, r2, r0
10007a32:	d302      	bcc.n	10007a3a <l16_1>
10007a34:	2001      	movs	r0, #1
10007a36:	0400      	lsls	r0, r0, #16
10007a38:	1824      	adds	r4, r4, r0

10007a3a <l16_1>:
10007a3a:	0410      	lsls	r0, r2, #16
10007a3c:	0c13      	lsrs	r3, r2, #16
10007a3e:	1840      	adds	r0, r0, r1
10007a40:	4163      	adcs	r3, r4
10007a42:	182d      	adds	r5, r5, r0
10007a44:	415e      	adcs	r6, r3
10007a46:	2000      	movs	r0, #0
10007a48:	4147      	adcs	r7, r0
10007a4a:	bc06      	pop	{r1, r2}
10007a4c:	b288      	uxth	r0, r1
10007a4e:	b293      	uxth	r3, r2
10007a50:	4358      	muls	r0, r3
10007a52:	0c0c      	lsrs	r4, r1, #16
10007a54:	4363      	muls	r3, r4
10007a56:	0c12      	lsrs	r2, r2, #16
10007a58:	4354      	muls	r4, r2
10007a5a:	b289      	uxth	r1, r1
10007a5c:	4351      	muls	r1, r2
10007a5e:	185b      	adds	r3, r3, r1
10007a60:	d302      	bcc.n	10007a68 <l17_1>
10007a62:	2101      	movs	r1, #1
10007a64:	0409      	lsls	r1, r1, #16
10007a66:	1864      	adds	r4, r4, r1

10007a68 <l17_1>:
10007a68:	0419      	lsls	r1, r3, #16
10007a6a:	0c1a      	lsrs	r2, r3, #16
10007a6c:	1809      	adds	r1, r1, r0
10007a6e:	4162      	adcs	r2, r4
10007a70:	186d      	adds	r5, r5, r1
10007a72:	4156      	adcs	r6, r2
10007a74:	2000      	movs	r0, #0
10007a76:	4147      	adcs	r7, r0
10007a78:	bc18      	pop	{r3, r4}
10007a7a:	02f9      	lsls	r1, r7, #11
10007a7c:	0d72      	lsrs	r2, r6, #21
10007a7e:	4311      	orrs	r1, r2
10007a80:	02f0      	lsls	r0, r6, #11
10007a82:	0d6a      	lsrs	r2, r5, #21
10007a84:	4310      	orrs	r0, r2
10007a86:	02ed      	lsls	r5, r5, #11
10007a88:	0d0a      	lsrs	r2, r1, #20
10007a8a:	d103      	bne.n	10007a94 <l17_1+0x2c>
10007a8c:	196d      	adds	r5, r5, r5
10007a8e:	4140      	adcs	r0, r0
10007a90:	4149      	adcs	r1, r1
10007a92:	3b01      	subs	r3, #1
10007a94:	4e12      	ldr	r6, [pc, #72]	; (10007ae0 <dm_1+0xa>)
10007a96:	1b9b      	subs	r3, r3, r6
10007a98:	0076      	lsls	r6, r6, #1
10007a9a:	42b3      	cmp	r3, r6
10007a9c:	d20e      	bcs.n	10007abc <dm_0>
10007a9e:	006d      	lsls	r5, r5, #1
10007aa0:	d307      	bcc.n	10007ab2 <l17_1+0x4a>
10007aa2:	3001      	adds	r0, #1
10007aa4:	2600      	movs	r6, #0
10007aa6:	4171      	adcs	r1, r6
10007aa8:	4666      	mov	r6, ip
10007aaa:	4335      	orrs	r5, r6
10007aac:	d101      	bne.n	10007ab2 <l17_1+0x4a>
10007aae:	0840      	lsrs	r0, r0, #1
10007ab0:	0040      	lsls	r0, r0, #1
10007ab2:	051b      	lsls	r3, r3, #20
10007ab4:	18c9      	adds	r1, r1, r3

10007ab6 <dm_2>:
10007ab6:	07e4      	lsls	r4, r4, #31
10007ab8:	4421      	add	r1, r4
10007aba:	bdf0      	pop	{r4, r5, r6, r7, pc}

10007abc <dm_0>:
10007abc:	da0b      	bge.n	10007ad6 <dm_1>
10007abe:	3301      	adds	r3, #1
10007ac0:	d106      	bne.n	10007ad0 <dm_0+0x14>
10007ac2:	3001      	adds	r0, #1
10007ac4:	d104      	bne.n	10007ad0 <dm_0+0x14>
10007ac6:	3101      	adds	r1, #1
10007ac8:	0d4f      	lsrs	r7, r1, #21
10007aca:	d001      	beq.n	10007ad0 <dm_0+0x14>
10007acc:	0849      	lsrs	r1, r1, #1
10007ace:	e7f2      	b.n	10007ab6 <dm_2>
10007ad0:	07e1      	lsls	r1, r4, #31
10007ad2:	2000      	movs	r0, #0
10007ad4:	bdf0      	pop	{r4, r5, r6, r7, pc}

10007ad6 <dm_1>:
10007ad6:	3601      	adds	r6, #1
10007ad8:	0531      	lsls	r1, r6, #20
10007ada:	2000      	movs	r0, #0
10007adc:	e7eb      	b.n	10007ab6 <dm_2>
10007ade:	0000      	.short	0x0000
10007ae0:	000003ff 	.word	0x000003ff

10007ae4 <ddiv_shim>:
10007ae4:	b5f0      	push	{r4, r5, r6, r7, lr}

10007ae6 <ddiv0>:
10007ae6:	0d1c      	lsrs	r4, r3, #20
10007ae8:	1e67      	subs	r7, r4, #1
10007aea:	053f      	lsls	r7, r7, #20
10007aec:	1bdb      	subs	r3, r3, r7
10007aee:	0ae7      	lsrs	r7, r4, #11
10007af0:	0564      	lsls	r4, r4, #21
10007af2:	0d64      	lsrs	r4, r4, #21
10007af4:	d002      	beq.n	10007afc <l20_1>
10007af6:	1c66      	adds	r6, r4, #1
10007af8:	0af6      	lsrs	r6, r6, #11
10007afa:	d004      	beq.n	10007b06 <l20_2>

10007afc <l20_1>:
10007afc:	2200      	movs	r2, #0
10007afe:	2301      	movs	r3, #1
10007b00:	051b      	lsls	r3, r3, #20
10007b02:	3c80      	subs	r4, #128	; 0x80
10007b04:	0324      	lsls	r4, r4, #12

10007b06 <l20_2>:
10007b06:	25d0      	movs	r5, #208	; 0xd0
10007b08:	062d      	lsls	r5, r5, #24
10007b0a:	2600      	movs	r6, #0
10007b0c:	43f6      	mvns	r6, r6
10007b0e:	662e      	str	r6, [r5, #96]	; 0x60
10007b10:	091e      	lsrs	r6, r3, #4
10007b12:	666e      	str	r6, [r5, #100]	; 0x64
10007b14:	0fce      	lsrs	r6, r1, #31
10007b16:	19f6      	adds	r6, r6, r7
10007b18:	46b4      	mov	ip, r6
10007b1a:	0049      	lsls	r1, r1, #1
10007b1c:	0d4f      	lsrs	r7, r1, #21
10007b1e:	d002      	beq.n	10007b26 <l20_2+0x20>
10007b20:	1c7e      	adds	r6, r7, #1
10007b22:	0af6      	lsrs	r6, r6, #11
10007b24:	d003      	beq.n	10007b2e <l20_2+0x28>
10007b26:	2000      	movs	r0, #0
10007b28:	2100      	movs	r1, #0
10007b2a:	3f40      	subs	r7, #64	; 0x40
10007b2c:	033f      	lsls	r7, r7, #12
10007b2e:	1b3e      	subs	r6, r7, r4
10007b30:	00b6      	lsls	r6, r6, #2
10007b32:	44b4      	add	ip, r6
10007b34:	3f01      	subs	r7, #1
10007b36:	057f      	lsls	r7, r7, #21
10007b38:	1bc9      	subs	r1, r1, r7
10007b3a:	0849      	lsrs	r1, r1, #1
10007b3c:	6f2e      	ldr	r6, [r5, #112]	; 0x70
10007b3e:	3601      	adds	r6, #1
10007b40:	0876      	lsrs	r6, r6, #1
10007b42:	029c      	lsls	r4, r3, #10
10007b44:	0d95      	lsrs	r5, r2, #22
10007b46:	4325      	orrs	r5, r4
10007b48:	4375      	muls	r5, r6
10007b4a:	13ed      	asrs	r5, r5, #15
10007b4c:	4375      	muls	r5, r6
10007b4e:	13ad      	asrs	r5, r5, #14
10007b50:	3501      	adds	r5, #1
10007b52:	106d      	asrs	r5, r5, #1
10007b54:	03f6      	lsls	r6, r6, #15
10007b56:	1b76      	subs	r6, r6, r5
10007b58:	b40c      	push	{r2, r3}
10007b5a:	02cc      	lsls	r4, r1, #11
10007b5c:	0d45      	lsrs	r5, r0, #21
10007b5e:	432c      	orrs	r4, r5
10007b60:	b2a2      	uxth	r2, r4
10007b62:	b2b3      	uxth	r3, r6
10007b64:	435a      	muls	r2, r3
10007b66:	0c27      	lsrs	r7, r4, #16
10007b68:	437b      	muls	r3, r7
10007b6a:	0c35      	lsrs	r5, r6, #16
10007b6c:	436f      	muls	r7, r5
10007b6e:	b2a4      	uxth	r4, r4
10007b70:	436c      	muls	r4, r5
10007b72:	191b      	adds	r3, r3, r4
10007b74:	d302      	bcc.n	10007b7c <l21_1>
10007b76:	2401      	movs	r4, #1
10007b78:	0424      	lsls	r4, r4, #16
10007b7a:	193f      	adds	r7, r7, r4

10007b7c <l21_1>:
10007b7c:	041c      	lsls	r4, r3, #16
10007b7e:	0c1d      	lsrs	r5, r3, #16
10007b80:	18a4      	adds	r4, r4, r2
10007b82:	417d      	adcs	r5, r7
10007b84:	1924      	adds	r4, r4, r4
10007b86:	416d      	adcs	r5, r5
10007b88:	9a00      	ldr	r2, [sp, #0]
10007b8a:	b291      	uxth	r1, r2
10007b8c:	b2ac      	uxth	r4, r5
10007b8e:	4361      	muls	r1, r4
10007b90:	0c17      	lsrs	r7, r2, #16
10007b92:	437c      	muls	r4, r7
10007b94:	0c2b      	lsrs	r3, r5, #16
10007b96:	435f      	muls	r7, r3
10007b98:	b292      	uxth	r2, r2
10007b9a:	435a      	muls	r2, r3
10007b9c:	18a4      	adds	r4, r4, r2
10007b9e:	d302      	bcc.n	10007ba6 <l22_1>
10007ba0:	2201      	movs	r2, #1
10007ba2:	0412      	lsls	r2, r2, #16
10007ba4:	18bf      	adds	r7, r7, r2

10007ba6 <l22_1>:
10007ba6:	0422      	lsls	r2, r4, #16
10007ba8:	0c23      	lsrs	r3, r4, #16
10007baa:	1852      	adds	r2, r2, r1
10007bac:	417b      	adcs	r3, r7
10007bae:	9c01      	ldr	r4, [sp, #4]
10007bb0:	436c      	muls	r4, r5
10007bb2:	191b      	adds	r3, r3, r4
10007bb4:	0e52      	lsrs	r2, r2, #25
10007bb6:	01d9      	lsls	r1, r3, #7
10007bb8:	430a      	orrs	r2, r1
10007bba:	0144      	lsls	r4, r0, #5
10007bbc:	1aa0      	subs	r0, r4, r2
10007bbe:	b281      	uxth	r1, r0
10007bc0:	b2b2      	uxth	r2, r6
10007bc2:	4351      	muls	r1, r2
10007bc4:	1403      	asrs	r3, r0, #16
10007bc6:	435a      	muls	r2, r3
10007bc8:	0c36      	lsrs	r6, r6, #16
10007bca:	4373      	muls	r3, r6
10007bcc:	b287      	uxth	r7, r0
10007bce:	4377      	muls	r7, r6
10007bd0:	17d6      	asrs	r6, r2, #31
10007bd2:	19d2      	adds	r2, r2, r7
10007bd4:	2700      	movs	r7, #0
10007bd6:	417e      	adcs	r6, r7
10007bd8:	0436      	lsls	r6, r6, #16
10007bda:	199b      	adds	r3, r3, r6
10007bdc:	0417      	lsls	r7, r2, #16
10007bde:	0c16      	lsrs	r6, r2, #16
10007be0:	187f      	adds	r7, r7, r1
10007be2:	415e      	adcs	r6, r3
10007be4:	1673      	asrs	r3, r6, #25
10007be6:	18ed      	adds	r5, r5, r3
10007be8:	01f3      	lsls	r3, r6, #7
10007bea:	2600      	movs	r6, #0
10007bec:	3380      	adds	r3, #128	; 0x80
10007bee:	4175      	adcs	r5, r6
10007bf0:	0fa9      	lsrs	r1, r5, #30
10007bf2:	d106      	bne.n	10007c02 <dd_0>
10007bf4:	0064      	lsls	r4, r4, #1
10007bf6:	0a69      	lsrs	r1, r5, #9
10007bf8:	05e8      	lsls	r0, r5, #23
10007bfa:	0a5b      	lsrs	r3, r3, #9
10007bfc:	4318      	orrs	r0, r3
10007bfe:	d209      	bcs.n	10007c14 <dd_1>
10007c00:	e02f      	b.n	10007c62 <dd_2>

10007c02 <dd_0>:
10007c02:	2204      	movs	r2, #4
10007c04:	4494      	add	ip, r2
10007c06:	3380      	adds	r3, #128	; 0x80
10007c08:	4175      	adcs	r5, r6
10007c0a:	0aa9      	lsrs	r1, r5, #10
10007c0c:	05a8      	lsls	r0, r5, #22
10007c0e:	0a9b      	lsrs	r3, r3, #10
10007c10:	4318      	orrs	r0, r3
10007c12:	d326      	bcc.n	10007c62 <dd_2>

10007c14 <dd_1>:
10007c14:	4140      	adcs	r0, r0
10007c16:	4149      	adcs	r1, r1
10007c18:	0424      	lsls	r4, r4, #16
10007c1a:	9a00      	ldr	r2, [sp, #0]
10007c1c:	9b01      	ldr	r3, [sp, #4]
10007c1e:	000d      	movs	r5, r1
10007c20:	4355      	muls	r5, r2
10007c22:	1b64      	subs	r4, r4, r5
10007c24:	4343      	muls	r3, r0
10007c26:	1ae4      	subs	r4, r4, r3
10007c28:	b295      	uxth	r5, r2
10007c2a:	b286      	uxth	r6, r0
10007c2c:	4375      	muls	r5, r6
10007c2e:	0c17      	lsrs	r7, r2, #16
10007c30:	437e      	muls	r6, r7
10007c32:	0c03      	lsrs	r3, r0, #16
10007c34:	435f      	muls	r7, r3
10007c36:	b292      	uxth	r2, r2
10007c38:	435a      	muls	r2, r3
10007c3a:	18b6      	adds	r6, r6, r2
10007c3c:	d302      	bcc.n	10007c44 <l24_1>
10007c3e:	2201      	movs	r2, #1
10007c40:	0412      	lsls	r2, r2, #16
10007c42:	18bf      	adds	r7, r7, r2

10007c44 <l24_1>:
10007c44:	0432      	lsls	r2, r6, #16
10007c46:	0c33      	lsrs	r3, r6, #16
10007c48:	1952      	adds	r2, r2, r5
10007c4a:	417b      	adcs	r3, r7
10007c4c:	4252      	negs	r2, r2
10007c4e:	419c      	sbcs	r4, r3
10007c50:	2c00      	cmp	r4, #0
10007c52:	d402      	bmi.n	10007c5a <l24_1+0x16>
10007c54:	2200      	movs	r2, #0
10007c56:	3001      	adds	r0, #1
10007c58:	4151      	adcs	r1, r2
10007c5a:	0840      	lsrs	r0, r0, #1
10007c5c:	07ca      	lsls	r2, r1, #31
10007c5e:	4310      	orrs	r0, r2
10007c60:	0849      	lsrs	r1, r1, #1

10007c62 <dd_2>:
10007c62:	b002      	add	sp, #8
10007c64:	4662      	mov	r2, ip
10007c66:	07d7      	lsls	r7, r2, #31
10007c68:	1092      	asrs	r2, r2, #2
10007c6a:	4b08      	ldr	r3, [pc, #32]	; (10007c8c <dd_4+0x6>)
10007c6c:	18d2      	adds	r2, r2, r3
10007c6e:	4b08      	ldr	r3, [pc, #32]	; (10007c90 <dd_4+0xa>)
10007c70:	429a      	cmp	r2, r3
10007c72:	d203      	bcs.n	10007c7c <dd_3>
10007c74:	0512      	lsls	r2, r2, #20
10007c76:	1889      	adds	r1, r1, r2

10007c78 <dd_5>:
10007c78:	19c9      	adds	r1, r1, r7
10007c7a:	bdf0      	pop	{r4, r5, r6, r7, pc}

10007c7c <dd_3>:
10007c7c:	2000      	movs	r0, #0
10007c7e:	2a00      	cmp	r2, #0
10007c80:	dc01      	bgt.n	10007c86 <dd_4>
10007c82:	0039      	movs	r1, r7
10007c84:	bdf0      	pop	{r4, r5, r6, r7, pc}

10007c86 <dd_4>:
10007c86:	3301      	adds	r3, #1
10007c88:	0519      	lsls	r1, r3, #20
10007c8a:	e7f5      	b.n	10007c78 <dd_5>
10007c8c:	000003fd 	.word	0x000003fd
10007c90:	000007fe 	.word	0x000007fe

10007c94 <double2uint_shim>:
10007c94:	2200      	movs	r2, #0

10007c96 <double2ufix_shim>:
10007c96:	b500      	push	{lr}
10007c98:	3220      	adds	r2, #32
10007c9a:	f000 f804 	bl	10007ca6 <double2ufix64_shim>
10007c9e:	0008      	movs	r0, r1
10007ca0:	bd00      	pop	{pc}
	...

10007ca4 <double2uint64_shim>:
10007ca4:	2200      	movs	r2, #0

10007ca6 <double2ufix64_shim>:
10007ca6:	150b      	asrs	r3, r1, #20
10007ca8:	d40a      	bmi.n	10007cc0 <ret_dzero>

10007caa <d2fix>:
10007caa:	b510      	push	{r4, lr}
10007cac:	4694      	mov	ip, r2
10007cae:	f000 f831 	bl	10007d14 <dunpacks>
10007cb2:	1414      	asrs	r4, r2, #16
10007cb4:	3401      	adds	r4, #1
10007cb6:	da00      	bge.n	10007cba <d2fix+0x10>
10007cb8:	2100      	movs	r1, #0
10007cba:	17cb      	asrs	r3, r1, #31
10007cbc:	4c14      	ldr	r4, [pc, #80]	; (10007d10 <d2fix_a+0x4a>)
10007cbe:	4720      	bx	r4

10007cc0 <ret_dzero>:
10007cc0:	2000      	movs	r0, #0
10007cc2:	2100      	movs	r1, #0
10007cc4:	4770      	bx	lr

10007cc6 <d2fix_a>:
10007cc6:	4462      	add	r2, ip
10007cc8:	3a34      	subs	r2, #52	; 0x34
10007cca:	d40c      	bmi.n	10007ce6 <d2fix_a+0x20>
10007ccc:	2a0c      	cmp	r2, #12
10007cce:	da07      	bge.n	10007ce0 <d2fix_a+0x1a>
10007cd0:	0004      	movs	r4, r0
10007cd2:	4091      	lsls	r1, r2
10007cd4:	4090      	lsls	r0, r2
10007cd6:	4252      	negs	r2, r2
10007cd8:	3220      	adds	r2, #32
10007cda:	40d4      	lsrs	r4, r2
10007cdc:	4321      	orrs	r1, r4
10007cde:	bd10      	pop	{r4, pc}
10007ce0:	43d8      	mvns	r0, r3
10007ce2:	43d9      	mvns	r1, r3
10007ce4:	bd10      	pop	{r4, pc}
10007ce6:	3220      	adds	r2, #32
10007ce8:	d407      	bmi.n	10007cfa <d2fix_a+0x34>
10007cea:	460c      	mov	r4, r1
10007cec:	4094      	lsls	r4, r2
10007cee:	4252      	negs	r2, r2
10007cf0:	3220      	adds	r2, #32
10007cf2:	4111      	asrs	r1, r2
10007cf4:	40d0      	lsrs	r0, r2
10007cf6:	4320      	orrs	r0, r4
10007cf8:	bd10      	pop	{r4, pc}
10007cfa:	0008      	movs	r0, r1
10007cfc:	17c9      	asrs	r1, r1, #31
10007cfe:	3220      	adds	r2, #32
10007d00:	d403      	bmi.n	10007d0a <d2fix_a+0x44>
10007d02:	4252      	negs	r2, r2
10007d04:	3220      	adds	r2, #32
10007d06:	4110      	asrs	r0, r2
10007d08:	bd10      	pop	{r4, pc}
10007d0a:	0018      	movs	r0, r3
10007d0c:	0019      	movs	r1, r3
10007d0e:	bd10      	pop	{r4, pc}
10007d10:	10007cc7 	.word	0x10007cc7

10007d14 <dunpacks>:
10007d14:	0d0a      	lsrs	r2, r1, #20
10007d16:	0fcc      	lsrs	r4, r1, #31
10007d18:	1e53      	subs	r3, r2, #1
10007d1a:	051b      	lsls	r3, r3, #20
10007d1c:	1ac9      	subs	r1, r1, r3
10007d1e:	0552      	lsls	r2, r2, #21
10007d20:	d303      	bcc.n	10007d2a <l60_1>
10007d22:	43c9      	mvns	r1, r1
10007d24:	4240      	negs	r0, r0
10007d26:	d300      	bcc.n	10007d2a <l60_1>
10007d28:	3101      	adds	r1, #1

10007d2a <l60_1>:
10007d2a:	0d52      	lsrs	r2, r2, #21
10007d2c:	d003      	beq.n	10007d36 <l60_2>
10007d2e:	1c53      	adds	r3, r2, #1
10007d30:	0adb      	lsrs	r3, r3, #11
10007d32:	d007      	beq.n	10007d44 <l60_3>
10007d34:	1b12      	subs	r2, r2, r4

10007d36 <l60_2>:
10007d36:	2000      	movs	r0, #0
10007d38:	0064      	lsls	r4, r4, #1
10007d3a:	1c61      	adds	r1, r4, #1
10007d3c:	0789      	lsls	r1, r1, #30
10007d3e:	1289      	asrs	r1, r1, #10
10007d40:	3a80      	subs	r2, #128	; 0x80
10007d42:	0312      	lsls	r2, r2, #12

10007d44 <l60_3>:
10007d44:	4b01      	ldr	r3, [pc, #4]	; (10007d4c <l60_3+0x8>)
10007d46:	1ad2      	subs	r2, r2, r3
10007d48:	4770      	bx	lr
10007d4a:	0000      	.short	0x0000
10007d4c:	000003ff 	.word	0x000003ff

10007d50 <__wrap___aeabi_lmul>:
10007d50:	4351      	muls	r1, r2
10007d52:	4343      	muls	r3, r0
10007d54:	18c9      	adds	r1, r1, r3
10007d56:	468c      	mov	ip, r1
10007d58:	0c11      	lsrs	r1, r2, #16
10007d5a:	b283      	uxth	r3, r0
10007d5c:	434b      	muls	r3, r1
10007d5e:	b410      	push	{r4}
10007d60:	0c04      	lsrs	r4, r0, #16
10007d62:	4361      	muls	r1, r4
10007d64:	b292      	uxth	r2, r2
10007d66:	b280      	uxth	r0, r0
10007d68:	4350      	muls	r0, r2
10007d6a:	4362      	muls	r2, r4
10007d6c:	041c      	lsls	r4, r3, #16
10007d6e:	0c1b      	lsrs	r3, r3, #16
10007d70:	1900      	adds	r0, r0, r4
10007d72:	bc10      	pop	{r4}
10007d74:	4159      	adcs	r1, r3
10007d76:	0413      	lsls	r3, r2, #16
10007d78:	0c12      	lsrs	r2, r2, #16
10007d7a:	18c0      	adds	r0, r0, r3
10007d7c:	4151      	adcs	r1, r2
10007d7e:	4461      	add	r1, ip
10007d80:	4770      	bx	lr
	...

10007d84 <__wrap___aeabi_frsub>:
10007d84:	4048      	eors	r0, r1
10007d86:	4041      	eors	r1, r0
10007d88:	4048      	eors	r0, r1

10007d8a <__wrap___aeabi_fsub>:
10007d8a:	4b0e      	ldr	r3, [pc, #56]	; (10007dc4 <__wrap___aeabi_fmul+0x6>)
10007d8c:	685b      	ldr	r3, [r3, #4]
10007d8e:	4718      	bx	r3

10007d90 <__wrap___aeabi_fadd>:
10007d90:	4b0c      	ldr	r3, [pc, #48]	; (10007dc4 <__wrap___aeabi_fmul+0x6>)
10007d92:	681b      	ldr	r3, [r3, #0]
10007d94:	4718      	bx	r3

10007d96 <__wrap___aeabi_fdiv>:
10007d96:	4a0c      	ldr	r2, [pc, #48]	; (10007dc8 <__wrap___aeabi_fmul+0xa>)
10007d98:	6f93      	ldr	r3, [r2, #120]	; 0x78
10007d9a:	089b      	lsrs	r3, r3, #2
10007d9c:	d202      	bcs.n	10007da4 <fdiv_save_state>

10007d9e <fdiv_shim_call>:
10007d9e:	4b09      	ldr	r3, [pc, #36]	; (10007dc4 <__wrap___aeabi_fmul+0x6>)
10007da0:	68db      	ldr	r3, [r3, #12]
10007da2:	4718      	bx	r3

10007da4 <fdiv_save_state>:
10007da4:	b5f0      	push	{r4, r5, r6, r7, lr}
10007da6:	6e14      	ldr	r4, [r2, #96]	; 0x60
10007da8:	6e55      	ldr	r5, [r2, #100]	; 0x64
10007daa:	6f57      	ldr	r7, [r2, #116]	; 0x74
10007dac:	6f16      	ldr	r6, [r2, #112]	; 0x70
10007dae:	f7ff fff6 	bl	10007d9e <fdiv_shim_call>
10007db2:	4a05      	ldr	r2, [pc, #20]	; (10007dc8 <__wrap___aeabi_fmul+0xa>)
10007db4:	6614      	str	r4, [r2, #96]	; 0x60
10007db6:	6655      	str	r5, [r2, #100]	; 0x64
10007db8:	6757      	str	r7, [r2, #116]	; 0x74
10007dba:	6716      	str	r6, [r2, #112]	; 0x70
10007dbc:	bdf0      	pop	{r4, r5, r6, r7, pc}

10007dbe <__wrap___aeabi_fmul>:
10007dbe:	4b01      	ldr	r3, [pc, #4]	; (10007dc4 <__wrap___aeabi_fmul+0x6>)
10007dc0:	689b      	ldr	r3, [r3, #8]
10007dc2:	4718      	bx	r3
10007dc4:	20000488 	.word	0x20000488
10007dc8:	d0000000 	.word	0xd0000000

10007dcc <__wrap___aeabi_cfrcmple>:
10007dcc:	b507      	push	{r0, r1, r2, lr}
10007dce:	4048      	eors	r0, r1
10007dd0:	4041      	eors	r1, r0
10007dd2:	4048      	eors	r0, r1
10007dd4:	e001      	b.n	10007dda <__aeabi_cfcmple_guts>
10007dd6:	46c0      	nop			; (mov r8, r8)

10007dd8 <__wrap___aeabi_cfcmpeq>:
10007dd8:	b507      	push	{r0, r1, r2, lr}

10007dda <__aeabi_cfcmple_guts>:
10007dda:	0042      	lsls	r2, r0, #1
10007ddc:	0e12      	lsrs	r2, r2, #24
10007dde:	d003      	beq.n	10007de8 <__aeabi_cfcmple_guts+0xe>
10007de0:	2aff      	cmp	r2, #255	; 0xff
10007de2:	d103      	bne.n	10007dec <__aeabi_cfcmple_guts+0x12>
10007de4:	0242      	lsls	r2, r0, #9
10007de6:	d818      	bhi.n	10007e1a <__aeabi_cfcmple_guts+0x40>
10007de8:	0dc0      	lsrs	r0, r0, #23
10007dea:	05c0      	lsls	r0, r0, #23
10007dec:	004a      	lsls	r2, r1, #1
10007dee:	0e12      	lsrs	r2, r2, #24
10007df0:	d003      	beq.n	10007dfa <__aeabi_cfcmple_guts+0x20>
10007df2:	2aff      	cmp	r2, #255	; 0xff
10007df4:	d103      	bne.n	10007dfe <__aeabi_cfcmple_guts+0x24>
10007df6:	024a      	lsls	r2, r1, #9
10007df8:	d80f      	bhi.n	10007e1a <__aeabi_cfcmple_guts+0x40>
10007dfa:	0dc9      	lsrs	r1, r1, #23
10007dfc:	05c9      	lsls	r1, r1, #23
10007dfe:	2201      	movs	r2, #1
10007e00:	4041      	eors	r1, r0
10007e02:	d405      	bmi.n	10007e10 <__aeabi_cfcmple_guts+0x36>
10007e04:	4041      	eors	r1, r0
10007e06:	d501      	bpl.n	10007e0c <__aeabi_cfcmple_guts+0x32>
10007e08:	4281      	cmp	r1, r0
10007e0a:	bd07      	pop	{r0, r1, r2, pc}
10007e0c:	4288      	cmp	r0, r1
10007e0e:	bd07      	pop	{r0, r1, r2, pc}
10007e10:	4301      	orrs	r1, r0
10007e12:	1849      	adds	r1, r1, r1
10007e14:	d001      	beq.n	10007e1a <__aeabi_cfcmple_guts+0x40>
10007e16:	43c0      	mvns	r0, r0
10007e18:	1800      	adds	r0, r0, r0
10007e1a:	bd07      	pop	{r0, r1, r2, pc}

10007e1c <__wrap___aeabi_fcmpgt>:
10007e1c:	b500      	push	{lr}
10007e1e:	f7ff ffd5 	bl	10007dcc <__wrap___aeabi_cfrcmple>
10007e22:	4180      	sbcs	r0, r0
10007e24:	bd00      	pop	{pc}
	...

10007e28 <__wrap___aeabi_i2f>:
10007e28:	0fc1      	lsrs	r1, r0, #31
10007e2a:	07c9      	lsls	r1, r1, #31
10007e2c:	d500      	bpl.n	10007e30 <__wrap___aeabi_i2f+0x8>
10007e2e:	4240      	negs	r0, r0
10007e30:	2800      	cmp	r0, #0
10007e32:	d017      	beq.n	10007e64 <__aeabi_i2f_main+0x30>

10007e34 <__aeabi_i2f_main>:
10007e34:	46f4      	mov	ip, lr
10007e36:	b403      	push	{r0, r1}
10007e38:	4b0b      	ldr	r3, [pc, #44]	; (10007e68 <__aeabi_i2f_main+0x34>)
10007e3a:	681b      	ldr	r3, [r3, #0]
10007e3c:	4798      	blx	r3
10007e3e:	bc06      	pop	{r1, r2}
10007e40:	4081      	lsls	r1, r0
10007e42:	389e      	subs	r0, #158	; 0x9e
10007e44:	4240      	negs	r0, r0
10007e46:	3180      	adds	r1, #128	; 0x80
10007e48:	d207      	bcs.n	10007e5a <__aeabi_i2f_main+0x26>
10007e4a:	060b      	lsls	r3, r1, #24
10007e4c:	d007      	beq.n	10007e5e <__aeabi_i2f_main+0x2a>
10007e4e:	0049      	lsls	r1, r1, #1
10007e50:	0a49      	lsrs	r1, r1, #9
10007e52:	05c0      	lsls	r0, r0, #23
10007e54:	4310      	orrs	r0, r2
10007e56:	4308      	orrs	r0, r1
10007e58:	4760      	bx	ip
10007e5a:	3001      	adds	r0, #1
10007e5c:	e7f8      	b.n	10007e50 <__aeabi_i2f_main+0x1c>
10007e5e:	0a49      	lsrs	r1, r1, #9
10007e60:	0289      	lsls	r1, r1, #10
10007e62:	e7f5      	b.n	10007e50 <__aeabi_i2f_main+0x1c>
10007e64:	4770      	bx	lr
10007e66:	0000      	.short	0x0000
10007e68:	200006f0 	.word	0x200006f0

10007e6c <__wrap___aeabi_f2iz>:
10007e6c:	0041      	lsls	r1, r0, #1
10007e6e:	0e0a      	lsrs	r2, r1, #24
10007e70:	2380      	movs	r3, #128	; 0x80
10007e72:	061b      	lsls	r3, r3, #24
10007e74:	2a7e      	cmp	r2, #126	; 0x7e
10007e76:	dd0b      	ble.n	10007e90 <__wrap___aeabi_f2iz+0x24>
10007e78:	3a9e      	subs	r2, #158	; 0x9e
10007e7a:	da0b      	bge.n	10007e94 <__wrap___aeabi_f2iz+0x28>
10007e7c:	17c1      	asrs	r1, r0, #31
10007e7e:	0240      	lsls	r0, r0, #9
10007e80:	0840      	lsrs	r0, r0, #1
10007e82:	4318      	orrs	r0, r3
10007e84:	4252      	negs	r2, r2
10007e86:	40d0      	lsrs	r0, r2
10007e88:	0049      	lsls	r1, r1, #1
10007e8a:	3101      	adds	r1, #1
10007e8c:	4348      	muls	r0, r1
10007e8e:	4770      	bx	lr
10007e90:	2000      	movs	r0, #0
10007e92:	4770      	bx	lr
10007e94:	0fc0      	lsrs	r0, r0, #31
10007e96:	18c0      	adds	r0, r0, r3
10007e98:	3801      	subs	r0, #1
10007e9a:	4770      	bx	lr
10007e9c:	42c0      	cmn	r0, r0
10007e9e:	d30d      	bcc.n	10007ebc <float2int>
10007ea0:	b500      	push	{lr}
10007ea2:	0040      	lsls	r0, r0, #1
10007ea4:	0840      	lsrs	r0, r0, #1
10007ea6:	2100      	movs	r1, #0
10007ea8:	f000 f812 	bl	10007ed0 <__wrap___aeabi_f2uiz>
10007eac:	2800      	cmp	r0, #0
10007eae:	d401      	bmi.n	10007eb4 <__wrap___aeabi_f2iz+0x48>
10007eb0:	4240      	negs	r0, r0
10007eb2:	bd00      	pop	{pc}
10007eb4:	2080      	movs	r0, #128	; 0x80
10007eb6:	0600      	lsls	r0, r0, #24
10007eb8:	bd00      	pop	{pc}
	...

10007ebc <float2int>:
10007ebc:	4b03      	ldr	r3, [pc, #12]	; (10007ecc <float2int+0x10>)
10007ebe:	69db      	ldr	r3, [r3, #28]
10007ec0:	46fc      	mov	ip, pc
10007ec2:	4718      	bx	r3
10007ec4:	7f6ddf1c 	.word	0x7f6ddf1c
10007ec8:	00001000 	.word	0x00001000
10007ecc:	20000488 	.word	0x20000488

10007ed0 <__wrap___aeabi_f2uiz>:
10007ed0:	4b01      	ldr	r3, [pc, #4]	; (10007ed8 <__wrap___aeabi_f2uiz+0x8>)
10007ed2:	6a5b      	ldr	r3, [r3, #36]	; 0x24
10007ed4:	4718      	bx	r3
10007ed6:	0000      	.short	0x0000
10007ed8:	20000488 	.word	0x20000488

10007edc <__aeabi_float_init>:
10007edc:	2313      	movs	r3, #19
10007ede:	b510      	push	{r4, lr}
10007ee0:	4812      	ldr	r0, [pc, #72]	; (10007f2c <__aeabi_float_init+0x50>)
10007ee2:	781c      	ldrb	r4, [r3, #0]
10007ee4:	f7ff f8c4 	bl	10007070 <rom_data_lookup>
10007ee8:	0001      	movs	r1, r0
10007eea:	2c01      	cmp	r4, #1
10007eec:	d00a      	beq.n	10007f04 <__aeabi_float_init+0x28>
10007eee:	dd03      	ble.n	10007ef8 <__aeabi_float_init+0x1c>
10007ef0:	2280      	movs	r2, #128	; 0x80
10007ef2:	480f      	ldr	r0, [pc, #60]	; (10007f30 <__aeabi_float_init+0x54>)
10007ef4:	f000 f84e 	bl	10007f94 <__wrap___aeabi_memcpy>
10007ef8:	480e      	ldr	r0, [pc, #56]	; (10007f34 <__aeabi_float_init+0x58>)
10007efa:	f7ff f8b1 	bl	10007060 <rom_func_lookup>
10007efe:	4b0e      	ldr	r3, [pc, #56]	; (10007f38 <__aeabi_float_init+0x5c>)
10007f00:	6018      	str	r0, [r3, #0]
10007f02:	bd10      	pop	{r4, pc}
10007f04:	4c0a      	ldr	r4, [pc, #40]	; (10007f30 <__aeabi_float_init+0x54>)
10007f06:	2254      	movs	r2, #84	; 0x54
10007f08:	0020      	movs	r0, r4
10007f0a:	f000 f843 	bl	10007f94 <__wrap___aeabi_memcpy>
10007f0e:	4b0b      	ldr	r3, [pc, #44]	; (10007f3c <__aeabi_float_init+0x60>)
10007f10:	6563      	str	r3, [r4, #84]	; 0x54
10007f12:	65a3      	str	r3, [r4, #88]	; 0x58
10007f14:	65e3      	str	r3, [r4, #92]	; 0x5c
10007f16:	6623      	str	r3, [r4, #96]	; 0x60
10007f18:	6663      	str	r3, [r4, #100]	; 0x64
10007f1a:	66a3      	str	r3, [r4, #104]	; 0x68
10007f1c:	66e3      	str	r3, [r4, #108]	; 0x6c
10007f1e:	6723      	str	r3, [r4, #112]	; 0x70
10007f20:	6763      	str	r3, [r4, #116]	; 0x74
10007f22:	67a3      	str	r3, [r4, #120]	; 0x78
10007f24:	67e3      	str	r3, [r4, #124]	; 0x7c
10007f26:	6223      	str	r3, [r4, #32]
10007f28:	61e3      	str	r3, [r4, #28]
10007f2a:	e7e5      	b.n	10007ef8 <__aeabi_float_init+0x1c>
10007f2c:	00004653 	.word	0x00004653
10007f30:	20000488 	.word	0x20000488
10007f34:	0000334c 	.word	0x0000334c
10007f38:	200006f0 	.word	0x200006f0
10007f3c:	10007f41 	.word	0x10007f41

10007f40 <float_table_shim_on_use_helper>:
10007f40:	b507      	push	{r0, r1, r2, lr}
10007f42:	4660      	mov	r0, ip
10007f44:	8801      	ldrh	r1, [r0, #0]
10007f46:	0a0a      	lsrs	r2, r1, #8
10007f48:	3002      	adds	r0, #2
10007f4a:	2adf      	cmp	r2, #223	; 0xdf
10007f4c:	d1fa      	bne.n	10007f44 <float_table_shim_on_use_helper+0x4>
10007f4e:	b2c9      	uxtb	r1, r1
10007f50:	0882      	lsrs	r2, r0, #2
10007f52:	d304      	bcc.n	10007f5e <float_table_shim_on_use_helper+0x1e>
10007f54:	8802      	ldrh	r2, [r0, #0]
10007f56:	8840      	ldrh	r0, [r0, #2]
10007f58:	0400      	lsls	r0, r0, #16
10007f5a:	4310      	orrs	r0, r2
10007f5c:	e000      	b.n	10007f60 <float_table_shim_on_use_helper+0x20>
10007f5e:	6800      	ldr	r0, [r0, #0]
10007f60:	4a01      	ldr	r2, [pc, #4]	; (10007f68 <float_table_shim_on_use_helper+0x28>)
10007f62:	5050      	str	r0, [r2, r1]
10007f64:	9003      	str	r0, [sp, #12]
10007f66:	bd07      	pop	{r0, r1, r2, pc}
10007f68:	20000488 	.word	0x20000488

10007f6c <float2int_shim>:
10007f6c:	2100      	movs	r1, #0

10007f6e <float2fix_shim>:
10007f6e:	15c2      	asrs	r2, r0, #23
10007f70:	3280      	adds	r2, #128	; 0x80
10007f72:	3280      	adds	r2, #128	; 0x80
10007f74:	d001      	beq.n	10007f7a <float2fix_shim+0xc>
10007f76:	4a02      	ldr	r2, [pc, #8]	; (10007f80 <float2fix_shim+0x12>)
10007f78:	4710      	bx	r2
10007f7a:	2000      	movs	r0, #0
10007f7c:	4770      	bx	lr
10007f7e:	0000      	.short	0x0000
10007f80:	00002acd 	.word	0x00002acd

10007f84 <__aeabi_mem_init>:
10007f84:	4801      	ldr	r0, [pc, #4]	; (10007f8c <__aeabi_mem_init+0x8>)
10007f86:	2104      	movs	r1, #4
10007f88:	4b01      	ldr	r3, [pc, #4]	; (10007f90 <__aeabi_mem_init+0xc>)
10007f8a:	4718      	bx	r3
10007f8c:	20000230 	.word	0x20000230
10007f90:	10007081 	.word	0x10007081

10007f94 <__wrap___aeabi_memcpy>:
10007f94:	4b01      	ldr	r3, [pc, #4]	; (10007f9c <__wrap___aeabi_memcpy+0x8>)
10007f96:	685b      	ldr	r3, [r3, #4]
10007f98:	4718      	bx	r3
10007f9a:	0000      	.short	0x0000
10007f9c:	20000230 	.word	0x20000230

10007fa0 <stdio_out_chars_no_crlf>:
10007fa0:	0003      	movs	r3, r0
10007fa2:	b510      	push	{r4, lr}
10007fa4:	0008      	movs	r0, r1
10007fa6:	0011      	movs	r1, r2
10007fa8:	681b      	ldr	r3, [r3, #0]
10007faa:	4798      	blx	r3
10007fac:	bd10      	pop	{r4, pc}
10007fae:	46c0      	nop			; (mov r8, r8)

10007fb0 <stdio_out_chars_crlf>:
10007fb0:	b5f0      	push	{r4, r5, r6, r7, lr}
10007fb2:	4646      	mov	r6, r8
10007fb4:	464f      	mov	r7, r9
10007fb6:	46d6      	mov	lr, sl
10007fb8:	b5c0      	push	{r6, r7, lr}
10007fba:	7d43      	ldrb	r3, [r0, #21]
10007fbc:	4680      	mov	r8, r0
10007fbe:	000e      	movs	r6, r1
10007fc0:	0017      	movs	r7, r2
10007fc2:	2b00      	cmp	r3, #0
10007fc4:	d046      	beq.n	10008054 <stdio_out_chars_crlf+0xa4>
10007fc6:	2a00      	cmp	r2, #0
10007fc8:	dd3f      	ble.n	1000804a <stdio_out_chars_crlf+0x9a>
10007fca:	1e4b      	subs	r3, r1, #1
10007fcc:	4699      	mov	r9, r3
10007fce:	4b24      	ldr	r3, [pc, #144]	; (10008060 <stdio_out_chars_crlf+0xb0>)
10007fd0:	2501      	movs	r5, #1
10007fd2:	2400      	movs	r4, #0
10007fd4:	2000      	movs	r0, #0
10007fd6:	469a      	mov	sl, r3
10007fd8:	e00d      	b.n	10007ff6 <stdio_out_chars_crlf+0x46>
10007fda:	464b      	mov	r3, r9
10007fdc:	5d1b      	ldrb	r3, [r3, r4]
10007fde:	3b0d      	subs	r3, #13
10007fe0:	425a      	negs	r2, r3
10007fe2:	4153      	adcs	r3, r2
10007fe4:	5d32      	ldrb	r2, [r6, r4]
10007fe6:	b2db      	uxtb	r3, r3
10007fe8:	2a0a      	cmp	r2, #10
10007fea:	d00b      	beq.n	10008004 <stdio_out_chars_crlf+0x54>
10007fec:	002b      	movs	r3, r5
10007fee:	3401      	adds	r4, #1
10007ff0:	3501      	adds	r5, #1
10007ff2:	429f      	cmp	r7, r3
10007ff4:	dd1a      	ble.n	1000802c <stdio_out_chars_crlf+0x7c>
10007ff6:	2c00      	cmp	r4, #0
10007ff8:	d1ef      	bne.n	10007fda <stdio_out_chars_crlf+0x2a>
10007ffa:	4643      	mov	r3, r8
10007ffc:	5d32      	ldrb	r2, [r6, r4]
10007ffe:	7d1b      	ldrb	r3, [r3, #20]
10008000:	2a0a      	cmp	r2, #10
10008002:	d1f3      	bne.n	10007fec <stdio_out_chars_crlf+0x3c>
10008004:	2b00      	cmp	r3, #0
10008006:	d1f1      	bne.n	10007fec <stdio_out_chars_crlf+0x3c>
10008008:	42a0      	cmp	r0, r4
1000800a:	da04      	bge.n	10008016 <stdio_out_chars_crlf+0x66>
1000800c:	4643      	mov	r3, r8
1000800e:	1a21      	subs	r1, r4, r0
10008010:	681b      	ldr	r3, [r3, #0]
10008012:	1830      	adds	r0, r6, r0
10008014:	4798      	blx	r3
10008016:	4643      	mov	r3, r8
10008018:	4650      	mov	r0, sl
1000801a:	681b      	ldr	r3, [r3, #0]
1000801c:	2102      	movs	r1, #2
1000801e:	4798      	blx	r3
10008020:	3401      	adds	r4, #1
10008022:	0028      	movs	r0, r5
10008024:	002b      	movs	r3, r5
10008026:	3501      	adds	r5, #1
10008028:	429f      	cmp	r7, r3
1000802a:	dce4      	bgt.n	10007ff6 <stdio_out_chars_crlf+0x46>
1000802c:	4287      	cmp	r7, r0
1000802e:	dd04      	ble.n	1000803a <stdio_out_chars_crlf+0x8a>
10008030:	4643      	mov	r3, r8
10008032:	1a39      	subs	r1, r7, r0
10008034:	681b      	ldr	r3, [r3, #0]
10008036:	1830      	adds	r0, r6, r0
10008038:	4798      	blx	r3
1000803a:	19f6      	adds	r6, r6, r7
1000803c:	3e01      	subs	r6, #1
1000803e:	7833      	ldrb	r3, [r6, #0]
10008040:	3b0d      	subs	r3, #13
10008042:	425a      	negs	r2, r3
10008044:	4153      	adcs	r3, r2
10008046:	4642      	mov	r2, r8
10008048:	7513      	strb	r3, [r2, #20]
1000804a:	bce0      	pop	{r5, r6, r7}
1000804c:	46ba      	mov	sl, r7
1000804e:	46b1      	mov	r9, r6
10008050:	46a8      	mov	r8, r5
10008052:	bdf0      	pop	{r4, r5, r6, r7, pc}
10008054:	6803      	ldr	r3, [r0, #0]
10008056:	0011      	movs	r1, r2
10008058:	0030      	movs	r0, r6
1000805a:	4798      	blx	r3
1000805c:	e7f5      	b.n	1000804a <stdio_out_chars_crlf+0x9a>
1000805e:	46c0      	nop			; (mov r8, r8)
10008060:	100092a0 	.word	0x100092a0

10008064 <stdio_buffered_printer>:
10008064:	b5f0      	push	{r4, r5, r6, r7, lr}
10008066:	46c6      	mov	lr, r8
10008068:	000c      	movs	r4, r1
1000806a:	6809      	ldr	r1, [r1, #0]
1000806c:	0006      	movs	r6, r0
1000806e:	b500      	push	{lr}
10008070:	2980      	cmp	r1, #128	; 0x80
10008072:	d006      	beq.n	10008082 <stdio_buffered_printer+0x1e>
10008074:	1c4b      	adds	r3, r1, #1
10008076:	6023      	str	r3, [r4, #0]
10008078:	1864      	adds	r4, r4, r1
1000807a:	7126      	strb	r6, [r4, #4]
1000807c:	bc80      	pop	{r7}
1000807e:	46b8      	mov	r8, r7
10008080:	bdf0      	pop	{r4, r5, r6, r7, pc}
10008082:	4b0f      	ldr	r3, [pc, #60]	; (100080c0 <stdio_buffered_printer+0x5c>)
10008084:	681d      	ldr	r5, [r3, #0]
10008086:	2d00      	cmp	r5, #0
10008088:	d016      	beq.n	100080b8 <stdio_buffered_printer+0x54>
1000808a:	1d23      	adds	r3, r4, #4
1000808c:	4698      	mov	r8, r3
1000808e:	4f0d      	ldr	r7, [pc, #52]	; (100080c4 <stdio_buffered_printer+0x60>)
10008090:	e002      	b.n	10008098 <stdio_buffered_printer+0x34>
10008092:	692d      	ldr	r5, [r5, #16]
10008094:	2d00      	cmp	r5, #0
10008096:	d00f      	beq.n	100080b8 <stdio_buffered_printer+0x54>
10008098:	682b      	ldr	r3, [r5, #0]
1000809a:	2b00      	cmp	r3, #0
1000809c:	d0f9      	beq.n	10008092 <stdio_buffered_printer+0x2e>
1000809e:	683b      	ldr	r3, [r7, #0]
100080a0:	2b00      	cmp	r3, #0
100080a2:	d001      	beq.n	100080a8 <stdio_buffered_printer+0x44>
100080a4:	42ab      	cmp	r3, r5
100080a6:	d1f4      	bne.n	10008092 <stdio_buffered_printer+0x2e>
100080a8:	0028      	movs	r0, r5
100080aa:	4641      	mov	r1, r8
100080ac:	6822      	ldr	r2, [r4, #0]
100080ae:	f7ff ff7f 	bl	10007fb0 <stdio_out_chars_crlf>
100080b2:	692d      	ldr	r5, [r5, #16]
100080b4:	2d00      	cmp	r5, #0
100080b6:	d1ef      	bne.n	10008098 <stdio_buffered_printer+0x34>
100080b8:	2301      	movs	r3, #1
100080ba:	2100      	movs	r1, #0
100080bc:	e7db      	b.n	10008076 <stdio_buffered_printer+0x12>
100080be:	46c0      	nop			; (mov r8, r8)
100080c0:	20000630 	.word	0x20000630
100080c4:	20000634 	.word	0x20000634

100080c8 <stdio_put_string.isra.0>:
100080c8:	b5f0      	push	{r4, r5, r6, r7, lr}
100080ca:	46de      	mov	lr, fp
100080cc:	4657      	mov	r7, sl
100080ce:	464e      	mov	r6, r9
100080d0:	4645      	mov	r5, r8
100080d2:	b5e0      	push	{r5, r6, r7, lr}
100080d4:	b085      	sub	sp, #20
100080d6:	0017      	movs	r7, r2
100080d8:	001c      	movs	r4, r3
100080da:	0006      	movs	r6, r0
100080dc:	000d      	movs	r5, r1
100080de:	f7fc fe91 	bl	10004e04 <time_us_64>
100080e2:	2300      	movs	r3, #0
100080e4:	4a30      	ldr	r2, [pc, #192]	; (100081a8 <stdio_put_string.isra.0+0xe0>)
100080e6:	1812      	adds	r2, r2, r0
100080e8:	414b      	adcs	r3, r1
100080ea:	2b00      	cmp	r3, #0
100080ec:	db58      	blt.n	100081a0 <stdio_put_string.isra.0+0xd8>
100080ee:	492f      	ldr	r1, [pc, #188]	; (100081ac <stdio_put_string.isra.0+0xe4>)
100080f0:	0008      	movs	r0, r1
100080f2:	468a      	mov	sl, r1
100080f4:	f000 fc30 	bl	10008958 <__mutex_try_enter_block_until_veneer>
100080f8:	9001      	str	r0, [sp, #4]
100080fa:	1c6b      	adds	r3, r5, #1
100080fc:	d103      	bne.n	10008106 <stdio_put_string.isra.0+0x3e>
100080fe:	0030      	movs	r0, r6
10008100:	f000 fbe0 	bl	100088c4 <strlen>
10008104:	0005      	movs	r5, r0
10008106:	2c00      	cmp	r4, #0
10008108:	d125      	bne.n	10008156 <stdio_put_string.isra.0+0x8e>
1000810a:	4b29      	ldr	r3, [pc, #164]	; (100081b0 <stdio_put_string.isra.0+0xe8>)
1000810c:	4698      	mov	r8, r3
1000810e:	4b29      	ldr	r3, [pc, #164]	; (100081b4 <stdio_put_string.isra.0+0xec>)
10008110:	681c      	ldr	r4, [r3, #0]
10008112:	2c00      	cmp	r4, #0
10008114:	d015      	beq.n	10008142 <stdio_put_string.isra.0+0x7a>
10008116:	2f00      	cmp	r7, #0
10008118:	d120      	bne.n	1000815c <stdio_put_string.isra.0+0x94>
1000811a:	4f27      	ldr	r7, [pc, #156]	; (100081b8 <stdio_put_string.isra.0+0xf0>)
1000811c:	e002      	b.n	10008124 <stdio_put_string.isra.0+0x5c>
1000811e:	6924      	ldr	r4, [r4, #16]
10008120:	2c00      	cmp	r4, #0
10008122:	d00e      	beq.n	10008142 <stdio_put_string.isra.0+0x7a>
10008124:	6823      	ldr	r3, [r4, #0]
10008126:	2b00      	cmp	r3, #0
10008128:	d0f9      	beq.n	1000811e <stdio_put_string.isra.0+0x56>
1000812a:	683b      	ldr	r3, [r7, #0]
1000812c:	2b00      	cmp	r3, #0
1000812e:	d001      	beq.n	10008134 <stdio_put_string.isra.0+0x6c>
10008130:	42a3      	cmp	r3, r4
10008132:	d1f4      	bne.n	1000811e <stdio_put_string.isra.0+0x56>
10008134:	0020      	movs	r0, r4
10008136:	002a      	movs	r2, r5
10008138:	0031      	movs	r1, r6
1000813a:	47c0      	blx	r8
1000813c:	6924      	ldr	r4, [r4, #16]
1000813e:	2c00      	cmp	r4, #0
10008140:	d1f0      	bne.n	10008124 <stdio_put_string.isra.0+0x5c>
10008142:	9b01      	ldr	r3, [sp, #4]
10008144:	2b00      	cmp	r3, #0
10008146:	d127      	bne.n	10008198 <stdio_put_string.isra.0+0xd0>
10008148:	b005      	add	sp, #20
1000814a:	bcf0      	pop	{r4, r5, r6, r7}
1000814c:	46bb      	mov	fp, r7
1000814e:	46b2      	mov	sl, r6
10008150:	46a9      	mov	r9, r5
10008152:	46a0      	mov	r8, r4
10008154:	bdf0      	pop	{r4, r5, r6, r7, pc}
10008156:	4b19      	ldr	r3, [pc, #100]	; (100081bc <stdio_put_string.isra.0+0xf4>)
10008158:	4698      	mov	r8, r3
1000815a:	e7d8      	b.n	1000810e <stdio_put_string.isra.0+0x46>
1000815c:	4b16      	ldr	r3, [pc, #88]	; (100081b8 <stdio_put_string.isra.0+0xf0>)
1000815e:	4699      	mov	r9, r3
10008160:	ab02      	add	r3, sp, #8
10008162:	1ddf      	adds	r7, r3, #7
10008164:	230a      	movs	r3, #10
10008166:	469b      	mov	fp, r3
10008168:	e002      	b.n	10008170 <stdio_put_string.isra.0+0xa8>
1000816a:	6924      	ldr	r4, [r4, #16]
1000816c:	2c00      	cmp	r4, #0
1000816e:	d0e8      	beq.n	10008142 <stdio_put_string.isra.0+0x7a>
10008170:	6823      	ldr	r3, [r4, #0]
10008172:	2b00      	cmp	r3, #0
10008174:	d0f9      	beq.n	1000816a <stdio_put_string.isra.0+0xa2>
10008176:	464b      	mov	r3, r9
10008178:	681b      	ldr	r3, [r3, #0]
1000817a:	2b00      	cmp	r3, #0
1000817c:	d001      	beq.n	10008182 <stdio_put_string.isra.0+0xba>
1000817e:	42a3      	cmp	r3, r4
10008180:	d1f3      	bne.n	1000816a <stdio_put_string.isra.0+0xa2>
10008182:	002a      	movs	r2, r5
10008184:	0031      	movs	r1, r6
10008186:	0020      	movs	r0, r4
10008188:	47c0      	blx	r8
1000818a:	465b      	mov	r3, fp
1000818c:	2201      	movs	r2, #1
1000818e:	0039      	movs	r1, r7
10008190:	0020      	movs	r0, r4
10008192:	703b      	strb	r3, [r7, #0]
10008194:	47c0      	blx	r8
10008196:	e7e8      	b.n	1000816a <stdio_put_string.isra.0+0xa2>
10008198:	4650      	mov	r0, sl
1000819a:	f000 fbc5 	bl	10008928 <__mutex_exit_veneer>
1000819e:	e7d3      	b.n	10008148 <stdio_put_string.isra.0+0x80>
100081a0:	2201      	movs	r2, #1
100081a2:	4b07      	ldr	r3, [pc, #28]	; (100081c0 <stdio_put_string.isra.0+0xf8>)
100081a4:	4252      	negs	r2, r2
100081a6:	e7a2      	b.n	100080ee <stdio_put_string.isra.0+0x26>
100081a8:	000f4240 	.word	0x000f4240
100081ac:	20000258 	.word	0x20000258
100081b0:	10007fb1 	.word	0x10007fb1
100081b4:	20000630 	.word	0x20000630
100081b8:	20000634 	.word	0x20000634
100081bc:	10007fa1 	.word	0x10007fa1
100081c0:	7fffffff 	.word	0x7fffffff

100081c4 <__wrap_putchar>:
100081c4:	b5f0      	push	{r4, r5, r6, r7, lr}
100081c6:	46ce      	mov	lr, r9
100081c8:	4647      	mov	r7, r8
100081ca:	b580      	push	{r7, lr}
100081cc:	b083      	sub	sp, #12
100081ce:	466b      	mov	r3, sp
100081d0:	0006      	movs	r6, r0
100081d2:	1ddd      	adds	r5, r3, #7
100081d4:	7028      	strb	r0, [r5, #0]
100081d6:	f7fc fe15 	bl	10004e04 <time_us_64>
100081da:	2300      	movs	r3, #0
100081dc:	4a1a      	ldr	r2, [pc, #104]	; (10008248 <__wrap_putchar+0x84>)
100081de:	1812      	adds	r2, r2, r0
100081e0:	414b      	adcs	r3, r1
100081e2:	2b00      	cmp	r3, #0
100081e4:	db2b      	blt.n	1000823e <__wrap_putchar+0x7a>
100081e6:	4919      	ldr	r1, [pc, #100]	; (1000824c <__wrap_putchar+0x88>)
100081e8:	0008      	movs	r0, r1
100081ea:	4688      	mov	r8, r1
100081ec:	f000 fbb4 	bl	10008958 <__mutex_try_enter_block_until_veneer>
100081f0:	4b17      	ldr	r3, [pc, #92]	; (10008250 <__wrap_putchar+0x8c>)
100081f2:	4681      	mov	r9, r0
100081f4:	681c      	ldr	r4, [r3, #0]
100081f6:	2c00      	cmp	r4, #0
100081f8:	d014      	beq.n	10008224 <__wrap_putchar+0x60>
100081fa:	4f16      	ldr	r7, [pc, #88]	; (10008254 <__wrap_putchar+0x90>)
100081fc:	e002      	b.n	10008204 <__wrap_putchar+0x40>
100081fe:	6924      	ldr	r4, [r4, #16]
10008200:	2c00      	cmp	r4, #0
10008202:	d00f      	beq.n	10008224 <__wrap_putchar+0x60>
10008204:	6823      	ldr	r3, [r4, #0]
10008206:	2b00      	cmp	r3, #0
10008208:	d0f9      	beq.n	100081fe <__wrap_putchar+0x3a>
1000820a:	683b      	ldr	r3, [r7, #0]
1000820c:	2b00      	cmp	r3, #0
1000820e:	d001      	beq.n	10008214 <__wrap_putchar+0x50>
10008210:	42a3      	cmp	r3, r4
10008212:	d1f4      	bne.n	100081fe <__wrap_putchar+0x3a>
10008214:	0020      	movs	r0, r4
10008216:	2201      	movs	r2, #1
10008218:	0029      	movs	r1, r5
1000821a:	f7ff fec9 	bl	10007fb0 <stdio_out_chars_crlf>
1000821e:	6924      	ldr	r4, [r4, #16]
10008220:	2c00      	cmp	r4, #0
10008222:	d1ef      	bne.n	10008204 <__wrap_putchar+0x40>
10008224:	464b      	mov	r3, r9
10008226:	2b00      	cmp	r3, #0
10008228:	d105      	bne.n	10008236 <__wrap_putchar+0x72>
1000822a:	0030      	movs	r0, r6
1000822c:	b003      	add	sp, #12
1000822e:	bcc0      	pop	{r6, r7}
10008230:	46b9      	mov	r9, r7
10008232:	46b0      	mov	r8, r6
10008234:	bdf0      	pop	{r4, r5, r6, r7, pc}
10008236:	4640      	mov	r0, r8
10008238:	f000 fb76 	bl	10008928 <__mutex_exit_veneer>
1000823c:	e7f5      	b.n	1000822a <__wrap_putchar+0x66>
1000823e:	2201      	movs	r2, #1
10008240:	4b05      	ldr	r3, [pc, #20]	; (10008258 <__wrap_putchar+0x94>)
10008242:	4252      	negs	r2, r2
10008244:	e7cf      	b.n	100081e6 <__wrap_putchar+0x22>
10008246:	46c0      	nop			; (mov r8, r8)
10008248:	000f4240 	.word	0x000f4240
1000824c:	20000258 	.word	0x20000258
10008250:	20000630 	.word	0x20000630
10008254:	20000634 	.word	0x20000634
10008258:	7fffffff 	.word	0x7fffffff

1000825c <__wrap_puts>:
1000825c:	b570      	push	{r4, r5, r6, lr}
1000825e:	0004      	movs	r4, r0
10008260:	f000 fb30 	bl	100088c4 <strlen>
10008264:	2300      	movs	r3, #0
10008266:	0001      	movs	r1, r0
10008268:	0005      	movs	r5, r0
1000826a:	2201      	movs	r2, #1
1000826c:	0020      	movs	r0, r4
1000826e:	f7ff ff2b 	bl	100080c8 <stdio_put_string.isra.0>
10008272:	4b08      	ldr	r3, [pc, #32]	; (10008294 <__wrap_puts+0x38>)
10008274:	681c      	ldr	r4, [r3, #0]
10008276:	2c00      	cmp	r4, #0
10008278:	d006      	beq.n	10008288 <__wrap_puts+0x2c>
1000827a:	6863      	ldr	r3, [r4, #4]
1000827c:	2b00      	cmp	r3, #0
1000827e:	d005      	beq.n	1000828c <__wrap_puts+0x30>
10008280:	4798      	blx	r3
10008282:	6924      	ldr	r4, [r4, #16]
10008284:	2c00      	cmp	r4, #0
10008286:	d1f8      	bne.n	1000827a <__wrap_puts+0x1e>
10008288:	0028      	movs	r0, r5
1000828a:	bd70      	pop	{r4, r5, r6, pc}
1000828c:	6924      	ldr	r4, [r4, #16]
1000828e:	2c00      	cmp	r4, #0
10008290:	d1f3      	bne.n	1000827a <__wrap_puts+0x1e>
10008292:	e7f9      	b.n	10008288 <__wrap_puts+0x2c>
10008294:	20000630 	.word	0x20000630

10008298 <stdio_set_driver_enabled>:
10008298:	4a0a      	ldr	r2, [pc, #40]	; (100082c4 <stdio_set_driver_enabled+0x2c>)
1000829a:	6813      	ldr	r3, [r2, #0]
1000829c:	2b00      	cmp	r3, #0
1000829e:	d105      	bne.n	100082ac <stdio_set_driver_enabled+0x14>
100082a0:	e00c      	b.n	100082bc <stdio_set_driver_enabled+0x24>
100082a2:	001a      	movs	r2, r3
100082a4:	691b      	ldr	r3, [r3, #16]
100082a6:	3210      	adds	r2, #16
100082a8:	2b00      	cmp	r3, #0
100082aa:	d007      	beq.n	100082bc <stdio_set_driver_enabled+0x24>
100082ac:	4298      	cmp	r0, r3
100082ae:	d1f8      	bne.n	100082a2 <stdio_set_driver_enabled+0xa>
100082b0:	2900      	cmp	r1, #0
100082b2:	d102      	bne.n	100082ba <stdio_set_driver_enabled+0x22>
100082b4:	6903      	ldr	r3, [r0, #16]
100082b6:	6013      	str	r3, [r2, #0]
100082b8:	6101      	str	r1, [r0, #16]
100082ba:	4770      	bx	lr
100082bc:	2900      	cmp	r1, #0
100082be:	d0fc      	beq.n	100082ba <stdio_set_driver_enabled+0x22>
100082c0:	6010      	str	r0, [r2, #0]
100082c2:	e7fa      	b.n	100082ba <stdio_set_driver_enabled+0x22>
100082c4:	20000630 	.word	0x20000630

100082c8 <__wrap_vprintf>:
100082c8:	b5f0      	push	{r4, r5, r6, r7, lr}
100082ca:	46ce      	mov	lr, r9
100082cc:	4647      	mov	r7, r8
100082ce:	b580      	push	{r7, lr}
100082d0:	b0a5      	sub	sp, #148	; 0x94
100082d2:	0004      	movs	r4, r0
100082d4:	000d      	movs	r5, r1
100082d6:	f7fc fd95 	bl	10004e04 <time_us_64>
100082da:	2300      	movs	r3, #0
100082dc:	4a2a      	ldr	r2, [pc, #168]	; (10008388 <__wrap_vprintf+0xc0>)
100082de:	1812      	adds	r2, r2, r0
100082e0:	414b      	adcs	r3, r1
100082e2:	2b00      	cmp	r3, #0
100082e4:	db49      	blt.n	1000837a <__wrap_vprintf+0xb2>
100082e6:	4e29      	ldr	r6, [pc, #164]	; (1000838c <__wrap_vprintf+0xc4>)
100082e8:	0030      	movs	r0, r6
100082ea:	f000 fb35 	bl	10008958 <__mutex_try_enter_block_until_veneer>
100082ee:	2300      	movs	r3, #0
100082f0:	0007      	movs	r7, r0
100082f2:	9303      	str	r3, [sp, #12]
100082f4:	0022      	movs	r2, r4
100082f6:	002b      	movs	r3, r5
100082f8:	4825      	ldr	r0, [pc, #148]	; (10008390 <__wrap_vprintf+0xc8>)
100082fa:	a903      	add	r1, sp, #12
100082fc:	f7fe fe7a 	bl	10006ff4 <vfctprintf>
10008300:	9b03      	ldr	r3, [sp, #12]
10008302:	4680      	mov	r8, r0
10008304:	2b00      	cmp	r3, #0
10008306:	d114      	bne.n	10008332 <__wrap_vprintf+0x6a>
10008308:	4b22      	ldr	r3, [pc, #136]	; (10008394 <__wrap_vprintf+0xcc>)
1000830a:	681c      	ldr	r4, [r3, #0]
1000830c:	2c00      	cmp	r4, #0
1000830e:	d006      	beq.n	1000831e <__wrap_vprintf+0x56>
10008310:	6863      	ldr	r3, [r4, #4]
10008312:	2b00      	cmp	r3, #0
10008314:	d00b      	beq.n	1000832e <__wrap_vprintf+0x66>
10008316:	4798      	blx	r3
10008318:	6924      	ldr	r4, [r4, #16]
1000831a:	2c00      	cmp	r4, #0
1000831c:	d1f8      	bne.n	10008310 <__wrap_vprintf+0x48>
1000831e:	2f00      	cmp	r7, #0
10008320:	d127      	bne.n	10008372 <__wrap_vprintf+0xaa>
10008322:	4640      	mov	r0, r8
10008324:	b025      	add	sp, #148	; 0x94
10008326:	bcc0      	pop	{r6, r7}
10008328:	46b9      	mov	r9, r7
1000832a:	46b0      	mov	r8, r6
1000832c:	bdf0      	pop	{r4, r5, r6, r7, pc}
1000832e:	6924      	ldr	r4, [r4, #16]
10008330:	e7ec      	b.n	1000830c <__wrap_vprintf+0x44>
10008332:	4b18      	ldr	r3, [pc, #96]	; (10008394 <__wrap_vprintf+0xcc>)
10008334:	681d      	ldr	r5, [r3, #0]
10008336:	4699      	mov	r9, r3
10008338:	2d00      	cmp	r5, #0
1000833a:	d022      	beq.n	10008382 <__wrap_vprintf+0xba>
1000833c:	4c16      	ldr	r4, [pc, #88]	; (10008398 <__wrap_vprintf+0xd0>)
1000833e:	e002      	b.n	10008346 <__wrap_vprintf+0x7e>
10008340:	692d      	ldr	r5, [r5, #16]
10008342:	2d00      	cmp	r5, #0
10008344:	d011      	beq.n	1000836a <__wrap_vprintf+0xa2>
10008346:	682b      	ldr	r3, [r5, #0]
10008348:	2b00      	cmp	r3, #0
1000834a:	d0f9      	beq.n	10008340 <__wrap_vprintf+0x78>
1000834c:	6823      	ldr	r3, [r4, #0]
1000834e:	2b00      	cmp	r3, #0
10008350:	d001      	beq.n	10008356 <__wrap_vprintf+0x8e>
10008352:	429d      	cmp	r5, r3
10008354:	d1f4      	bne.n	10008340 <__wrap_vprintf+0x78>
10008356:	9b03      	ldr	r3, [sp, #12]
10008358:	0028      	movs	r0, r5
1000835a:	001a      	movs	r2, r3
1000835c:	a904      	add	r1, sp, #16
1000835e:	9301      	str	r3, [sp, #4]
10008360:	f7ff fe26 	bl	10007fb0 <stdio_out_chars_crlf>
10008364:	692d      	ldr	r5, [r5, #16]
10008366:	2d00      	cmp	r5, #0
10008368:	d1ed      	bne.n	10008346 <__wrap_vprintf+0x7e>
1000836a:	464b      	mov	r3, r9
1000836c:	9503      	str	r5, [sp, #12]
1000836e:	681c      	ldr	r4, [r3, #0]
10008370:	e7cc      	b.n	1000830c <__wrap_vprintf+0x44>
10008372:	0030      	movs	r0, r6
10008374:	f000 fad8 	bl	10008928 <__mutex_exit_veneer>
10008378:	e7d3      	b.n	10008322 <__wrap_vprintf+0x5a>
1000837a:	2201      	movs	r2, #1
1000837c:	4b07      	ldr	r3, [pc, #28]	; (1000839c <__wrap_vprintf+0xd4>)
1000837e:	4252      	negs	r2, r2
10008380:	e7b1      	b.n	100082e6 <__wrap_vprintf+0x1e>
10008382:	9503      	str	r5, [sp, #12]
10008384:	e7cb      	b.n	1000831e <__wrap_vprintf+0x56>
10008386:	46c0      	nop			; (mov r8, r8)
10008388:	000f4240 	.word	0x000f4240
1000838c:	20000258 	.word	0x20000258
10008390:	10008065 	.word	0x10008065
10008394:	20000630 	.word	0x20000630
10008398:	20000634 	.word	0x20000634
1000839c:	7fffffff 	.word	0x7fffffff

100083a0 <__wrap_printf>:
100083a0:	b40f      	push	{r0, r1, r2, r3}
100083a2:	b500      	push	{lr}
100083a4:	b083      	sub	sp, #12
100083a6:	a904      	add	r1, sp, #16
100083a8:	c901      	ldmia	r1!, {r0}
100083aa:	9101      	str	r1, [sp, #4]
100083ac:	f7ff ff8c 	bl	100082c8 <__wrap_vprintf>
100083b0:	b003      	add	sp, #12
100083b2:	bc08      	pop	{r3}
100083b4:	b004      	add	sp, #16
100083b6:	4718      	bx	r3

100083b8 <stdio_init_all>:
100083b8:	b510      	push	{r4, lr}
100083ba:	f000 f8c5 	bl	10008548 <stdio_uart_init>
100083be:	2001      	movs	r0, #1
100083c0:	bd10      	pop	{r4, pc}
100083c2:	46c0      	nop			; (mov r8, r8)

100083c4 <stdio_uart_out_chars>:
100083c4:	b5f0      	push	{r4, r5, r6, r7, lr}
100083c6:	1e0d      	subs	r5, r1, #0
100083c8:	dd15      	ble.n	100083f6 <stdio_uart_out_chars+0x32>
100083ca:	4b0e      	ldr	r3, [pc, #56]	; (10008404 <stdio_uart_out_chars+0x40>)
100083cc:	270d      	movs	r7, #13
100083ce:	681a      	ldr	r2, [r3, #0]
100083d0:	4b0d      	ldr	r3, [pc, #52]	; (10008408 <stdio_uart_out_chars+0x44>)
100083d2:	1945      	adds	r5, r0, r5
100083d4:	18d3      	adds	r3, r2, r3
100083d6:	4259      	negs	r1, r3
100083d8:	414b      	adcs	r3, r1
100083da:	490c      	ldr	r1, [pc, #48]	; (1000840c <stdio_uart_out_chars+0x48>)
100083dc:	005b      	lsls	r3, r3, #1
100083de:	5e5e      	ldrsh	r6, [r3, r1]
100083e0:	2120      	movs	r1, #32
100083e2:	7804      	ldrb	r4, [r0, #0]
100083e4:	42a6      	cmp	r6, r4
100083e6:	d007      	beq.n	100083f8 <stdio_uart_out_chars+0x34>
100083e8:	6993      	ldr	r3, [r2, #24]
100083ea:	4219      	tst	r1, r3
100083ec:	d1fc      	bne.n	100083e8 <stdio_uart_out_chars+0x24>
100083ee:	3001      	adds	r0, #1
100083f0:	6014      	str	r4, [r2, #0]
100083f2:	42a8      	cmp	r0, r5
100083f4:	d1f5      	bne.n	100083e2 <stdio_uart_out_chars+0x1e>
100083f6:	bdf0      	pop	{r4, r5, r6, r7, pc}
100083f8:	6993      	ldr	r3, [r2, #24]
100083fa:	4219      	tst	r1, r3
100083fc:	d1fc      	bne.n	100083f8 <stdio_uart_out_chars+0x34>
100083fe:	6017      	str	r7, [r2, #0]
10008400:	e7f2      	b.n	100083e8 <stdio_uart_out_chars+0x24>
10008402:	46c0      	nop			; (mov r8, r8)
10008404:	20000728 	.word	0x20000728
10008408:	bffc8000 	.word	0xbffc8000
1000840c:	20000724 	.word	0x20000724

10008410 <stdio_uart_in_chars>:
10008410:	b530      	push	{r4, r5, lr}
10008412:	0004      	movs	r4, r0
10008414:	1e0d      	subs	r5, r1, #0
10008416:	dd26      	ble.n	10008466 <stdio_uart_in_chars+0x56>
10008418:	2000      	movs	r0, #0
1000841a:	2110      	movs	r1, #16
1000841c:	4b1b      	ldr	r3, [pc, #108]	; (1000848c <stdio_uart_in_chars+0x7c>)
1000841e:	3c01      	subs	r4, #1
10008420:	681a      	ldr	r2, [r3, #0]
10008422:	6993      	ldr	r3, [r2, #24]
10008424:	4219      	tst	r1, r3
10008426:	d119      	bne.n	1000845c <stdio_uart_in_chars+0x4c>
10008428:	3001      	adds	r0, #1
1000842a:	6993      	ldr	r3, [r2, #24]
1000842c:	4219      	tst	r1, r3
1000842e:	d1fc      	bne.n	1000842a <stdio_uart_in_chars+0x1a>
10008430:	6813      	ldr	r3, [r2, #0]
10008432:	5423      	strb	r3, [r4, r0]
10008434:	4285      	cmp	r5, r0
10008436:	d1f4      	bne.n	10008422 <stdio_uart_in_chars+0x12>
10008438:	4b15      	ldr	r3, [pc, #84]	; (10008490 <stdio_uart_in_chars+0x80>)
1000843a:	681b      	ldr	r3, [r3, #0]
1000843c:	2b00      	cmp	r3, #0
1000843e:	d00c      	beq.n	1000845a <stdio_uart_in_chars+0x4a>
10008440:	2350      	movs	r3, #80	; 0x50
10008442:	6393      	str	r3, [r2, #56]	; 0x38
10008444:	6b51      	ldr	r1, [r2, #52]	; 0x34
10008446:	3b18      	subs	r3, #24
10008448:	3234      	adds	r2, #52	; 0x34
1000844a:	400b      	ands	r3, r1
1000844c:	0011      	movs	r1, r2
1000844e:	2280      	movs	r2, #128	; 0x80
10008450:	0152      	lsls	r2, r2, #5
10008452:	430a      	orrs	r2, r1
10008454:	6013      	str	r3, [r2, #0]
10008456:	2800      	cmp	r0, #0
10008458:	d015      	beq.n	10008486 <stdio_uart_in_chars+0x76>
1000845a:	bd30      	pop	{r4, r5, pc}
1000845c:	4b0c      	ldr	r3, [pc, #48]	; (10008490 <stdio_uart_in_chars+0x80>)
1000845e:	681b      	ldr	r3, [r3, #0]
10008460:	2b00      	cmp	r3, #0
10008462:	d1ed      	bne.n	10008440 <stdio_uart_in_chars+0x30>
10008464:	e7f7      	b.n	10008456 <stdio_uart_in_chars+0x46>
10008466:	4b0a      	ldr	r3, [pc, #40]	; (10008490 <stdio_uart_in_chars+0x80>)
10008468:	681b      	ldr	r3, [r3, #0]
1000846a:	2b00      	cmp	r3, #0
1000846c:	d00b      	beq.n	10008486 <stdio_uart_in_chars+0x76>
1000846e:	2250      	movs	r2, #80	; 0x50
10008470:	2138      	movs	r1, #56	; 0x38
10008472:	4b06      	ldr	r3, [pc, #24]	; (1000848c <stdio_uart_in_chars+0x7c>)
10008474:	681b      	ldr	r3, [r3, #0]
10008476:	639a      	str	r2, [r3, #56]	; 0x38
10008478:	6b5a      	ldr	r2, [r3, #52]	; 0x34
1000847a:	3334      	adds	r3, #52	; 0x34
1000847c:	4011      	ands	r1, r2
1000847e:	2280      	movs	r2, #128	; 0x80
10008480:	0152      	lsls	r2, r2, #5
10008482:	4313      	orrs	r3, r2
10008484:	6019      	str	r1, [r3, #0]
10008486:	2003      	movs	r0, #3
10008488:	4240      	negs	r0, r0
1000848a:	e7e6      	b.n	1000845a <stdio_uart_in_chars+0x4a>
1000848c:	20000728 	.word	0x20000728
10008490:	200005c0 	.word	0x200005c0

10008494 <on_uart_rx>:
10008494:	4b06      	ldr	r3, [pc, #24]	; (100084b0 <on_uart_rx+0x1c>)
10008496:	b510      	push	{r4, lr}
10008498:	681b      	ldr	r3, [r3, #0]
1000849a:	2b00      	cmp	r3, #0
1000849c:	d006      	beq.n	100084ac <on_uart_rx+0x18>
1000849e:	2100      	movs	r1, #0
100084a0:	4a04      	ldr	r2, [pc, #16]	; (100084b4 <on_uart_rx+0x20>)
100084a2:	6812      	ldr	r2, [r2, #0]
100084a4:	6391      	str	r1, [r2, #56]	; 0x38
100084a6:	4a04      	ldr	r2, [pc, #16]	; (100084b8 <on_uart_rx+0x24>)
100084a8:	6810      	ldr	r0, [r2, #0]
100084aa:	4798      	blx	r3
100084ac:	bd10      	pop	{r4, pc}
100084ae:	46c0      	nop			; (mov r8, r8)
100084b0:	200005c0 	.word	0x200005c0
100084b4:	20000728 	.word	0x20000728
100084b8:	200005c4 	.word	0x200005c4

100084bc <stdio_uart_set_chars_available_callback>:
100084bc:	4b1d      	ldr	r3, [pc, #116]	; (10008534 <stdio_uart_set_chars_available_callback+0x78>)
100084be:	b5f0      	push	{r4, r5, r6, r7, lr}
100084c0:	681a      	ldr	r2, [r3, #0]
100084c2:	46c6      	mov	lr, r8
100084c4:	4698      	mov	r8, r3
100084c6:	4b1c      	ldr	r3, [pc, #112]	; (10008538 <stdio_uart_set_chars_available_callback+0x7c>)
100084c8:	000e      	movs	r6, r1
100084ca:	18d3      	adds	r3, r2, r3
100084cc:	4259      	negs	r1, r3
100084ce:	414b      	adcs	r3, r1
100084d0:	4f1a      	ldr	r7, [pc, #104]	; (1000853c <stdio_uart_set_chars_available_callback+0x80>)
100084d2:	3314      	adds	r3, #20
100084d4:	001c      	movs	r4, r3
100084d6:	0005      	movs	r5, r0
100084d8:	b500      	push	{lr}
100084da:	683b      	ldr	r3, [r7, #0]
100084dc:	2800      	cmp	r0, #0
100084de:	d007      	beq.n	100084f0 <stdio_uart_set_chars_available_callback+0x34>
100084e0:	2b00      	cmp	r3, #0
100084e2:	d011      	beq.n	10008508 <stdio_uart_set_chars_available_callback+0x4c>
100084e4:	4b16      	ldr	r3, [pc, #88]	; (10008540 <stdio_uart_set_chars_available_callback+0x84>)
100084e6:	603d      	str	r5, [r7, #0]
100084e8:	601e      	str	r6, [r3, #0]
100084ea:	bc80      	pop	{r7}
100084ec:	46b8      	mov	r8, r7
100084ee:	bdf0      	pop	{r4, r5, r6, r7, pc}
100084f0:	2b00      	cmp	r3, #0
100084f2:	d0f7      	beq.n	100084e4 <stdio_uart_set_chars_available_callback+0x28>
100084f4:	6390      	str	r0, [r2, #56]	; 0x38
100084f6:	2100      	movs	r1, #0
100084f8:	0020      	movs	r0, r4
100084fa:	f7fb ff05 	bl	10004308 <irq_set_enabled>
100084fe:	0020      	movs	r0, r4
10008500:	4910      	ldr	r1, [pc, #64]	; (10008544 <stdio_uart_set_chars_available_callback+0x88>)
10008502:	f7fb ff45 	bl	10004390 <irq_remove_handler>
10008506:	e7ed      	b.n	100084e4 <stdio_uart_set_chars_available_callback+0x28>
10008508:	0020      	movs	r0, r4
1000850a:	490e      	ldr	r1, [pc, #56]	; (10008544 <stdio_uart_set_chars_available_callback+0x88>)
1000850c:	f7fb ff16 	bl	1000433c <irq_set_exclusive_handler>
10008510:	2101      	movs	r1, #1
10008512:	0020      	movs	r0, r4
10008514:	f7fb fef8 	bl	10004308 <irq_set_enabled>
10008518:	4643      	mov	r3, r8
1000851a:	2250      	movs	r2, #80	; 0x50
1000851c:	2138      	movs	r1, #56	; 0x38
1000851e:	681b      	ldr	r3, [r3, #0]
10008520:	639a      	str	r2, [r3, #56]	; 0x38
10008522:	6b5a      	ldr	r2, [r3, #52]	; 0x34
10008524:	3334      	adds	r3, #52	; 0x34
10008526:	4011      	ands	r1, r2
10008528:	2280      	movs	r2, #128	; 0x80
1000852a:	0152      	lsls	r2, r2, #5
1000852c:	4313      	orrs	r3, r2
1000852e:	6019      	str	r1, [r3, #0]
10008530:	e7d8      	b.n	100084e4 <stdio_uart_set_chars_available_callback+0x28>
10008532:	46c0      	nop			; (mov r8, r8)
10008534:	20000728 	.word	0x20000728
10008538:	bffc8000 	.word	0xbffc8000
1000853c:	200005c0 	.word	0x200005c0
10008540:	200005c4 	.word	0x200005c4
10008544:	10008495 	.word	0x10008495

10008548 <stdio_uart_init>:
10008548:	4b0c      	ldr	r3, [pc, #48]	; (1000857c <stdio_uart_init+0x34>)
1000854a:	b510      	push	{r4, lr}
1000854c:	781b      	ldrb	r3, [r3, #0]
1000854e:	4b0c      	ldr	r3, [pc, #48]	; (10008580 <stdio_uart_init+0x38>)
10008550:	4c0c      	ldr	r4, [pc, #48]	; (10008584 <stdio_uart_init+0x3c>)
10008552:	781b      	ldrb	r3, [r3, #0]
10008554:	4b0c      	ldr	r3, [pc, #48]	; (10008588 <stdio_uart_init+0x40>)
10008556:	2102      	movs	r1, #2
10008558:	2000      	movs	r0, #0
1000855a:	6023      	str	r3, [r4, #0]
1000855c:	f7fb fe06 	bl	1000416c <gpio_set_function>
10008560:	2102      	movs	r1, #2
10008562:	2001      	movs	r0, #1
10008564:	f7fb fe02 	bl	1000416c <gpio_set_function>
10008568:	21e1      	movs	r1, #225	; 0xe1
1000856a:	6820      	ldr	r0, [r4, #0]
1000856c:	0249      	lsls	r1, r1, #9
1000856e:	f7fc ff35 	bl	100053dc <uart_init>
10008572:	2101      	movs	r1, #1
10008574:	4805      	ldr	r0, [pc, #20]	; (1000858c <stdio_uart_init+0x44>)
10008576:	f7ff fe8f 	bl	10008298 <stdio_set_driver_enabled>
1000857a:	bd10      	pop	{r4, pc}
1000857c:	1000933c 	.word	0x1000933c
10008580:	10009340 	.word	0x10009340
10008584:	20000728 	.word	0x20000728
10008588:	40034000 	.word	0x40034000
1000858c:	20000240 	.word	0x20000240

10008590 <adc_init>:
10008590:	2301      	movs	r3, #1
10008592:	2101      	movs	r1, #1
10008594:	4a08      	ldr	r2, [pc, #32]	; (100085b8 <adc_init+0x28>)
10008596:	6013      	str	r3, [r2, #0]
10008598:	4a08      	ldr	r2, [pc, #32]	; (100085bc <adc_init+0x2c>)
1000859a:	6013      	str	r3, [r2, #0]
1000859c:	4a08      	ldr	r2, [pc, #32]	; (100085c0 <adc_init+0x30>)
1000859e:	0008      	movs	r0, r1
100085a0:	6893      	ldr	r3, [r2, #8]
100085a2:	4398      	bics	r0, r3
100085a4:	d1fb      	bne.n	1000859e <adc_init+0xe>
100085a6:	4a07      	ldr	r2, [pc, #28]	; (100085c4 <adc_init+0x34>)
100085a8:	6011      	str	r1, [r2, #0]
100085aa:	2180      	movs	r1, #128	; 0x80
100085ac:	0049      	lsls	r1, r1, #1
100085ae:	6813      	ldr	r3, [r2, #0]
100085b0:	420b      	tst	r3, r1
100085b2:	d0fc      	beq.n	100085ae <adc_init+0x1e>
100085b4:	4770      	bx	lr
100085b6:	46c0      	nop			; (mov r8, r8)
100085b8:	4000e000 	.word	0x4000e000
100085bc:	4000f000 	.word	0x4000f000
100085c0:	4000c000 	.word	0x4000c000
100085c4:	4004c000 	.word	0x4004c000

100085c8 <pio_add_program>:
100085c8:	b5f0      	push	{r4, r5, r6, r7, lr}
100085ca:	46d6      	mov	lr, sl
100085cc:	464f      	mov	r7, r9
100085ce:	4646      	mov	r6, r8
100085d0:	4688      	mov	r8, r1
100085d2:	b5c0      	push	{r6, r7, lr}
100085d4:	2405      	movs	r4, #5
100085d6:	0006      	movs	r6, r0
100085d8:	f7fb fe44 	bl	10004264 <hw_claim_lock>
100085dc:	4643      	mov	r3, r8
100085de:	791f      	ldrb	r7, [r3, #4]
100085e0:	571c      	ldrsb	r4, [r3, r4]
100085e2:	4b28      	ldr	r3, [pc, #160]	; (10008684 <pio_add_program+0xbc>)
100085e4:	4681      	mov	r9, r0
100085e6:	18f0      	adds	r0, r6, r3
100085e8:	4243      	negs	r3, r0
100085ea:	4158      	adcs	r0, r3
100085ec:	4b26      	ldr	r3, [pc, #152]	; (10008688 <pio_add_program+0xc0>)
100085ee:	469a      	mov	sl, r3
100085f0:	0083      	lsls	r3, r0, #2
100085f2:	469c      	mov	ip, r3
100085f4:	4653      	mov	r3, sl
100085f6:	4662      	mov	r2, ip
100085f8:	5898      	ldr	r0, [r3, r2]
100085fa:	2201      	movs	r2, #1
100085fc:	2320      	movs	r3, #32
100085fe:	40ba      	lsls	r2, r7
10008600:	1bdb      	subs	r3, r3, r7
10008602:	3a01      	subs	r2, #1
10008604:	2c00      	cmp	r4, #0
10008606:	db32      	blt.n	1000866e <pio_add_program+0xa6>
10008608:	429c      	cmp	r4, r3
1000860a:	dc2d      	bgt.n	10008668 <pio_add_program+0xa0>
1000860c:	40a2      	lsls	r2, r4
1000860e:	0015      	movs	r5, r2
10008610:	4210      	tst	r0, r2
10008612:	d129      	bne.n	10008668 <pio_add_program+0xa0>
10008614:	2f00      	cmp	r7, #0
10008616:	d01a      	beq.n	1000864e <pio_add_program+0x86>
10008618:	4643      	mov	r3, r8
1000861a:	785a      	ldrb	r2, [r3, #1]
1000861c:	7819      	ldrb	r1, [r3, #0]
1000861e:	0212      	lsls	r2, r2, #8
10008620:	4311      	orrs	r1, r2
10008622:	4642      	mov	r2, r8
10008624:	789b      	ldrb	r3, [r3, #2]
10008626:	78d2      	ldrb	r2, [r2, #3]
10008628:	041b      	lsls	r3, r3, #16
1000862a:	430b      	orrs	r3, r1
1000862c:	0612      	lsls	r2, r2, #24
1000862e:	431a      	orrs	r2, r3
10008630:	4690      	mov	r8, r2
10008632:	2200      	movs	r2, #0
10008634:	4641      	mov	r1, r8
10008636:	0053      	lsls	r3, r2, #1
10008638:	5ac9      	ldrh	r1, [r1, r3]
1000863a:	0b4b      	lsrs	r3, r1, #13
1000863c:	d100      	bne.n	10008640 <pio_add_program+0x78>
1000863e:	1909      	adds	r1, r1, r4
10008640:	1913      	adds	r3, r2, r4
10008642:	3312      	adds	r3, #18
10008644:	009b      	lsls	r3, r3, #2
10008646:	3201      	adds	r2, #1
10008648:	5199      	str	r1, [r3, r6]
1000864a:	4297      	cmp	r7, r2
1000864c:	d8f2      	bhi.n	10008634 <pio_add_program+0x6c>
1000864e:	4653      	mov	r3, sl
10008650:	4662      	mov	r2, ip
10008652:	4305      	orrs	r5, r0
10008654:	509d      	str	r5, [r3, r2]
10008656:	4648      	mov	r0, r9
10008658:	f7fb fe10 	bl	1000427c <hw_claim_unlock>
1000865c:	0020      	movs	r0, r4
1000865e:	bce0      	pop	{r5, r6, r7}
10008660:	46ba      	mov	sl, r7
10008662:	46b1      	mov	r9, r6
10008664:	46a8      	mov	r8, r5
10008666:	bdf0      	pop	{r4, r5, r6, r7, pc}
10008668:	4808      	ldr	r0, [pc, #32]	; (1000868c <pio_add_program+0xc4>)
1000866a:	f7fd f9d3 	bl	10005a14 <panic>
1000866e:	2b00      	cmp	r3, #0
10008670:	da02      	bge.n	10008678 <pio_add_program+0xb0>
10008672:	e7f9      	b.n	10008668 <pio_add_program+0xa0>
10008674:	3b01      	subs	r3, #1
10008676:	d3f7      	bcc.n	10008668 <pio_add_program+0xa0>
10008678:	0015      	movs	r5, r2
1000867a:	409d      	lsls	r5, r3
1000867c:	001c      	movs	r4, r3
1000867e:	4205      	tst	r5, r0
10008680:	d1f8      	bne.n	10008674 <pio_add_program+0xac>
10008682:	e7c7      	b.n	10008614 <pio_add_program+0x4c>
10008684:	afd00000 	.word	0xafd00000
10008688:	200005a4 	.word	0x200005a4
1000868c:	100092e4 	.word	0x100092e4

10008690 <pio_sm_set_pins_with_mask>:
10008690:	b5f0      	push	{r4, r5, r6, r7, lr}
10008692:	46de      	mov	lr, fp
10008694:	4657      	mov	r7, sl
10008696:	464e      	mov	r6, r9
10008698:	4645      	mov	r5, r8
1000869a:	468b      	mov	fp, r1
1000869c:	b5e0      	push	{r5, r6, r7, lr}
1000869e:	001c      	movs	r4, r3
100086a0:	b085      	sub	sp, #20
100086a2:	004b      	lsls	r3, r1, #1
100086a4:	9303      	str	r3, [sp, #12]
100086a6:	445b      	add	r3, fp
100086a8:	00db      	lsls	r3, r3, #3
100086aa:	18c5      	adds	r5, r0, r3
100086ac:	002f      	movs	r7, r5
100086ae:	37dc      	adds	r7, #220	; 0xdc
100086b0:	0016      	movs	r6, r2
100086b2:	683a      	ldr	r2, [r7, #0]
100086b4:	4684      	mov	ip, r0
100086b6:	9200      	str	r2, [sp, #0]
100086b8:	002a      	movs	r2, r5
100086ba:	32cc      	adds	r2, #204	; 0xcc
100086bc:	6812      	ldr	r2, [r2, #0]
100086be:	33cc      	adds	r3, #204	; 0xcc
100086c0:	9201      	str	r2, [sp, #4]
100086c2:	22c0      	movs	r2, #192	; 0xc0
100086c4:	4463      	add	r3, ip
100086c6:	0192      	lsls	r2, r2, #6
100086c8:	4313      	orrs	r3, r2
100086ca:	2280      	movs	r2, #128	; 0x80
100086cc:	0292      	lsls	r2, r2, #10
100086ce:	9002      	str	r0, [sp, #8]
100086d0:	601a      	str	r2, [r3, #0]
100086d2:	2c00      	cmp	r4, #0
100086d4:	d019      	beq.n	1000870a <pio_sm_set_pins_with_mask+0x7a>
100086d6:	2380      	movs	r3, #128	; 0x80
100086d8:	04db      	lsls	r3, r3, #19
100086da:	469a      	mov	sl, r3
100086dc:	2301      	movs	r3, #1
100086de:	4699      	mov	r9, r3
100086e0:	23e0      	movs	r3, #224	; 0xe0
100086e2:	021b      	lsls	r3, r3, #8
100086e4:	4698      	mov	r8, r3
100086e6:	35d8      	adds	r5, #216	; 0xd8
100086e8:	0020      	movs	r0, r4
100086ea:	f7fe fcb3 	bl	10007054 <__wrap___ctzsi2>
100086ee:	4652      	mov	r2, sl
100086f0:	0143      	lsls	r3, r0, #5
100086f2:	4313      	orrs	r3, r2
100086f4:	603b      	str	r3, [r7, #0]
100086f6:	0033      	movs	r3, r6
100086f8:	464a      	mov	r2, r9
100086fa:	40c3      	lsrs	r3, r0
100086fc:	4013      	ands	r3, r2
100086fe:	4642      	mov	r2, r8
10008700:	4313      	orrs	r3, r2
10008702:	602b      	str	r3, [r5, #0]
10008704:	1e63      	subs	r3, r4, #1
10008706:	401c      	ands	r4, r3
10008708:	d1ee      	bne.n	100086e8 <pio_sm_set_pins_with_mask+0x58>
1000870a:	9b02      	ldr	r3, [sp, #8]
1000870c:	9803      	ldr	r0, [sp, #12]
1000870e:	469c      	mov	ip, r3
10008710:	4458      	add	r0, fp
10008712:	00c0      	lsls	r0, r0, #3
10008714:	4460      	add	r0, ip
10008716:	0003      	movs	r3, r0
10008718:	9a00      	ldr	r2, [sp, #0]
1000871a:	33dc      	adds	r3, #220	; 0xdc
1000871c:	601a      	str	r2, [r3, #0]
1000871e:	9b01      	ldr	r3, [sp, #4]
10008720:	30cc      	adds	r0, #204	; 0xcc
10008722:	6003      	str	r3, [r0, #0]
10008724:	b005      	add	sp, #20
10008726:	bcf0      	pop	{r4, r5, r6, r7}
10008728:	46bb      	mov	fp, r7
1000872a:	46b2      	mov	sl, r6
1000872c:	46a9      	mov	r9, r5
1000872e:	46a0      	mov	r8, r4
10008730:	bdf0      	pop	{r4, r5, r6, r7, pc}
10008732:	46c0      	nop			; (mov r8, r8)

10008734 <pio_sm_set_pindirs_with_mask>:
10008734:	b5f0      	push	{r4, r5, r6, r7, lr}
10008736:	46de      	mov	lr, fp
10008738:	4657      	mov	r7, sl
1000873a:	464e      	mov	r6, r9
1000873c:	4645      	mov	r5, r8
1000873e:	468b      	mov	fp, r1
10008740:	b5e0      	push	{r5, r6, r7, lr}
10008742:	001c      	movs	r4, r3
10008744:	b085      	sub	sp, #20
10008746:	004b      	lsls	r3, r1, #1
10008748:	9303      	str	r3, [sp, #12]
1000874a:	445b      	add	r3, fp
1000874c:	00db      	lsls	r3, r3, #3
1000874e:	18c5      	adds	r5, r0, r3
10008750:	002f      	movs	r7, r5
10008752:	37dc      	adds	r7, #220	; 0xdc
10008754:	0016      	movs	r6, r2
10008756:	683a      	ldr	r2, [r7, #0]
10008758:	4684      	mov	ip, r0
1000875a:	9200      	str	r2, [sp, #0]
1000875c:	002a      	movs	r2, r5
1000875e:	32cc      	adds	r2, #204	; 0xcc
10008760:	6812      	ldr	r2, [r2, #0]
10008762:	33cc      	adds	r3, #204	; 0xcc
10008764:	9201      	str	r2, [sp, #4]
10008766:	22c0      	movs	r2, #192	; 0xc0
10008768:	4463      	add	r3, ip
1000876a:	0192      	lsls	r2, r2, #6
1000876c:	4313      	orrs	r3, r2
1000876e:	2280      	movs	r2, #128	; 0x80
10008770:	0292      	lsls	r2, r2, #10
10008772:	9002      	str	r0, [sp, #8]
10008774:	601a      	str	r2, [r3, #0]
10008776:	2c00      	cmp	r4, #0
10008778:	d018      	beq.n	100087ac <pio_sm_set_pindirs_with_mask+0x78>
1000877a:	2380      	movs	r3, #128	; 0x80
1000877c:	04db      	lsls	r3, r3, #19
1000877e:	469a      	mov	sl, r3
10008780:	2301      	movs	r3, #1
10008782:	4699      	mov	r9, r3
10008784:	4b13      	ldr	r3, [pc, #76]	; (100087d4 <pio_sm_set_pindirs_with_mask+0xa0>)
10008786:	35d8      	adds	r5, #216	; 0xd8
10008788:	4698      	mov	r8, r3
1000878a:	0020      	movs	r0, r4
1000878c:	f7fe fc62 	bl	10007054 <__wrap___ctzsi2>
10008790:	4652      	mov	r2, sl
10008792:	0143      	lsls	r3, r0, #5
10008794:	4313      	orrs	r3, r2
10008796:	603b      	str	r3, [r7, #0]
10008798:	0033      	movs	r3, r6
1000879a:	464a      	mov	r2, r9
1000879c:	40c3      	lsrs	r3, r0
1000879e:	4013      	ands	r3, r2
100087a0:	4642      	mov	r2, r8
100087a2:	4313      	orrs	r3, r2
100087a4:	602b      	str	r3, [r5, #0]
100087a6:	1e63      	subs	r3, r4, #1
100087a8:	401c      	ands	r4, r3
100087aa:	d1ee      	bne.n	1000878a <pio_sm_set_pindirs_with_mask+0x56>
100087ac:	9b02      	ldr	r3, [sp, #8]
100087ae:	9803      	ldr	r0, [sp, #12]
100087b0:	469c      	mov	ip, r3
100087b2:	4458      	add	r0, fp
100087b4:	00c0      	lsls	r0, r0, #3
100087b6:	4460      	add	r0, ip
100087b8:	0003      	movs	r3, r0
100087ba:	9a00      	ldr	r2, [sp, #0]
100087bc:	33dc      	adds	r3, #220	; 0xdc
100087be:	601a      	str	r2, [r3, #0]
100087c0:	9b01      	ldr	r3, [sp, #4]
100087c2:	30cc      	adds	r0, #204	; 0xcc
100087c4:	6003      	str	r3, [r0, #0]
100087c6:	b005      	add	sp, #20
100087c8:	bcf0      	pop	{r4, r5, r6, r7}
100087ca:	46bb      	mov	fp, r7
100087cc:	46b2      	mov	sl, r6
100087ce:	46a9      	mov	r9, r5
100087d0:	46a0      	mov	r8, r4
100087d2:	bdf0      	pop	{r4, r5, r6, r7, pc}
100087d4:	0000e080 	.word	0x0000e080

100087d8 <pio_sm_init>:
100087d8:	b5f0      	push	{r4, r5, r6, r7, lr}
100087da:	2501      	movs	r5, #1
100087dc:	408d      	lsls	r5, r1
100087de:	6804      	ldr	r4, [r0, #0]
100087e0:	43ac      	bics	r4, r5
100087e2:	004d      	lsls	r5, r1, #1
100087e4:	6004      	str	r4, [r0, #0]
100087e6:	186c      	adds	r4, r5, r1
100087e8:	00e4      	lsls	r4, r4, #3
100087ea:	1904      	adds	r4, r0, r4
100087ec:	0026      	movs	r6, r4
100087ee:	36c8      	adds	r6, #200	; 0xc8
100087f0:	2b00      	cmp	r3, #0
100087f2:	d028      	beq.n	10008846 <pio_sm_init+0x6e>
100087f4:	681f      	ldr	r7, [r3, #0]
100087f6:	34dc      	adds	r4, #220	; 0xdc
100087f8:	6037      	str	r7, [r6, #0]
100087fa:	685f      	ldr	r7, [r3, #4]
100087fc:	6077      	str	r7, [r6, #4]
100087fe:	689f      	ldr	r7, [r3, #8]
10008800:	68db      	ldr	r3, [r3, #12]
10008802:	60b7      	str	r7, [r6, #8]
10008804:	6023      	str	r3, [r4, #0]
10008806:	186d      	adds	r5, r5, r1
10008808:	00eb      	lsls	r3, r5, #3
1000880a:	001d      	movs	r5, r3
1000880c:	2480      	movs	r4, #128	; 0x80
1000880e:	35d0      	adds	r5, #208	; 0xd0
10008810:	1945      	adds	r5, r0, r5
10008812:	0164      	lsls	r4, r4, #5
10008814:	432c      	orrs	r4, r5
10008816:	2580      	movs	r5, #128	; 0x80
10008818:	062d      	lsls	r5, r5, #24
1000881a:	6025      	str	r5, [r4, #0]
1000881c:	6025      	str	r5, [r4, #0]
1000881e:	2501      	movs	r5, #1
10008820:	4c0f      	ldr	r4, [pc, #60]	; (10008860 <pio_sm_init+0x88>)
10008822:	002e      	movs	r6, r5
10008824:	408c      	lsls	r4, r1
10008826:	6084      	str	r4, [r0, #8]
10008828:	1d0c      	adds	r4, r1, #4
1000882a:	40a6      	lsls	r6, r4
1000882c:	2480      	movs	r4, #128	; 0x80
1000882e:	3108      	adds	r1, #8
10008830:	408d      	lsls	r5, r1
10008832:	211f      	movs	r1, #31
10008834:	01a4      	lsls	r4, r4, #6
10008836:	4304      	orrs	r4, r0
10008838:	18c0      	adds	r0, r0, r3
1000883a:	400a      	ands	r2, r1
1000883c:	30d8      	adds	r0, #216	; 0xd8
1000883e:	6026      	str	r6, [r4, #0]
10008840:	6025      	str	r5, [r4, #0]
10008842:	6002      	str	r2, [r0, #0]
10008844:	bdf0      	pop	{r4, r5, r6, r7, pc}
10008846:	2780      	movs	r7, #128	; 0x80
10008848:	027f      	lsls	r7, r7, #9
1000884a:	6037      	str	r7, [r6, #0]
1000884c:	27f8      	movs	r7, #248	; 0xf8
1000884e:	027f      	lsls	r7, r7, #9
10008850:	6077      	str	r7, [r6, #4]
10008852:	27c0      	movs	r7, #192	; 0xc0
10008854:	34dc      	adds	r4, #220	; 0xdc
10008856:	033f      	lsls	r7, r7, #12
10008858:	60b7      	str	r7, [r6, #8]
1000885a:	6023      	str	r3, [r4, #0]
1000885c:	e7d3      	b.n	10008806 <pio_sm_init+0x2e>
1000885e:	46c0      	nop			; (mov r8, r8)
10008860:	01010101 	.word	0x01010101

10008864 <boot_double_tap_check>:
10008864:	b510      	push	{r4, lr}
10008866:	4c11      	ldr	r4, [pc, #68]	; (100088ac <boot_double_tap_check+0x48>)
10008868:	4b11      	ldr	r3, [pc, #68]	; (100088b0 <boot_double_tap_check+0x4c>)
1000886a:	6822      	ldr	r2, [r4, #0]
1000886c:	429a      	cmp	r2, r3
1000886e:	d110      	bne.n	10008892 <boot_double_tap_check+0x2e>
10008870:	4b10      	ldr	r3, [pc, #64]	; (100088b4 <boot_double_tap_check+0x50>)
10008872:	6862      	ldr	r2, [r4, #4]
10008874:	429a      	cmp	r2, r3
10008876:	d10c      	bne.n	10008892 <boot_double_tap_check+0x2e>
10008878:	4b0f      	ldr	r3, [pc, #60]	; (100088b8 <boot_double_tap_check+0x54>)
1000887a:	68a2      	ldr	r2, [r4, #8]
1000887c:	429a      	cmp	r2, r3
1000887e:	d108      	bne.n	10008892 <boot_double_tap_check+0x2e>
10008880:	2300      	movs	r3, #0
10008882:	480e      	ldr	r0, [pc, #56]	; (100088bc <boot_double_tap_check+0x58>)
10008884:	6023      	str	r3, [r4, #0]
10008886:	f7fe fbeb 	bl	10007060 <rom_func_lookup>
1000888a:	2100      	movs	r1, #0
1000888c:	0003      	movs	r3, r0
1000888e:	2000      	movs	r0, #0
10008890:	4798      	blx	r3
10008892:	4b07      	ldr	r3, [pc, #28]	; (100088b0 <boot_double_tap_check+0x4c>)
10008894:	2100      	movs	r1, #0
10008896:	6023      	str	r3, [r4, #0]
10008898:	4b06      	ldr	r3, [pc, #24]	; (100088b4 <boot_double_tap_check+0x50>)
1000889a:	4809      	ldr	r0, [pc, #36]	; (100088c0 <boot_double_tap_check+0x5c>)
1000889c:	6063      	str	r3, [r4, #4]
1000889e:	4b06      	ldr	r3, [pc, #24]	; (100088b8 <boot_double_tap_check+0x54>)
100088a0:	60a3      	str	r3, [r4, #8]
100088a2:	f7fc fab9 	bl	10004e18 <busy_wait_us>
100088a6:	2300      	movs	r3, #0
100088a8:	6023      	str	r3, [r4, #0]
100088aa:	bd10      	pop	{r4, pc}
100088ac:	20000278 	.word	0x20000278
100088b0:	f01681de 	.word	0xf01681de
100088b4:	bd729b29 	.word	0xbd729b29
100088b8:	d359be7a 	.word	0xd359be7a
100088bc:	00004255 	.word	0x00004255
100088c0:	00030d40 	.word	0x00030d40

100088c4 <strlen>:
100088c4:	b510      	push	{r4, lr}
100088c6:	0783      	lsls	r3, r0, #30
100088c8:	d00a      	beq.n	100088e0 <strlen+0x1c>
100088ca:	0003      	movs	r3, r0
100088cc:	2103      	movs	r1, #3
100088ce:	e002      	b.n	100088d6 <strlen+0x12>
100088d0:	3301      	adds	r3, #1
100088d2:	420b      	tst	r3, r1
100088d4:	d005      	beq.n	100088e2 <strlen+0x1e>
100088d6:	781a      	ldrb	r2, [r3, #0]
100088d8:	2a00      	cmp	r2, #0
100088da:	d1f9      	bne.n	100088d0 <strlen+0xc>
100088dc:	1a18      	subs	r0, r3, r0
100088de:	bd10      	pop	{r4, pc}
100088e0:	0003      	movs	r3, r0
100088e2:	6819      	ldr	r1, [r3, #0]
100088e4:	4a0c      	ldr	r2, [pc, #48]	; (10008918 <strlen+0x54>)
100088e6:	4c0d      	ldr	r4, [pc, #52]	; (1000891c <strlen+0x58>)
100088e8:	188a      	adds	r2, r1, r2
100088ea:	438a      	bics	r2, r1
100088ec:	4222      	tst	r2, r4
100088ee:	d10f      	bne.n	10008910 <strlen+0x4c>
100088f0:	6859      	ldr	r1, [r3, #4]
100088f2:	4a09      	ldr	r2, [pc, #36]	; (10008918 <strlen+0x54>)
100088f4:	3304      	adds	r3, #4
100088f6:	188a      	adds	r2, r1, r2
100088f8:	438a      	bics	r2, r1
100088fa:	4222      	tst	r2, r4
100088fc:	d108      	bne.n	10008910 <strlen+0x4c>
100088fe:	6859      	ldr	r1, [r3, #4]
10008900:	4a05      	ldr	r2, [pc, #20]	; (10008918 <strlen+0x54>)
10008902:	3304      	adds	r3, #4
10008904:	188a      	adds	r2, r1, r2
10008906:	438a      	bics	r2, r1
10008908:	4222      	tst	r2, r4
1000890a:	d0f1      	beq.n	100088f0 <strlen+0x2c>
1000890c:	e000      	b.n	10008910 <strlen+0x4c>
1000890e:	3301      	adds	r3, #1
10008910:	781a      	ldrb	r2, [r3, #0]
10008912:	2a00      	cmp	r2, #0
10008914:	d1fb      	bne.n	1000890e <strlen+0x4a>
10008916:	e7e1      	b.n	100088dc <strlen+0x18>
10008918:	fefefeff 	.word	0xfefefeff
1000891c:	80808080 	.word	0x80808080

10008920 <_fini>:
10008920:	b5f8      	push	{r3, r4, r5, r6, r7, lr}
10008922:	46c0      	nop			; (mov r8, r8)
10008924:	0000      	movs	r0, r0
	...

10008928 <__mutex_exit_veneer>:
10008928:	b401      	push	{r0}
1000892a:	4802      	ldr	r0, [pc, #8]	; (10008934 <__mutex_exit_veneer+0xc>)
1000892c:	4684      	mov	ip, r0
1000892e:	bc01      	pop	{r0}
10008930:	4760      	bx	ip
10008932:	bf00      	nop
10008934:	2000015d 	.word	0x2000015d

10008938 <____aeabi_ldiv0_veneer>:
10008938:	b401      	push	{r0}
1000893a:	4802      	ldr	r0, [pc, #8]	; (10008944 <____aeabi_ldiv0_veneer+0xc>)
1000893c:	4684      	mov	ip, r0
1000893e:	bc01      	pop	{r0}
10008940:	4760      	bx	ip
10008942:	bf00      	nop
10008944:	20000185 	.word	0x20000185

10008948 <____aeabi_idiv0_veneer>:
10008948:	b401      	push	{r0}
1000894a:	4802      	ldr	r0, [pc, #8]	; (10008954 <____aeabi_idiv0_veneer+0xc>)
1000894c:	4684      	mov	ip, r0
1000894e:	bc01      	pop	{r0}
10008950:	4760      	bx	ip
10008952:	bf00      	nop
10008954:	20000185 	.word	0x20000185

10008958 <__mutex_try_enter_block_until_veneer>:
10008958:	b401      	push	{r0}
1000895a:	4802      	ldr	r0, [pc, #8]	; (10008964 <__mutex_try_enter_block_until_veneer+0xc>)
1000895c:	4684      	mov	ip, r0
1000895e:	bc01      	pop	{r0}
10008960:	4760      	bx	ip
10008962:	bf00      	nop
10008964:	200000c1 	.word	0x200000c1

Disassembly of section .data:

200000c0 <mutex_try_enter_block_until>:
200000c0:	b5f0      	push	{r4, r5, r6, r7, lr}
200000c2:	46c6      	mov	lr, r8
200000c4:	0015      	movs	r5, r2
200000c6:	b500      	push	{lr}
200000c8:	0004      	movs	r4, r0
200000ca:	001e      	movs	r6, r3
200000cc:	6802      	ldr	r2, [r0, #0]
200000ce:	f3ef 8110 	mrs	r1, PRIMASK
200000d2:	b672      	cpsid	i
200000d4:	6813      	ldr	r3, [r2, #0]
200000d6:	2b00      	cmp	r3, #0
200000d8:	d0fc      	beq.n	200000d4 <mutex_try_enter_block_until+0x14>
200000da:	f3bf 8f5f 	dmb	sy
200000de:	2304      	movs	r3, #4
200000e0:	56e3      	ldrsb	r3, [r4, r3]
200000e2:	2b00      	cmp	r3, #0
200000e4:	db2d      	blt.n	20000142 <mutex_try_enter_block_until+0x82>
200000e6:	6822      	ldr	r2, [r4, #0]
200000e8:	f3bf 8f5f 	dmb	sy
200000ec:	2000      	movs	r0, #0
200000ee:	6010      	str	r0, [r2, #0]
200000f0:	f381 8810 	msr	PRIMASK, r1
200000f4:	22d0      	movs	r2, #208	; 0xd0
200000f6:	0612      	lsls	r2, r2, #24
200000f8:	7812      	ldrb	r2, [r2, #0]
200000fa:	b252      	sxtb	r2, r2
200000fc:	4690      	mov	r8, r2
200000fe:	429a      	cmp	r2, r3
20000100:	d103      	bne.n	2000010a <mutex_try_enter_block_until+0x4a>
20000102:	2000      	movs	r0, #0
20000104:	bc80      	pop	{r7}
20000106:	46b8      	mov	r8, r7
20000108:	bdf0      	pop	{r4, r5, r6, r7, pc}
2000010a:	2700      	movs	r7, #0
2000010c:	e00b      	b.n	20000126 <mutex_try_enter_block_until+0x66>
2000010e:	6823      	ldr	r3, [r4, #0]
20000110:	f3bf 8f5f 	dmb	sy
20000114:	601f      	str	r7, [r3, #0]
20000116:	f381 8810 	msr	PRIMASK, r1
2000011a:	0028      	movs	r0, r5
2000011c:	0031      	movs	r1, r6
2000011e:	f000 f833 	bl	20000188 <__best_effort_wfe_or_timeout_veneer>
20000122:	2800      	cmp	r0, #0
20000124:	d1ed      	bne.n	20000102 <mutex_try_enter_block_until+0x42>
20000126:	6822      	ldr	r2, [r4, #0]
20000128:	f3ef 8110 	mrs	r1, PRIMASK
2000012c:	b672      	cpsid	i
2000012e:	6813      	ldr	r3, [r2, #0]
20000130:	2b00      	cmp	r3, #0
20000132:	d0fc      	beq.n	2000012e <mutex_try_enter_block_until+0x6e>
20000134:	f3bf 8f5f 	dmb	sy
20000138:	7923      	ldrb	r3, [r4, #4]
2000013a:	2b7f      	cmp	r3, #127	; 0x7f
2000013c:	d9e7      	bls.n	2000010e <mutex_try_enter_block_until+0x4e>
2000013e:	4643      	mov	r3, r8
20000140:	e002      	b.n	20000148 <mutex_try_enter_block_until+0x88>
20000142:	23d0      	movs	r3, #208	; 0xd0
20000144:	061b      	lsls	r3, r3, #24
20000146:	681b      	ldr	r3, [r3, #0]
20000148:	7123      	strb	r3, [r4, #4]
2000014a:	6823      	ldr	r3, [r4, #0]
2000014c:	f3bf 8f5f 	dmb	sy
20000150:	2200      	movs	r2, #0
20000152:	601a      	str	r2, [r3, #0]
20000154:	f381 8810 	msr	PRIMASK, r1
20000158:	2001      	movs	r0, #1
2000015a:	e7d3      	b.n	20000104 <mutex_try_enter_block_until+0x44>

2000015c <mutex_exit>:
2000015c:	6802      	ldr	r2, [r0, #0]
2000015e:	f3ef 8110 	mrs	r1, PRIMASK
20000162:	b672      	cpsid	i
20000164:	6813      	ldr	r3, [r2, #0]
20000166:	2b00      	cmp	r3, #0
20000168:	d0fc      	beq.n	20000164 <mutex_exit+0x8>
2000016a:	f3bf 8f5f 	dmb	sy
2000016e:	23ff      	movs	r3, #255	; 0xff
20000170:	7103      	strb	r3, [r0, #4]
20000172:	6803      	ldr	r3, [r0, #0]
20000174:	f3bf 8f5f 	dmb	sy
20000178:	2200      	movs	r2, #0
2000017a:	601a      	str	r2, [r3, #0]
2000017c:	f381 8810 	msr	PRIMASK, r1
20000180:	bf40      	sev
20000182:	4770      	bx	lr

20000184 <__aeabi_idiv0>:
20000184:	4770      	bx	lr
20000186:	46c0      	nop			; (mov r8, r8)

20000188 <__best_effort_wfe_or_timeout_veneer>:
20000188:	b401      	push	{r0}
2000018a:	4802      	ldr	r0, [pc, #8]	; (20000194 <__best_effort_wfe_or_timeout_veneer+0xc>)
2000018c:	4684      	mov	ip, r0
2000018e:	bc01      	pop	{r0}
20000190:	4760      	bx	ip
20000192:	bf00      	nop
20000194:	10004c5d 	.word	0x10004c5d

20000198 <flag>:
20000198:	00000001                                ....

2000019c <spi>:
2000019c:	50200000 00000000 00000012              .. P........

200001a8 <striped_spin_lock_num>:
200001a8:	00000010                                ....

200001ac <irq_handler_chain_slots>:
200001ac:	00000000 	.word	0x00000000
200001b0:	00010000 	.word	0x00010000
	...
200001bc:	00020000 	.word	0x00020000
	...
200001c8:	00030000 	.word	0x00030000
	...
200001d4:	00ff0000 	.word	0x00ff0000
200001d8:	00000000 	.word	0x00000000

200001dc <irq_handler_chain_first_slot>:
200001dc:	b501      	push	{r0, lr}
200001de:	6848      	ldr	r0, [r1, #4]
200001e0:	3101      	adds	r1, #1
200001e2:	468e      	mov	lr, r1
200001e4:	4700      	bx	r0

200001e6 <irq_handler_chain_remove_tail>:
200001e6:	4670      	mov	r0, lr
200001e8:	3809      	subs	r0, #9
200001ea:	4901      	ldr	r1, [pc, #4]	; (200001f0 <irq_handler_chain_remove_tail+0xa>)
200001ec:	4788      	blx	r1
200001ee:	bd01      	pop	{r0, pc}
200001f0:	10004541 	.word	0x10004541

200001f4 <default_alarm_pool>:
200001f4:	2000020c 00000000 20000288 200005f0     ... ....... ... 
	...

2000020c <default_alarm_pool_heap>:
2000020c:	20000600 00000000 00000000 00000010     ... ............
2000021c:	00000000                                ....

20000220 <aeabi_bits_funcs>:
20000220:	00003350 	.word	0x00003350
20000224:	0000334c 	.word	0x0000334c
20000228:	00003354 	.word	0x00003354
2000022c:	00003352 	.word	0x00003352

20000230 <aeabi_bits_funcs_end>:
20000230:	0000534d 	.word	0x0000534d
20000234:	0000434d 	.word	0x0000434d
20000238:	00003453 	.word	0x00003453
2000023c:	00003443 	.word	0x00003443

20000240 <stdio_uart>:
20000240:	100083c5 00000000 10008411 100084bd     ................
20000250:	00000000 00000100                       ........

20000258 <print_mutex>:
	...

20000260 <__mutex_array_end>:
20000260:	10007f85 	.word	0x10007f85
20000264:	10007045 	.word	0x10007045
20000268:	1000775d 	.word	0x1000775d
2000026c:	10007edd 	.word	0x10007edd

20000270 <__frame_dummy_init_array_entry>:
20000270:	100002e5 10008865                       ....e...
